
PI_berrechnen.elf:     file format elf32-avr

Sections:
Idx Name          Size      VMA       LMA       File off  Algn
  0 .text         00008510  00000000  00000000  00000094  2**1
                  CONTENTS, ALLOC, LOAD, READONLY, CODE
  1 .data         000000c2  00802000  00008510  000085a4  2**0
                  CONTENTS, ALLOC, LOAD, DATA
  2 .bss          00000d71  008020c2  008020c2  00008666  2**0
                  ALLOC
  3 .comment      0000005c  00000000  00000000  00008666  2**0
                  CONTENTS, READONLY
  4 .note.gnu.avr.deviceinfo 00000040  00000000  00000000  000086c4  2**2
                  CONTENTS, READONLY
  5 .debug_aranges 00000808  00000000  00000000  00008704  2**0
                  CONTENTS, READONLY, DEBUGGING
  6 .debug_info   000104af  00000000  00000000  00008f0c  2**0
                  CONTENTS, READONLY, DEBUGGING
  7 .debug_abbrev 00005329  00000000  00000000  000193bb  2**0
                  CONTENTS, READONLY, DEBUGGING
  8 .debug_line   00005da9  00000000  00000000  0001e6e4  2**0
                  CONTENTS, READONLY, DEBUGGING
  9 .debug_frame  00001f38  00000000  00000000  00024490  2**2
                  CONTENTS, READONLY, DEBUGGING
 10 .debug_str    000059e0  00000000  00000000  000263c8  2**0
                  CONTENTS, READONLY, DEBUGGING
 11 .debug_loc    0000cb30  00000000  00000000  0002bda8  2**0
                  CONTENTS, READONLY, DEBUGGING
 12 .debug_ranges 000008e8  00000000  00000000  000388d8  2**0
                  CONTENTS, READONLY, DEBUGGING

Disassembly of section .text:

00000000 <__vectors>:
       0:	0c 94 e2 01 	jmp	0x3c4	; 0x3c4 <__ctors_end>
       4:	0c 94 0b 02 	jmp	0x416	; 0x416 <__bad_interrupt>
       8:	0c 94 0b 02 	jmp	0x416	; 0x416 <__bad_interrupt>
       c:	0c 94 0b 02 	jmp	0x416	; 0x416 <__bad_interrupt>
      10:	0c 94 0b 02 	jmp	0x416	; 0x416 <__bad_interrupt>
      14:	0c 94 0b 02 	jmp	0x416	; 0x416 <__bad_interrupt>
      18:	0c 94 0b 02 	jmp	0x416	; 0x416 <__bad_interrupt>
      1c:	0c 94 0b 02 	jmp	0x416	; 0x416 <__bad_interrupt>
      20:	0c 94 0b 02 	jmp	0x416	; 0x416 <__bad_interrupt>
      24:	0c 94 0b 02 	jmp	0x416	; 0x416 <__bad_interrupt>
      28:	0c 94 0b 02 	jmp	0x416	; 0x416 <__bad_interrupt>
      2c:	0c 94 0b 02 	jmp	0x416	; 0x416 <__bad_interrupt>
      30:	0c 94 0b 02 	jmp	0x416	; 0x416 <__bad_interrupt>
      34:	0c 94 0b 02 	jmp	0x416	; 0x416 <__bad_interrupt>
      38:	0c 94 0a 1c 	jmp	0x3814	; 0x3814 <__vector_14>
      3c:	0c 94 0b 02 	jmp	0x416	; 0x416 <__bad_interrupt>
      40:	0c 94 0b 02 	jmp	0x416	; 0x416 <__bad_interrupt>
      44:	0c 94 0b 02 	jmp	0x416	; 0x416 <__bad_interrupt>
      48:	0c 94 0b 02 	jmp	0x416	; 0x416 <__bad_interrupt>
      4c:	0c 94 0b 02 	jmp	0x416	; 0x416 <__bad_interrupt>
      50:	0c 94 0b 02 	jmp	0x416	; 0x416 <__bad_interrupt>
      54:	0c 94 0b 02 	jmp	0x416	; 0x416 <__bad_interrupt>
      58:	0c 94 0b 02 	jmp	0x416	; 0x416 <__bad_interrupt>
      5c:	0c 94 0b 02 	jmp	0x416	; 0x416 <__bad_interrupt>
      60:	0c 94 0b 02 	jmp	0x416	; 0x416 <__bad_interrupt>
      64:	0c 94 0b 02 	jmp	0x416	; 0x416 <__bad_interrupt>
      68:	0c 94 0b 02 	jmp	0x416	; 0x416 <__bad_interrupt>
      6c:	0c 94 0b 02 	jmp	0x416	; 0x416 <__bad_interrupt>
      70:	0c 94 0b 02 	jmp	0x416	; 0x416 <__bad_interrupt>
      74:	0c 94 0b 02 	jmp	0x416	; 0x416 <__bad_interrupt>
      78:	0c 94 0b 02 	jmp	0x416	; 0x416 <__bad_interrupt>
      7c:	0c 94 0b 02 	jmp	0x416	; 0x416 <__bad_interrupt>
      80:	0c 94 0b 02 	jmp	0x416	; 0x416 <__bad_interrupt>
      84:	0c 94 0b 02 	jmp	0x416	; 0x416 <__bad_interrupt>
      88:	0c 94 0b 02 	jmp	0x416	; 0x416 <__bad_interrupt>
      8c:	0c 94 0b 02 	jmp	0x416	; 0x416 <__bad_interrupt>
      90:	0c 94 0b 02 	jmp	0x416	; 0x416 <__bad_interrupt>
      94:	0c 94 0b 02 	jmp	0x416	; 0x416 <__bad_interrupt>
      98:	0c 94 0b 02 	jmp	0x416	; 0x416 <__bad_interrupt>
      9c:	0c 94 0b 02 	jmp	0x416	; 0x416 <__bad_interrupt>
      a0:	0c 94 0b 02 	jmp	0x416	; 0x416 <__bad_interrupt>
      a4:	0c 94 0b 02 	jmp	0x416	; 0x416 <__bad_interrupt>
      a8:	0c 94 0b 02 	jmp	0x416	; 0x416 <__bad_interrupt>
      ac:	0c 94 0b 02 	jmp	0x416	; 0x416 <__bad_interrupt>
      b0:	0c 94 0b 02 	jmp	0x416	; 0x416 <__bad_interrupt>
      b4:	0c 94 0b 02 	jmp	0x416	; 0x416 <__bad_interrupt>
      b8:	0c 94 0b 02 	jmp	0x416	; 0x416 <__bad_interrupt>
      bc:	0c 94 0b 02 	jmp	0x416	; 0x416 <__bad_interrupt>
      c0:	0c 94 0b 02 	jmp	0x416	; 0x416 <__bad_interrupt>
      c4:	0c 94 0b 02 	jmp	0x416	; 0x416 <__bad_interrupt>
      c8:	0c 94 0b 02 	jmp	0x416	; 0x416 <__bad_interrupt>
      cc:	0c 94 0b 02 	jmp	0x416	; 0x416 <__bad_interrupt>
      d0:	0c 94 0b 02 	jmp	0x416	; 0x416 <__bad_interrupt>
      d4:	0c 94 0b 02 	jmp	0x416	; 0x416 <__bad_interrupt>
      d8:	0c 94 0b 02 	jmp	0x416	; 0x416 <__bad_interrupt>
      dc:	0c 94 0b 02 	jmp	0x416	; 0x416 <__bad_interrupt>
      e0:	0c 94 0b 02 	jmp	0x416	; 0x416 <__bad_interrupt>
      e4:	0c 94 0b 02 	jmp	0x416	; 0x416 <__bad_interrupt>
      e8:	0c 94 0b 02 	jmp	0x416	; 0x416 <__bad_interrupt>
      ec:	0c 94 0b 02 	jmp	0x416	; 0x416 <__bad_interrupt>
      f0:	0c 94 0b 02 	jmp	0x416	; 0x416 <__bad_interrupt>
      f4:	0c 94 0b 02 	jmp	0x416	; 0x416 <__bad_interrupt>
      f8:	0c 94 0b 02 	jmp	0x416	; 0x416 <__bad_interrupt>
      fc:	0c 94 0b 02 	jmp	0x416	; 0x416 <__bad_interrupt>
     100:	0c 94 0b 02 	jmp	0x416	; 0x416 <__bad_interrupt>
     104:	0c 94 0b 02 	jmp	0x416	; 0x416 <__bad_interrupt>
     108:	0c 94 0b 02 	jmp	0x416	; 0x416 <__bad_interrupt>
     10c:	0c 94 0b 02 	jmp	0x416	; 0x416 <__bad_interrupt>
     110:	0c 94 0b 02 	jmp	0x416	; 0x416 <__bad_interrupt>
     114:	0c 94 0b 02 	jmp	0x416	; 0x416 <__bad_interrupt>
     118:	0c 94 0b 02 	jmp	0x416	; 0x416 <__bad_interrupt>
     11c:	0c 94 0b 02 	jmp	0x416	; 0x416 <__bad_interrupt>
     120:	0c 94 0b 02 	jmp	0x416	; 0x416 <__bad_interrupt>
     124:	0c 94 0b 02 	jmp	0x416	; 0x416 <__bad_interrupt>
     128:	0c 94 0b 02 	jmp	0x416	; 0x416 <__bad_interrupt>
     12c:	0c 94 0b 02 	jmp	0x416	; 0x416 <__bad_interrupt>
     130:	0c 94 0b 02 	jmp	0x416	; 0x416 <__bad_interrupt>
     134:	0c 94 c2 30 	jmp	0x6184	; 0x6184 <__vector_77>
     138:	0c 94 0b 02 	jmp	0x416	; 0x416 <__bad_interrupt>
     13c:	0c 94 0b 02 	jmp	0x416	; 0x416 <__bad_interrupt>
     140:	0c 94 0b 02 	jmp	0x416	; 0x416 <__bad_interrupt>
     144:	0c 94 0b 02 	jmp	0x416	; 0x416 <__bad_interrupt>
     148:	0c 94 0b 02 	jmp	0x416	; 0x416 <__bad_interrupt>
     14c:	0c 94 0b 02 	jmp	0x416	; 0x416 <__bad_interrupt>
     150:	0c 94 0b 02 	jmp	0x416	; 0x416 <__bad_interrupt>
     154:	0c 94 0b 02 	jmp	0x416	; 0x416 <__bad_interrupt>
     158:	0c 94 0b 02 	jmp	0x416	; 0x416 <__bad_interrupt>
     15c:	0c 94 0b 02 	jmp	0x416	; 0x416 <__bad_interrupt>
     160:	0c 94 0b 02 	jmp	0x416	; 0x416 <__bad_interrupt>
     164:	0c 94 0b 02 	jmp	0x416	; 0x416 <__bad_interrupt>
     168:	0c 94 0b 02 	jmp	0x416	; 0x416 <__bad_interrupt>
     16c:	0c 94 0b 02 	jmp	0x416	; 0x416 <__bad_interrupt>
     170:	0c 94 0b 02 	jmp	0x416	; 0x416 <__bad_interrupt>
     174:	0c 94 0b 02 	jmp	0x416	; 0x416 <__bad_interrupt>
     178:	0c 94 0b 02 	jmp	0x416	; 0x416 <__bad_interrupt>
     17c:	0c 94 0b 02 	jmp	0x416	; 0x416 <__bad_interrupt>
     180:	0c 94 0b 02 	jmp	0x416	; 0x416 <__bad_interrupt>
     184:	0c 94 0b 02 	jmp	0x416	; 0x416 <__bad_interrupt>
     188:	0c 94 0b 02 	jmp	0x416	; 0x416 <__bad_interrupt>
     18c:	0c 94 0b 02 	jmp	0x416	; 0x416 <__bad_interrupt>
     190:	0c 94 0b 02 	jmp	0x416	; 0x416 <__bad_interrupt>
     194:	0c 94 0b 02 	jmp	0x416	; 0x416 <__bad_interrupt>
     198:	0c 94 0b 02 	jmp	0x416	; 0x416 <__bad_interrupt>
     19c:	0c 94 0b 02 	jmp	0x416	; 0x416 <__bad_interrupt>
     1a0:	0c 94 0b 02 	jmp	0x416	; 0x416 <__bad_interrupt>
     1a4:	0c 94 0b 02 	jmp	0x416	; 0x416 <__bad_interrupt>
     1a8:	0c 94 0b 02 	jmp	0x416	; 0x416 <__bad_interrupt>
     1ac:	0c 94 0b 02 	jmp	0x416	; 0x416 <__bad_interrupt>
     1b0:	0c 94 35 31 	jmp	0x626a	; 0x626a <__vector_108>
     1b4:	0c 94 0b 02 	jmp	0x416	; 0x416 <__bad_interrupt>
     1b8:	0c 94 0b 02 	jmp	0x416	; 0x416 <__bad_interrupt>
     1bc:	0c 94 0b 02 	jmp	0x416	; 0x416 <__bad_interrupt>
     1c0:	0c 94 0b 02 	jmp	0x416	; 0x416 <__bad_interrupt>
     1c4:	0c 94 0b 02 	jmp	0x416	; 0x416 <__bad_interrupt>
     1c8:	0c 94 0b 02 	jmp	0x416	; 0x416 <__bad_interrupt>
     1cc:	0c 94 0b 02 	jmp	0x416	; 0x416 <__bad_interrupt>
     1d0:	0c 94 0b 02 	jmp	0x416	; 0x416 <__bad_interrupt>
     1d4:	0c 94 0b 02 	jmp	0x416	; 0x416 <__bad_interrupt>
     1d8:	0c 94 0b 02 	jmp	0x416	; 0x416 <__bad_interrupt>
     1dc:	0c 94 0b 02 	jmp	0x416	; 0x416 <__bad_interrupt>
     1e0:	0c 94 0b 02 	jmp	0x416	; 0x416 <__bad_interrupt>
     1e4:	0c 94 0b 02 	jmp	0x416	; 0x416 <__bad_interrupt>
     1e8:	0c 94 0b 02 	jmp	0x416	; 0x416 <__bad_interrupt>
     1ec:	0c 94 0b 02 	jmp	0x416	; 0x416 <__bad_interrupt>
     1f0:	0c 94 0b 02 	jmp	0x416	; 0x416 <__bad_interrupt>
     1f4:	0c 94 0b 02 	jmp	0x416	; 0x416 <__bad_interrupt>
     1f8:	0c 94 0b 02 	jmp	0x416	; 0x416 <__bad_interrupt>
     1fc:	f9 27       	eor	r31, r25
     1fe:	f9 27       	eor	r31, r25
     200:	f9 27       	eor	r31, r25
     202:	46 28       	or	r4, r6
     204:	2e 28       	or	r2, r14
     206:	43 28       	or	r4, r3
     208:	f9 27       	eor	r31, r25
     20a:	f9 27       	eor	r31, r25
     20c:	46 28       	or	r4, r6
     20e:	2e 28       	or	r2, r14
     210:	07 63       	ori	r16, 0x37	; 55
     212:	42 36       	cpi	r20, 0x62	; 98
     214:	b7 9b       	sbis	0x16, 7	; 22
     216:	d8 a7       	std	Y+40, r29	; 0x28
     218:	1a 39       	cpi	r17, 0x9A	; 154
     21a:	68 56       	subi	r22, 0x68	; 104
     21c:	18 ae       	std	Y+56, r1	; 0x38
     21e:	ba ab       	std	Y+50, r27	; 0x32
     220:	55 8c       	ldd	r5, Z+29	; 0x1d
     222:	1d 3c       	cpi	r17, 0xCD	; 205
     224:	b7 cc       	rjmp	.-1682   	; 0xfffffb94 <__eeprom_end+0xff7efb94>
     226:	57 63       	ori	r21, 0x37	; 55
     228:	bd 6d       	ori	r27, 0xDD	; 221
     22a:	ed fd       	.word	0xfded	; ????
     22c:	75 3e       	cpi	r23, 0xE5	; 229
     22e:	f6 17       	cp	r31, r22
     230:	72 31       	cpi	r23, 0x12	; 18
     232:	bf 00       	.word	0x00bf	; ????
     234:	00 00       	nop
     236:	80 3f       	cpi	r24, 0xF0	; 240
     238:	08 00       	.word	0x0008	; ????
     23a:	00 00       	nop
     23c:	be 92       	st	-X, r11
     23e:	24 49       	sbci	r18, 0x94	; 148
     240:	12 3e       	cpi	r17, 0xE2	; 226
     242:	ab aa       	std	Y+51, r10	; 0x33
     244:	aa 2a       	or	r10, r26
     246:	be cd       	rjmp	.-1156   	; 0xfffffdc4 <__eeprom_end+0xff7efdc4>
     248:	cc cc       	rjmp	.-1640   	; 0xfffffbe2 <__eeprom_end+0xff7efbe2>
     24a:	4c 3e       	cpi	r20, 0xEC	; 236
     24c:	00 00       	nop
     24e:	00 80       	ld	r0, Z
     250:	be ab       	std	Y+54, r27	; 0x36
     252:	aa aa       	std	Y+50, r10	; 0x32
     254:	aa 3e       	cpi	r26, 0xEA	; 234
     256:	00 00       	nop
     258:	00 00       	nop
     25a:	bf 00       	.word	0x00bf	; ????
     25c:	00 00       	nop
     25e:	80 3f       	cpi	r24, 0xF0	; 240
     260:	00 00       	nop
     262:	00 00       	nop
     264:	00 08       	sbc	r0, r0
     266:	41 78       	andi	r20, 0x81	; 129
     268:	d3 bb       	out	0x13, r29	; 19
     26a:	43 87       	std	Z+11, r20	; 0x0b
     26c:	d1 13       	cpse	r29, r17
     26e:	3d 19       	sub	r19, r13
     270:	0e 3c       	cpi	r16, 0xCE	; 206
     272:	c3 bd       	out	0x23, r28	; 35
     274:	42 82       	std	Z+2, r4	; 0x02
     276:	ad 2b       	or	r26, r29
     278:	3e 68       	ori	r19, 0x8E	; 142
     27a:	ec 82       	std	Y+4, r14	; 0x04
     27c:	76 be       	out	0x36, r7	; 54
     27e:	d9 8f       	std	Y+25, r29	; 0x19
     280:	e1 a9       	ldd	r30, Z+49	; 0x31
     282:	3e 4c       	sbci	r19, 0xCE	; 206
     284:	80 ef       	ldi	r24, 0xF0	; 240
     286:	ff be       	out	0x3f, r15	; 63
     288:	01 c4       	rjmp	.+2050   	; 0xa8c <f_shift_left_until_bit63_set+0x15e>
     28a:	ff 7f       	andi	r31, 0xFF	; 255
     28c:	3f 00       	.word	0x003f	; ????
     28e:	00 00       	nop
	...

00000292 <__trampolines_start>:
     292:	0c 94 46 28 	jmp	0x508c	; 0x508c <prvTimerTask+0x212>
     296:	0c 94 43 28 	jmp	0x5086	; 0x5086 <prvTimerTask+0x20c>
     29a:	0c 94 f5 19 	jmp	0x33ea	; 0x33ea <vEventGroupSetBitsCallback>
     29e:	0c 94 a4 2d 	jmp	0x5b48	; 0x5b48 <vAusgabe>
     2a2:	0c 94 1f 20 	jmp	0x403e	; 0x403e <prvIdleTask>
     2a6:	0c 94 3d 27 	jmp	0x4e7a	; 0x4e7a <prvTimerTask>
     2aa:	0c 94 ad 29 	jmp	0x535a	; 0x535a <vAlgorithmus2>
     2ae:	0c 94 ca 28 	jmp	0x5194	; 0x5194 <vAlgorithmus1>
     2b2:	0c 94 d4 32 	jmp	0x65a8	; 0x65a8 <vDisplayUpdateTask>
     2b6:	0c 94 f9 27 	jmp	0x4ff2	; 0x4ff2 <prvTimerTask+0x178>
     2ba:	0c 94 2e 28 	jmp	0x505c	; 0x505c <prvTimerTask+0x1e2>
     2be:	0c 94 f0 2a 	jmp	0x55e0	; 0x55e0 <vAlgorithmus3>

000002c2 <__trampolines_end>:
     2c2:	6e 61       	ori	r22, 0x1E	; 30
     2c4:	6e 00       	.word	0x006e	; ????

000002c6 <__c.2332>:
     2c6:	69 6e 66 00 00 40 7a 10 f3 5a 00 a0 72 4e 18 09     inf..@z..Z..rN..
     2d6:	00 10 a5 d4 e8 00 00 e8 76 48 17 00 00 e4 0b 54     ........vH.....T
     2e6:	02 00 00 ca 9a 3b 00 00 00 e1 f5 05 00 00 80 96     .....;..........
     2f6:	98 00 00 00 40 42 0f 00 00 00 a0 86 01 00 00 00     ....@B..........
     306:	10 27 00 00 00 00 e8 03 00 00 00 00 64 00 00 00     .'..........d...
     316:	00 00 0a 00 00 00 00 00 01 00 00 00 00 00 2c 76     ..............,v
     326:	d8 88 dc 67 4f 08 23 df c1 df ae 59 e1 b1 b7 96     ...gO.#....Y....
     336:	e5 e3 e4 53 c6 3a e6 51 99 76 96 e8 e6 c2 84 26     ...S.:.Q.v.....&
     346:	eb 89 8c 9b 62 ed 40 7c 6f fc ef bc 9c 9f 40 f2     ....b.@|o.....@.
     356:	ba a5 6f a5 f4 90 05 5a 2a f7 5c 93 6b 6c f9 67     ..o....Z*.\.kl.g
     366:	6d c1 1b fc e0 e4 0d 47 fe f5 20 e6 b5 00 d0 ed     m......G.. .....
     376:	90 2e 03 00 94 35 77 05 00 80 84 1e 08 00 00 20     .....5w........ 
     386:	4e 0a 00 00 00 c8 0c 33 33 33 33 0f 98 6e 12 83     N......3333..n..
     396:	11 41 ef 8d 21 14 89 3b e6 55 16 cf fe e6 db 18     .A..!..;.U......
     3a6:	d1 84 4b 38 1b f7 7c 1d 90 1d a4 bb e4 24 20 32     ..K8..|......$ 2
     3b6:	84 72 5e 22 81 00 c9 f1 24 ec a1 e5 3d 27           .r^"....$...='

000003c4 <__ctors_end>:
     3c4:	11 24       	eor	r1, r1
     3c6:	1f be       	out	0x3f, r1	; 63
     3c8:	cf ef       	ldi	r28, 0xFF	; 255
     3ca:	cd bf       	out	0x3d, r28	; 61
     3cc:	df e3       	ldi	r29, 0x3F	; 63
     3ce:	de bf       	out	0x3e, r29	; 62
     3d0:	00 e0       	ldi	r16, 0x00	; 0
     3d2:	0c bf       	out	0x3c, r16	; 60

000003d4 <init_mem>:
// !!! Never call this function, it is part of .init-Code
void __attribute__ ((naked, section(".init3"))) init_mem (void);
void init_mem (void)
{
   //  Use inline assembler so it works even with optimization turned off
   __asm volatile (
     3d4:	e3 e3       	ldi	r30, 0x33	; 51
     3d6:	fe e2       	ldi	r31, 0x2E	; 46
     3d8:	8a ea       	ldi	r24, 0xAA	; 170
     3da:	90 e4       	ldi	r25, 0x40	; 64
     3dc:	81 93       	st	Z+, r24
     3de:	e0 30       	cpi	r30, 0x00	; 0
     3e0:	f9 07       	cpc	r31, r25
     3e2:	e0 f3       	brcs	.-8      	; 0x3dc <init_mem+0x8>

000003e4 <__do_copy_data>:
     3e4:	10 e2       	ldi	r17, 0x20	; 32
     3e6:	a0 e0       	ldi	r26, 0x00	; 0
     3e8:	b0 e2       	ldi	r27, 0x20	; 32
     3ea:	e0 e1       	ldi	r30, 0x10	; 16
     3ec:	f5 e8       	ldi	r31, 0x85	; 133
     3ee:	00 e0       	ldi	r16, 0x00	; 0
     3f0:	0b bf       	out	0x3b, r16	; 59
     3f2:	02 c0       	rjmp	.+4      	; 0x3f8 <__do_copy_data+0x14>
     3f4:	07 90       	elpm	r0, Z+
     3f6:	0d 92       	st	X+, r0
     3f8:	a2 3c       	cpi	r26, 0xC2	; 194
     3fa:	b1 07       	cpc	r27, r17
     3fc:	d9 f7       	brne	.-10     	; 0x3f4 <__do_copy_data+0x10>

000003fe <__do_clear_bss>:
     3fe:	2e e2       	ldi	r18, 0x2E	; 46
     400:	a2 ec       	ldi	r26, 0xC2	; 194
     402:	b0 e2       	ldi	r27, 0x20	; 32
     404:	01 c0       	rjmp	.+2      	; 0x408 <.do_clear_bss_start>

00000406 <.do_clear_bss_loop>:
     406:	1d 92       	st	X+, r1

00000408 <.do_clear_bss_start>:
     408:	a3 33       	cpi	r26, 0x33	; 51
     40a:	b2 07       	cpc	r27, r18
     40c:	e1 f7       	brne	.-8      	; 0x406 <.do_clear_bss_loop>
     40e:	0e 94 32 30 	call	0x6064	; 0x6064 <main>
     412:	0c 94 86 42 	jmp	0x850c	; 0x850c <_exit>

00000416 <__bad_interrupt>:
     416:	0c 94 00 00 	jmp	0	; 0x0 <__vectors>

0000041a <f_split64>:
	//f32= *((float32_t *)&ui32); //gives compiler warning about type-punned. which might be right if sizeof(float) != sizeof(uint32_t)
	void * dummy = &ui32;
	f32 = *((float*)dummy);
	return(f32);

}
     41a:	2f 92       	push	r2
     41c:	3f 92       	push	r3
     41e:	4f 92       	push	r4
     420:	5f 92       	push	r5
     422:	6f 92       	push	r6
     424:	7f 92       	push	r7
     426:	8f 92       	push	r8
     428:	9f 92       	push	r9
     42a:	af 92       	push	r10
     42c:	bf 92       	push	r11
     42e:	cf 92       	push	r12
     430:	df 92       	push	r13
     432:	ef 92       	push	r14
     434:	ff 92       	push	r15
     436:	0f 93       	push	r16
     438:	1f 93       	push	r17
     43a:	cf 93       	push	r28
     43c:	df 93       	push	r29
     43e:	dc 01       	movw	r26, r24
     440:	1b 01       	movw	r2, r22
     442:	2a 01       	movw	r4, r20
     444:	f9 01       	movw	r30, r18
     446:	10 2f       	mov	r17, r16
     448:	8c 91       	ld	r24, X
     44a:	80 83       	st	Z, r24
     44c:	11 96       	adiw	r26, 0x01	; 1
     44e:	8c 91       	ld	r24, X
     450:	11 97       	sbiw	r26, 0x01	; 1
     452:	81 83       	std	Z+1, r24	; 0x01
     454:	12 96       	adiw	r26, 0x02	; 2
     456:	8c 91       	ld	r24, X
     458:	12 97       	sbiw	r26, 0x02	; 2
     45a:	82 83       	std	Z+2, r24	; 0x02
     45c:	13 96       	adiw	r26, 0x03	; 3
     45e:	8c 91       	ld	r24, X
     460:	13 97       	sbiw	r26, 0x03	; 3
     462:	83 83       	std	Z+3, r24	; 0x03
     464:	14 96       	adiw	r26, 0x04	; 4
     466:	8c 91       	ld	r24, X
     468:	14 97       	sbiw	r26, 0x04	; 4
     46a:	84 83       	std	Z+4, r24	; 0x04
     46c:	15 96       	adiw	r26, 0x05	; 5
     46e:	8c 91       	ld	r24, X
     470:	15 97       	sbiw	r26, 0x05	; 5
     472:	85 83       	std	Z+5, r24	; 0x05
     474:	16 96       	adiw	r26, 0x06	; 6
     476:	8c 91       	ld	r24, X
     478:	16 97       	sbiw	r26, 0x06	; 6
     47a:	8f 70       	andi	r24, 0x0F	; 15
     47c:	86 83       	std	Z+6, r24	; 0x06
     47e:	17 82       	std	Z+7, r1	; 0x07
     480:	2c 91       	ld	r18, X
     482:	11 96       	adiw	r26, 0x01	; 1
     484:	3c 91       	ld	r19, X
     486:	11 97       	sbiw	r26, 0x01	; 1
     488:	12 96       	adiw	r26, 0x02	; 2
     48a:	4c 91       	ld	r20, X
     48c:	12 97       	sbiw	r26, 0x02	; 2
     48e:	13 96       	adiw	r26, 0x03	; 3
     490:	5c 91       	ld	r21, X
     492:	13 97       	sbiw	r26, 0x03	; 3
     494:	14 96       	adiw	r26, 0x04	; 4
     496:	6c 91       	ld	r22, X
     498:	14 97       	sbiw	r26, 0x04	; 4
     49a:	15 96       	adiw	r26, 0x05	; 5
     49c:	7c 91       	ld	r23, X
     49e:	15 97       	sbiw	r26, 0x05	; 5
     4a0:	16 96       	adiw	r26, 0x06	; 6
     4a2:	8c 91       	ld	r24, X
     4a4:	16 97       	sbiw	r26, 0x06	; 6
     4a6:	17 96       	adiw	r26, 0x07	; 7
     4a8:	9c 91       	ld	r25, X
     4aa:	17 97       	sbiw	r26, 0x07	; 7
     4ac:	04 e3       	ldi	r16, 0x34	; 52
     4ae:	0e 94 22 40 	call	0x8044	; 0x8044 <__lshrdi3>
     4b2:	82 2e       	mov	r8, r18
     4b4:	93 2e       	mov	r9, r19
     4b6:	34 01       	movw	r6, r8
     4b8:	87 e0       	ldi	r24, 0x07	; 7
     4ba:	78 22       	and	r7, r24
     4bc:	e2 01       	movw	r28, r4
     4be:	68 82       	st	Y, r6
     4c0:	79 82       	std	Y+1, r7	; 0x01
     4c2:	61 14       	cp	r6, r1
     4c4:	71 04       	cpc	r7, r1
     4c6:	49 f4       	brne	.+18     	; 0x4da <f_split64+0xc0>
     4c8:	10 82       	st	Z, r1
     4ca:	11 82       	std	Z+1, r1	; 0x01
     4cc:	12 82       	std	Z+2, r1	; 0x02
     4ce:	13 82       	std	Z+3, r1	; 0x03
     4d0:	14 82       	std	Z+4, r1	; 0x04
     4d2:	15 82       	std	Z+5, r1	; 0x05
     4d4:	16 82       	std	Z+6, r1	; 0x06
     4d6:	17 82       	std	Z+7, r1	; 0x07
     4d8:	08 c0       	rjmp	.+16     	; 0x4ea <f_split64+0xd0>
     4da:	df ef       	ldi	r29, 0xFF	; 255
     4dc:	6d 16       	cp	r6, r29
     4de:	d7 e0       	ldi	r29, 0x07	; 7
     4e0:	7d 06       	cpc	r7, r29
     4e2:	19 f0       	breq	.+6      	; 0x4ea <f_split64+0xd0>
     4e4:	86 81       	ldd	r24, Z+6	; 0x06
     4e6:	80 61       	ori	r24, 0x10	; 16
     4e8:	86 83       	std	Z+6, r24	; 0x06
     4ea:	20 81       	ld	r18, Z
     4ec:	31 81       	ldd	r19, Z+1	; 0x01
     4ee:	42 81       	ldd	r20, Z+2	; 0x02
     4f0:	53 81       	ldd	r21, Z+3	; 0x03
     4f2:	64 81       	ldd	r22, Z+4	; 0x04
     4f4:	75 81       	ldd	r23, Z+5	; 0x05
     4f6:	86 81       	ldd	r24, Z+6	; 0x06
     4f8:	97 81       	ldd	r25, Z+7	; 0x07
     4fa:	01 2f       	mov	r16, r17
     4fc:	0e 94 07 40 	call	0x800e	; 0x800e <__ashldi3>
     500:	20 83       	st	Z, r18
     502:	31 83       	std	Z+1, r19	; 0x01
     504:	42 83       	std	Z+2, r20	; 0x02
     506:	53 83       	std	Z+3, r21	; 0x03
     508:	64 83       	std	Z+4, r22	; 0x04
     50a:	75 83       	std	Z+5, r23	; 0x05
     50c:	86 83       	std	Z+6, r24	; 0x06
     50e:	97 83       	std	Z+7, r25	; 0x07
     510:	2c 91       	ld	r18, X
     512:	11 96       	adiw	r26, 0x01	; 1
     514:	3c 91       	ld	r19, X
     516:	11 97       	sbiw	r26, 0x01	; 1
     518:	12 96       	adiw	r26, 0x02	; 2
     51a:	4c 91       	ld	r20, X
     51c:	12 97       	sbiw	r26, 0x02	; 2
     51e:	13 96       	adiw	r26, 0x03	; 3
     520:	5c 91       	ld	r21, X
     522:	13 97       	sbiw	r26, 0x03	; 3
     524:	14 96       	adiw	r26, 0x04	; 4
     526:	6c 91       	ld	r22, X
     528:	14 97       	sbiw	r26, 0x04	; 4
     52a:	15 96       	adiw	r26, 0x05	; 5
     52c:	7c 91       	ld	r23, X
     52e:	15 97       	sbiw	r26, 0x05	; 5
     530:	16 96       	adiw	r26, 0x06	; 6
     532:	8c 91       	ld	r24, X
     534:	16 97       	sbiw	r26, 0x06	; 6
     536:	17 96       	adiw	r26, 0x07	; 7
     538:	9c 91       	ld	r25, X
     53a:	0f e3       	ldi	r16, 0x3F	; 63
     53c:	0e 94 22 40 	call	0x8044	; 0x8044 <__lshrdi3>
     540:	f1 01       	movw	r30, r2
     542:	20 83       	st	Z, r18
     544:	df 91       	pop	r29
     546:	cf 91       	pop	r28
     548:	1f 91       	pop	r17
     54a:	0f 91       	pop	r16
     54c:	ff 90       	pop	r15
     54e:	ef 90       	pop	r14
     550:	df 90       	pop	r13
     552:	cf 90       	pop	r12
     554:	bf 90       	pop	r11
     556:	af 90       	pop	r10
     558:	9f 90       	pop	r9
     55a:	8f 90       	pop	r8
     55c:	7f 90       	pop	r7
     55e:	6f 90       	pop	r6
     560:	5f 90       	pop	r5
     562:	4f 90       	pop	r4
     564:	3f 90       	pop	r3
     566:	2f 90       	pop	r2
     568:	08 95       	ret

0000056a <f_combi_from_fixpoint>:
     56a:	2f 92       	push	r2
     56c:	3f 92       	push	r3
     56e:	4f 92       	push	r4
     570:	5f 92       	push	r5
     572:	6f 92       	push	r6
     574:	7f 92       	push	r7
     576:	8f 92       	push	r8
     578:	9f 92       	push	r9
     57a:	af 92       	push	r10
     57c:	bf 92       	push	r11
     57e:	cf 92       	push	r12
     580:	df 92       	push	r13
     582:	ef 92       	push	r14
     584:	ff 92       	push	r15
     586:	0f 93       	push	r16
     588:	1f 93       	push	r17
     58a:	cf 93       	push	r28
     58c:	df 93       	push	r29
     58e:	00 d0       	rcall	.+0      	; 0x590 <f_combi_from_fixpoint+0x26>
     590:	1f 92       	push	r1
     592:	cd b7       	in	r28, 0x3d	; 61
     594:	de b7       	in	r29, 0x3e	; 62
     596:	5c 01       	movw	r10, r24
     598:	69 83       	std	Y+1, r22	; 0x01
     59a:	6a 01       	movw	r12, r20
     59c:	d9 01       	movw	r26, r18
     59e:	ec 91       	ld	r30, X
     5a0:	11 96       	adiw	r26, 0x01	; 1
     5a2:	fc 91       	ld	r31, X
     5a4:	11 97       	sbiw	r26, 0x01	; 1
     5a6:	12 96       	adiw	r26, 0x02	; 2
     5a8:	bc 91       	ld	r27, X
     5aa:	bc 83       	std	Y+4, r27	; 0x04
     5ac:	d9 01       	movw	r26, r18
     5ae:	13 96       	adiw	r26, 0x03	; 3
     5b0:	bc 91       	ld	r27, X
     5b2:	ba 83       	std	Y+2, r27	; 0x02
     5b4:	d9 01       	movw	r26, r18
     5b6:	14 96       	adiw	r26, 0x04	; 4
     5b8:	bc 91       	ld	r27, X
     5ba:	bb 83       	std	Y+3, r27	; 0x03
     5bc:	d9 01       	movw	r26, r18
     5be:	15 96       	adiw	r26, 0x05	; 5
     5c0:	fc 90       	ld	r15, X
     5c2:	15 97       	sbiw	r26, 0x05	; 5
     5c4:	16 96       	adiw	r26, 0x06	; 6
     5c6:	1c 91       	ld	r17, X
     5c8:	16 97       	sbiw	r26, 0x06	; 6
     5ca:	17 96       	adiw	r26, 0x07	; 7
     5cc:	ec 90       	ld	r14, X
     5ce:	2e 2f       	mov	r18, r30
     5d0:	3f 2f       	mov	r19, r31
     5d2:	4c 81       	ldd	r20, Y+4	; 0x04
     5d4:	5a 81       	ldd	r21, Y+2	; 0x02
     5d6:	6b 81       	ldd	r22, Y+3	; 0x03
     5d8:	7f 2d       	mov	r23, r15
     5da:	81 2f       	mov	r24, r17
     5dc:	9e 2d       	mov	r25, r14
     5de:	a0 e0       	ldi	r26, 0x00	; 0
     5e0:	0e 94 65 40 	call	0x80ca	; 0x80ca <__cmpdi2_s8>
     5e4:	09 f4       	brne	.+2      	; 0x5e8 <f_combi_from_fixpoint+0x7e>
     5e6:	1c c1       	rjmp	.+568    	; 0x820 <f_combi_from_fixpoint+0x2b6>
     5e8:	20 e0       	ldi	r18, 0x00	; 0
     5ea:	30 e0       	ldi	r19, 0x00	; 0
     5ec:	40 e0       	ldi	r20, 0x00	; 0
     5ee:	50 e0       	ldi	r21, 0x00	; 0
     5f0:	60 e0       	ldi	r22, 0x00	; 0
     5f2:	70 7e       	andi	r23, 0xE0	; 224
     5f4:	0e 94 65 40 	call	0x80ca	; 0x80ca <__cmpdi2_s8>
     5f8:	01 f5       	brne	.+64     	; 0x63a <f_combi_from_fixpoint+0xd0>
     5fa:	2e 2f       	mov	r18, r30
     5fc:	3f 2f       	mov	r19, r31
     5fe:	4c 81       	ldd	r20, Y+4	; 0x04
     600:	5a 81       	ldd	r21, Y+2	; 0x02
     602:	6b 81       	ldd	r22, Y+3	; 0x03
     604:	7f 2d       	mov	r23, r15
     606:	81 2f       	mov	r24, r17
     608:	9e 2d       	mov	r25, r14
     60a:	08 e0       	ldi	r16, 0x08	; 8
     60c:	0e 94 07 40 	call	0x800e	; 0x800e <__ashldi3>
     610:	e2 2f       	mov	r30, r18
     612:	f3 2f       	mov	r31, r19
     614:	4c 83       	std	Y+4, r20	; 0x04
     616:	5a 83       	std	Y+2, r21	; 0x02
     618:	6b 83       	std	Y+3, r22	; 0x03
     61a:	f7 2e       	mov	r15, r23
     61c:	18 2f       	mov	r17, r24
     61e:	e9 2e       	mov	r14, r25
     620:	b8 e0       	ldi	r27, 0x08	; 8
     622:	cb 1a       	sub	r12, r27
     624:	d1 08       	sbc	r13, r1
     626:	70 7e       	andi	r23, 0xE0	; 224
     628:	20 e0       	ldi	r18, 0x00	; 0
     62a:	30 e0       	ldi	r19, 0x00	; 0
     62c:	40 e0       	ldi	r20, 0x00	; 0
     62e:	50 e0       	ldi	r21, 0x00	; 0
     630:	60 e0       	ldi	r22, 0x00	; 0
     632:	a0 e0       	ldi	r26, 0x00	; 0
     634:	0e 94 65 40 	call	0x80ca	; 0x80ca <__cmpdi2_s8>
     638:	01 f3       	breq	.-64     	; 0x5fa <f_combi_from_fixpoint+0x90>
     63a:	20 e0       	ldi	r18, 0x00	; 0
     63c:	30 e0       	ldi	r19, 0x00	; 0
     63e:	40 e0       	ldi	r20, 0x00	; 0
     640:	50 e0       	ldi	r21, 0x00	; 0
     642:	60 e0       	ldi	r22, 0x00	; 0
     644:	70 e0       	ldi	r23, 0x00	; 0
     646:	81 2f       	mov	r24, r17
     648:	80 7f       	andi	r24, 0xF0	; 240
     64a:	9e 2d       	mov	r25, r14
     64c:	a0 e0       	ldi	r26, 0x00	; 0
     64e:	0e 94 65 40 	call	0x80ca	; 0x80ca <__cmpdi2_s8>
     652:	09 f5       	brne	.+66     	; 0x696 <f_combi_from_fixpoint+0x12c>
     654:	2e 2f       	mov	r18, r30
     656:	3f 2f       	mov	r19, r31
     658:	4c 81       	ldd	r20, Y+4	; 0x04
     65a:	5a 81       	ldd	r21, Y+2	; 0x02
     65c:	6b 81       	ldd	r22, Y+3	; 0x03
     65e:	7f 2d       	mov	r23, r15
     660:	81 2f       	mov	r24, r17
     662:	9e 2d       	mov	r25, r14
     664:	01 e0       	ldi	r16, 0x01	; 1
     666:	0e 94 07 40 	call	0x800e	; 0x800e <__ashldi3>
     66a:	e2 2f       	mov	r30, r18
     66c:	f3 2f       	mov	r31, r19
     66e:	4c 83       	std	Y+4, r20	; 0x04
     670:	5a 83       	std	Y+2, r21	; 0x02
     672:	6b 83       	std	Y+3, r22	; 0x03
     674:	f7 2e       	mov	r15, r23
     676:	18 2f       	mov	r17, r24
     678:	e9 2e       	mov	r14, r25
     67a:	21 e0       	ldi	r18, 0x01	; 1
     67c:	c2 1a       	sub	r12, r18
     67e:	d1 08       	sbc	r13, r1
     680:	20 e0       	ldi	r18, 0x00	; 0
     682:	30 e0       	ldi	r19, 0x00	; 0
     684:	40 e0       	ldi	r20, 0x00	; 0
     686:	50 e0       	ldi	r21, 0x00	; 0
     688:	60 e0       	ldi	r22, 0x00	; 0
     68a:	70 e0       	ldi	r23, 0x00	; 0
     68c:	80 7f       	andi	r24, 0xF0	; 240
     68e:	a0 e0       	ldi	r26, 0x00	; 0
     690:	0e 94 65 40 	call	0x80ca	; 0x80ca <__cmpdi2_s8>
     694:	f9 f2       	breq	.-66     	; 0x654 <f_combi_from_fixpoint+0xea>
     696:	20 e0       	ldi	r18, 0x00	; 0
     698:	30 e0       	ldi	r19, 0x00	; 0
     69a:	40 e0       	ldi	r20, 0x00	; 0
     69c:	50 e0       	ldi	r21, 0x00	; 0
     69e:	60 e0       	ldi	r22, 0x00	; 0
     6a0:	70 e0       	ldi	r23, 0x00	; 0
     6a2:	80 e0       	ldi	r24, 0x00	; 0
     6a4:	9e 2d       	mov	r25, r14
     6a6:	a0 e0       	ldi	r26, 0x00	; 0
     6a8:	0e 94 65 40 	call	0x80ca	; 0x80ca <__cmpdi2_s8>
     6ac:	49 f4       	brne	.+18     	; 0x6c0 <f_combi_from_fixpoint+0x156>
     6ae:	1a c1       	rjmp	.+564    	; 0x8e4 <f_combi_from_fixpoint+0x37a>
     6b0:	e8 2d       	mov	r30, r8
     6b2:	f2 2d       	mov	r31, r2
     6b4:	3c 82       	std	Y+4, r3	; 0x04
     6b6:	4a 82       	std	Y+2, r4	; 0x02
     6b8:	5b 82       	std	Y+3, r5	; 0x03
     6ba:	f6 2c       	mov	r15, r6
     6bc:	17 2d       	mov	r17, r7
     6be:	e9 2c       	mov	r14, r9
     6c0:	2e 2f       	mov	r18, r30
     6c2:	3f 2f       	mov	r19, r31
     6c4:	4c 81       	ldd	r20, Y+4	; 0x04
     6c6:	5a 81       	ldd	r21, Y+2	; 0x02
     6c8:	6b 81       	ldd	r22, Y+3	; 0x03
     6ca:	7f 2d       	mov	r23, r15
     6cc:	81 2f       	mov	r24, r17
     6ce:	9e 2d       	mov	r25, r14
     6d0:	04 e0       	ldi	r16, 0x04	; 4
     6d2:	0e 94 22 40 	call	0x8044	; 0x8044 <__lshrdi3>
     6d6:	82 2e       	mov	r8, r18
     6d8:	23 2e       	mov	r2, r19
     6da:	34 2e       	mov	r3, r20
     6dc:	45 2e       	mov	r4, r21
     6de:	56 2e       	mov	r5, r22
     6e0:	67 2e       	mov	r6, r23
     6e2:	78 2e       	mov	r7, r24
     6e4:	99 2e       	mov	r9, r25
     6e6:	84 e0       	ldi	r24, 0x04	; 4
     6e8:	c8 0e       	add	r12, r24
     6ea:	d1 1c       	adc	r13, r1
     6ec:	20 e0       	ldi	r18, 0x00	; 0
     6ee:	30 e0       	ldi	r19, 0x00	; 0
     6f0:	40 e0       	ldi	r20, 0x00	; 0
     6f2:	50 e0       	ldi	r21, 0x00	; 0
     6f4:	60 e0       	ldi	r22, 0x00	; 0
     6f6:	70 e0       	ldi	r23, 0x00	; 0
     6f8:	80 e0       	ldi	r24, 0x00	; 0
     6fa:	99 2d       	mov	r25, r9
     6fc:	a0 e0       	ldi	r26, 0x00	; 0
     6fe:	0e 94 65 40 	call	0x80ca	; 0x80ca <__cmpdi2_s8>
     702:	b1 f6       	brne	.-84     	; 0x6b0 <f_combi_from_fixpoint+0x146>
     704:	87 2d       	mov	r24, r7
     706:	80 7e       	andi	r24, 0xE0	; 224
     708:	0e 94 65 40 	call	0x80ca	; 0x80ca <__cmpdi2_s8>
     70c:	31 f5       	brne	.+76     	; 0x75a <f_combi_from_fixpoint+0x1f0>
     70e:	2e 2f       	mov	r18, r30
     710:	3f 2f       	mov	r19, r31
     712:	4c 81       	ldd	r20, Y+4	; 0x04
     714:	5a 81       	ldd	r21, Y+2	; 0x02
     716:	6b 81       	ldd	r22, Y+3	; 0x03
     718:	7f 2d       	mov	r23, r15
     71a:	81 2f       	mov	r24, r17
     71c:	9e 2d       	mov	r25, r14
     71e:	03 e0       	ldi	r16, 0x03	; 3
     720:	0e 94 22 40 	call	0x8044	; 0x8044 <__lshrdi3>
     724:	21 70       	andi	r18, 0x01	; 1
     726:	e8 2d       	mov	r30, r8
     728:	f2 2d       	mov	r31, r2
     72a:	3c 82       	std	Y+4, r3	; 0x04
     72c:	4a 82       	std	Y+2, r4	; 0x02
     72e:	5b 82       	std	Y+3, r5	; 0x03
     730:	f6 2c       	mov	r15, r6
     732:	17 2d       	mov	r17, r7
     734:	e9 2c       	mov	r14, r9
     736:	36 c0       	rjmp	.+108    	; 0x7a4 <f_combi_from_fixpoint+0x23a>
     738:	8e 2e       	mov	r8, r30
     73a:	2f 2e       	mov	r2, r31
     73c:	3c 80       	ldd	r3, Y+4	; 0x04
     73e:	4a 80       	ldd	r4, Y+2	; 0x02
     740:	5b 80       	ldd	r5, Y+3	; 0x03
     742:	6f 2c       	mov	r6, r15
     744:	71 2e       	mov	r7, r17
     746:	9e 2c       	mov	r9, r14
     748:	08 c0       	rjmp	.+16     	; 0x75a <f_combi_from_fixpoint+0x1f0>
     74a:	8e 2e       	mov	r8, r30
     74c:	2f 2e       	mov	r2, r31
     74e:	3c 80       	ldd	r3, Y+4	; 0x04
     750:	4a 80       	ldd	r4, Y+2	; 0x02
     752:	5b 80       	ldd	r5, Y+3	; 0x03
     754:	6f 2c       	mov	r6, r15
     756:	71 2e       	mov	r7, r17
     758:	9e 2c       	mov	r9, r14
     75a:	28 2d       	mov	r18, r8
     75c:	32 2d       	mov	r19, r2
     75e:	43 2d       	mov	r20, r3
     760:	54 2d       	mov	r21, r4
     762:	65 2d       	mov	r22, r5
     764:	76 2d       	mov	r23, r6
     766:	87 2d       	mov	r24, r7
     768:	99 2d       	mov	r25, r9
     76a:	01 e0       	ldi	r16, 0x01	; 1
     76c:	0e 94 22 40 	call	0x8044	; 0x8044 <__lshrdi3>
     770:	e2 2f       	mov	r30, r18
     772:	f3 2f       	mov	r31, r19
     774:	4c 83       	std	Y+4, r20	; 0x04
     776:	5a 83       	std	Y+2, r21	; 0x02
     778:	6b 83       	std	Y+3, r22	; 0x03
     77a:	f7 2e       	mov	r15, r23
     77c:	18 2f       	mov	r17, r24
     77e:	e9 2e       	mov	r14, r25
     780:	9f ef       	ldi	r25, 0xFF	; 255
     782:	c9 1a       	sub	r12, r25
     784:	d9 0a       	sbc	r13, r25
     786:	20 e0       	ldi	r18, 0x00	; 0
     788:	30 e0       	ldi	r19, 0x00	; 0
     78a:	40 e0       	ldi	r20, 0x00	; 0
     78c:	50 e0       	ldi	r21, 0x00	; 0
     78e:	60 e0       	ldi	r22, 0x00	; 0
     790:	70 e0       	ldi	r23, 0x00	; 0
     792:	81 2f       	mov	r24, r17
     794:	80 7e       	andi	r24, 0xE0	; 224
     796:	9e 2d       	mov	r25, r14
     798:	a0 e0       	ldi	r26, 0x00	; 0
     79a:	0e 94 65 40 	call	0x80ca	; 0x80ca <__cmpdi2_s8>
     79e:	a9 f6       	brne	.-86     	; 0x74a <f_combi_from_fixpoint+0x1e0>
     7a0:	28 2d       	mov	r18, r8
     7a2:	21 70       	andi	r18, 0x01	; 1
     7a4:	22 23       	and	r18, r18
     7a6:	c1 f1       	breq	.+112    	; 0x818 <f_combi_from_fixpoint+0x2ae>
     7a8:	2e 2f       	mov	r18, r30
     7aa:	3f 2f       	mov	r19, r31
     7ac:	4c 81       	ldd	r20, Y+4	; 0x04
     7ae:	5a 81       	ldd	r21, Y+2	; 0x02
     7b0:	6b 81       	ldd	r22, Y+3	; 0x03
     7b2:	7f 2d       	mov	r23, r15
     7b4:	81 2f       	mov	r24, r17
     7b6:	9e 2d       	mov	r25, r14
     7b8:	a1 e0       	ldi	r26, 0x01	; 1
     7ba:	0e 94 47 40 	call	0x808e	; 0x808e <__adddi3_s8>
     7be:	42 2e       	mov	r4, r18
     7c0:	53 2e       	mov	r5, r19
     7c2:	64 2e       	mov	r6, r20
     7c4:	75 2e       	mov	r7, r21
     7c6:	86 2e       	mov	r8, r22
     7c8:	97 2e       	mov	r9, r23
     7ca:	08 2f       	mov	r16, r24
     7cc:	e2 2f       	mov	r30, r18
     7ce:	f3 2f       	mov	r31, r19
     7d0:	4c 83       	std	Y+4, r20	; 0x04
     7d2:	5a 83       	std	Y+2, r21	; 0x02
     7d4:	6b 83       	std	Y+3, r22	; 0x03
     7d6:	f7 2e       	mov	r15, r23
     7d8:	18 2f       	mov	r17, r24
     7da:	20 e0       	ldi	r18, 0x00	; 0
     7dc:	30 e0       	ldi	r19, 0x00	; 0
     7de:	40 e0       	ldi	r20, 0x00	; 0
     7e0:	50 e0       	ldi	r21, 0x00	; 0
     7e2:	60 e0       	ldi	r22, 0x00	; 0
     7e4:	70 e0       	ldi	r23, 0x00	; 0
     7e6:	80 7e       	andi	r24, 0xE0	; 224
     7e8:	a0 e0       	ldi	r26, 0x00	; 0
     7ea:	0e 94 65 40 	call	0x80ca	; 0x80ca <__cmpdi2_s8>
     7ee:	a1 f0       	breq	.+40     	; 0x818 <f_combi_from_fixpoint+0x2ae>
     7f0:	24 2d       	mov	r18, r4
     7f2:	35 2d       	mov	r19, r5
     7f4:	46 2d       	mov	r20, r6
     7f6:	57 2d       	mov	r21, r7
     7f8:	68 2d       	mov	r22, r8
     7fa:	79 2d       	mov	r23, r9
     7fc:	80 2f       	mov	r24, r16
     7fe:	01 e0       	ldi	r16, 0x01	; 1
     800:	0e 94 22 40 	call	0x8044	; 0x8044 <__lshrdi3>
     804:	e2 2f       	mov	r30, r18
     806:	f3 2f       	mov	r31, r19
     808:	4c 83       	std	Y+4, r20	; 0x04
     80a:	5a 83       	std	Y+2, r21	; 0x02
     80c:	6b 83       	std	Y+3, r22	; 0x03
     80e:	f7 2e       	mov	r15, r23
     810:	18 2f       	mov	r17, r24
     812:	af ef       	ldi	r26, 0xFF	; 255
     814:	ca 1a       	sub	r12, r26
     816:	da 0a       	sbc	r13, r26
     818:	1c 14       	cp	r1, r12
     81a:	1d 04       	cpc	r1, r13
     81c:	4c f0       	brlt	.+18     	; 0x830 <f_combi_from_fixpoint+0x2c6>
     81e:	1b c0       	rjmp	.+54     	; 0x856 <f_combi_from_fixpoint+0x2ec>
     820:	bf ef       	ldi	r27, 0xFF	; 255
     822:	cb 16       	cp	r12, r27
     824:	b7 e0       	ldi	r27, 0x07	; 7
     826:	db 06       	cpc	r13, r27
     828:	04 f5       	brge	.+64     	; 0x86a <f_combi_from_fixpoint+0x300>
     82a:	c1 2c       	mov	r12, r1
     82c:	d1 2c       	mov	r13, r1
     82e:	23 c0       	rjmp	.+70     	; 0x876 <f_combi_from_fixpoint+0x30c>
     830:	2f ef       	ldi	r18, 0xFF	; 255
     832:	c2 16       	cp	r12, r18
     834:	27 e0       	ldi	r18, 0x07	; 7
     836:	d2 06       	cpc	r13, r18
     838:	f4 f0       	brlt	.+60     	; 0x876 <f_combi_from_fixpoint+0x30c>
     83a:	e0 e0       	ldi	r30, 0x00	; 0
     83c:	f0 e0       	ldi	r31, 0x00	; 0
     83e:	1c 82       	std	Y+4, r1	; 0x04
     840:	1a 82       	std	Y+2, r1	; 0x02
     842:	1b 82       	std	Y+3, r1	; 0x03
     844:	f1 2c       	mov	r15, r1
     846:	10 e0       	ldi	r17, 0x00	; 0
     848:	0f 2e       	mov	r0, r31
     84a:	cc 24       	eor	r12, r12
     84c:	ca 94       	dec	r12
     84e:	f7 e0       	ldi	r31, 0x07	; 7
     850:	df 2e       	mov	r13, r31
     852:	f0 2d       	mov	r31, r0
     854:	10 c0       	rjmp	.+32     	; 0x876 <f_combi_from_fixpoint+0x30c>
     856:	e0 e0       	ldi	r30, 0x00	; 0
     858:	f0 e0       	ldi	r31, 0x00	; 0
     85a:	1c 82       	std	Y+4, r1	; 0x04
     85c:	1a 82       	std	Y+2, r1	; 0x02
     85e:	1b 82       	std	Y+3, r1	; 0x03
     860:	f1 2c       	mov	r15, r1
     862:	10 e0       	ldi	r17, 0x00	; 0
     864:	c1 2c       	mov	r12, r1
     866:	d1 2c       	mov	r13, r1
     868:	06 c0       	rjmp	.+12     	; 0x876 <f_combi_from_fixpoint+0x30c>
     86a:	0f 2e       	mov	r0, r31
     86c:	cc 24       	eor	r12, r12
     86e:	ca 94       	dec	r12
     870:	f7 e0       	ldi	r31, 0x07	; 7
     872:	df 2e       	mov	r13, r31
     874:	f0 2d       	mov	r31, r0
     876:	29 81       	ldd	r18, Y+1	; 0x01
     878:	30 e0       	ldi	r19, 0x00	; 0
     87a:	40 e0       	ldi	r20, 0x00	; 0
     87c:	50 e0       	ldi	r21, 0x00	; 0
     87e:	60 e0       	ldi	r22, 0x00	; 0
     880:	70 e0       	ldi	r23, 0x00	; 0
     882:	80 e0       	ldi	r24, 0x00	; 0
     884:	90 e0       	ldi	r25, 0x00	; 0
     886:	0f e3       	ldi	r16, 0x3F	; 63
     888:	0e 94 07 40 	call	0x800e	; 0x800e <__ashldi3>
     88c:	a9 2f       	mov	r26, r25
     88e:	1f 70       	andi	r17, 0x0F	; 15
     890:	e2 2b       	or	r30, r18
     892:	ef 2e       	mov	r14, r31
     894:	e3 2a       	or	r14, r19
     896:	bc 81       	ldd	r27, Y+4	; 0x04
     898:	b4 2b       	or	r27, r20
     89a:	9a 80       	ldd	r9, Y+2	; 0x02
     89c:	95 2a       	or	r9, r21
     89e:	8b 80       	ldd	r8, Y+3	; 0x03
     8a0:	86 2a       	or	r8, r22
     8a2:	f7 2a       	or	r15, r23
     8a4:	18 2b       	or	r17, r24
     8a6:	9d 2d       	mov	r25, r13
     8a8:	99 0f       	add	r25, r25
     8aa:	99 0b       	sbc	r25, r25
     8ac:	2c 2d       	mov	r18, r12
     8ae:	3d 2d       	mov	r19, r13
     8b0:	49 2f       	mov	r20, r25
     8b2:	59 2f       	mov	r21, r25
     8b4:	69 2f       	mov	r22, r25
     8b6:	79 2f       	mov	r23, r25
     8b8:	89 2f       	mov	r24, r25
     8ba:	04 e3       	ldi	r16, 0x34	; 52
     8bc:	0e 94 07 40 	call	0x800e	; 0x800e <__ashldi3>
     8c0:	2e 2b       	or	r18, r30
     8c2:	f5 01       	movw	r30, r10
     8c4:	20 83       	st	Z, r18
     8c6:	3e 29       	or	r19, r14
     8c8:	31 83       	std	Z+1, r19	; 0x01
     8ca:	4b 2b       	or	r20, r27
     8cc:	42 83       	std	Z+2, r20	; 0x02
     8ce:	59 29       	or	r21, r9
     8d0:	53 83       	std	Z+3, r21	; 0x03
     8d2:	68 29       	or	r22, r8
     8d4:	64 83       	std	Z+4, r22	; 0x04
     8d6:	7f 29       	or	r23, r15
     8d8:	75 83       	std	Z+5, r23	; 0x05
     8da:	81 2b       	or	r24, r17
     8dc:	86 83       	std	Z+6, r24	; 0x06
     8de:	9a 2b       	or	r25, r26
     8e0:	97 83       	std	Z+7, r25	; 0x07
     8e2:	0f c0       	rjmp	.+30     	; 0x902 <f_combi_from_fixpoint+0x398>
     8e4:	20 e0       	ldi	r18, 0x00	; 0
     8e6:	30 e0       	ldi	r19, 0x00	; 0
     8e8:	40 e0       	ldi	r20, 0x00	; 0
     8ea:	50 e0       	ldi	r21, 0x00	; 0
     8ec:	60 e0       	ldi	r22, 0x00	; 0
     8ee:	70 e0       	ldi	r23, 0x00	; 0
     8f0:	81 2f       	mov	r24, r17
     8f2:	80 7e       	andi	r24, 0xE0	; 224
     8f4:	9e 2d       	mov	r25, r14
     8f6:	a0 e0       	ldi	r26, 0x00	; 0
     8f8:	0e 94 65 40 	call	0x80ca	; 0x80ca <__cmpdi2_s8>
     8fc:	09 f0       	breq	.+2      	; 0x900 <f_combi_from_fixpoint+0x396>
     8fe:	1c cf       	rjmp	.-456    	; 0x738 <f_combi_from_fixpoint+0x1ce>
     900:	8b cf       	rjmp	.-234    	; 0x818 <f_combi_from_fixpoint+0x2ae>
     902:	24 96       	adiw	r28, 0x04	; 4
     904:	cd bf       	out	0x3d, r28	; 61
     906:	de bf       	out	0x3e, r29	; 62
     908:	df 91       	pop	r29
     90a:	cf 91       	pop	r28
     90c:	1f 91       	pop	r17
     90e:	0f 91       	pop	r16
     910:	ff 90       	pop	r15
     912:	ef 90       	pop	r14
     914:	df 90       	pop	r13
     916:	cf 90       	pop	r12
     918:	bf 90       	pop	r11
     91a:	af 90       	pop	r10
     91c:	9f 90       	pop	r9
     91e:	8f 90       	pop	r8
     920:	7f 90       	pop	r7
     922:	6f 90       	pop	r6
     924:	5f 90       	pop	r5
     926:	4f 90       	pop	r4
     928:	3f 90       	pop	r3
     92a:	2f 90       	pop	r2
     92c:	08 95       	ret

0000092e <f_shift_left_until_bit63_set>:
     92e:	af 92       	push	r10
     930:	bf 92       	push	r11
     932:	cf 92       	push	r12
     934:	df 92       	push	r13
     936:	ef 92       	push	r14
     938:	ff 92       	push	r15
     93a:	0f 93       	push	r16
     93c:	1f 93       	push	r17
     93e:	cf 93       	push	r28
     940:	df 93       	push	r29
     942:	7c 01       	movw	r14, r24
     944:	dc 01       	movw	r26, r24
     946:	dc 90       	ld	r13, X
     948:	11 96       	adiw	r26, 0x01	; 1
     94a:	ac 90       	ld	r10, X
     94c:	11 97       	sbiw	r26, 0x01	; 1
     94e:	12 96       	adiw	r26, 0x02	; 2
     950:	bc 91       	ld	r27, X
     952:	fc 01       	movw	r30, r24
     954:	c3 81       	ldd	r28, Z+3	; 0x03
     956:	d4 81       	ldd	r29, Z+4	; 0x04
     958:	15 81       	ldd	r17, Z+5	; 0x05
     95a:	c6 80       	ldd	r12, Z+6	; 0x06
     95c:	07 81       	ldd	r16, Z+7	; 0x07
     95e:	20 e0       	ldi	r18, 0x00	; 0
     960:	30 e0       	ldi	r19, 0x00	; 0
     962:	40 e0       	ldi	r20, 0x00	; 0
     964:	50 e0       	ldi	r21, 0x00	; 0
     966:	60 e0       	ldi	r22, 0x00	; 0
     968:	70 e0       	ldi	r23, 0x00	; 0
     96a:	80 e0       	ldi	r24, 0x00	; 0
     96c:	90 2f       	mov	r25, r16
     96e:	a0 e0       	ldi	r26, 0x00	; 0
     970:	0e 94 65 40 	call	0x80ca	; 0x80ca <__cmpdi2_s8>
     974:	09 f0       	breq	.+2      	; 0x978 <f_shift_left_until_bit63_set+0x4a>
     976:	78 c0       	rjmp	.+240    	; 0xa68 <f_shift_left_until_bit63_set+0x13a>
     978:	b1 2c       	mov	r11, r1
     97a:	2d 2d       	mov	r18, r13
     97c:	3a 2d       	mov	r19, r10
     97e:	4b 2f       	mov	r20, r27
     980:	5c 2f       	mov	r21, r28
     982:	6d 2f       	mov	r22, r29
     984:	71 2f       	mov	r23, r17
     986:	8c 2d       	mov	r24, r12
     988:	90 2f       	mov	r25, r16
     98a:	08 e0       	ldi	r16, 0x08	; 8
     98c:	0e 94 07 40 	call	0x800e	; 0x800e <__ashldi3>
     990:	d2 2e       	mov	r13, r18
     992:	a3 2e       	mov	r10, r19
     994:	b4 2f       	mov	r27, r20
     996:	c5 2f       	mov	r28, r21
     998:	d6 2f       	mov	r29, r22
     99a:	17 2f       	mov	r17, r23
     99c:	c8 2e       	mov	r12, r24
     99e:	09 2f       	mov	r16, r25
     9a0:	f8 e0       	ldi	r31, 0x08	; 8
     9a2:	bf 0e       	add	r11, r31
     9a4:	20 e0       	ldi	r18, 0x00	; 0
     9a6:	30 e0       	ldi	r19, 0x00	; 0
     9a8:	40 e0       	ldi	r20, 0x00	; 0
     9aa:	50 e0       	ldi	r21, 0x00	; 0
     9ac:	60 e0       	ldi	r22, 0x00	; 0
     9ae:	70 e0       	ldi	r23, 0x00	; 0
     9b0:	80 e0       	ldi	r24, 0x00	; 0
     9b2:	a0 e0       	ldi	r26, 0x00	; 0
     9b4:	0e 94 65 40 	call	0x80ca	; 0x80ca <__cmpdi2_s8>
     9b8:	91 f0       	breq	.+36     	; 0x9de <f_shift_left_until_bit63_set+0xb0>
     9ba:	f7 01       	movw	r30, r14
     9bc:	d0 82       	st	Z, r13
     9be:	a1 82       	std	Z+1, r10	; 0x01
     9c0:	b2 83       	std	Z+2, r27	; 0x02
     9c2:	c3 83       	std	Z+3, r28	; 0x03
     9c4:	d4 83       	std	Z+4, r29	; 0x04
     9c6:	15 83       	std	Z+5, r17	; 0x05
     9c8:	c6 82       	std	Z+6, r12	; 0x06
     9ca:	97 83       	std	Z+7, r25	; 0x07
     9cc:	90 78       	andi	r25, 0x80	; 128
     9ce:	0e 94 65 40 	call	0x80ca	; 0x80ca <__cmpdi2_s8>
     9d2:	09 f0       	breq	.+2      	; 0x9d6 <f_shift_left_until_bit63_set+0xa8>
     9d4:	58 c0       	rjmp	.+176    	; 0xa86 <f_shift_left_until_bit63_set+0x158>
     9d6:	ff e3       	ldi	r31, 0x3F	; 63
     9d8:	fb 15       	cp	r31, r11
     9da:	7c f4       	brge	.+30     	; 0x9fa <f_shift_left_until_bit63_set+0xcc>
     9dc:	54 c0       	rjmp	.+168    	; 0xa86 <f_shift_left_until_bit63_set+0x158>
     9de:	80 e4       	ldi	r24, 0x40	; 64
     9e0:	b8 12       	cpse	r11, r24
     9e2:	cb cf       	rjmp	.-106    	; 0x97a <f_shift_left_until_bit63_set+0x4c>
     9e4:	f7 01       	movw	r30, r14
     9e6:	d0 82       	st	Z, r13
     9e8:	a1 82       	std	Z+1, r10	; 0x01
     9ea:	b2 83       	std	Z+2, r27	; 0x02
     9ec:	c3 83       	std	Z+3, r28	; 0x03
     9ee:	d4 83       	std	Z+4, r29	; 0x04
     9f0:	15 83       	std	Z+5, r17	; 0x05
     9f2:	c6 82       	std	Z+6, r12	; 0x06
     9f4:	97 83       	std	Z+7, r25	; 0x07
     9f6:	47 c0       	rjmp	.+142    	; 0xa86 <f_shift_left_until_bit63_set+0x158>
     9f8:	b1 2c       	mov	r11, r1
     9fa:	2d 2d       	mov	r18, r13
     9fc:	3a 2d       	mov	r19, r10
     9fe:	4b 2f       	mov	r20, r27
     a00:	5c 2f       	mov	r21, r28
     a02:	6d 2f       	mov	r22, r29
     a04:	71 2f       	mov	r23, r17
     a06:	8c 2d       	mov	r24, r12
     a08:	90 2f       	mov	r25, r16
     a0a:	01 e0       	ldi	r16, 0x01	; 1
     a0c:	0e 94 07 40 	call	0x800e	; 0x800e <__ashldi3>
     a10:	d2 2e       	mov	r13, r18
     a12:	a3 2e       	mov	r10, r19
     a14:	b4 2f       	mov	r27, r20
     a16:	c5 2f       	mov	r28, r21
     a18:	d6 2f       	mov	r29, r22
     a1a:	17 2f       	mov	r17, r23
     a1c:	c8 2e       	mov	r12, r24
     a1e:	09 2f       	mov	r16, r25
     a20:	b3 94       	inc	r11
     a22:	20 e0       	ldi	r18, 0x00	; 0
     a24:	30 e0       	ldi	r19, 0x00	; 0
     a26:	40 e0       	ldi	r20, 0x00	; 0
     a28:	50 e0       	ldi	r21, 0x00	; 0
     a2a:	60 e0       	ldi	r22, 0x00	; 0
     a2c:	70 e0       	ldi	r23, 0x00	; 0
     a2e:	80 e0       	ldi	r24, 0x00	; 0
     a30:	90 78       	andi	r25, 0x80	; 128
     a32:	a0 e0       	ldi	r26, 0x00	; 0
     a34:	0e 94 65 40 	call	0x80ca	; 0x80ca <__cmpdi2_s8>
     a38:	51 f0       	breq	.+20     	; 0xa4e <f_shift_left_until_bit63_set+0x120>
     a3a:	f7 01       	movw	r30, r14
     a3c:	d0 82       	st	Z, r13
     a3e:	a1 82       	std	Z+1, r10	; 0x01
     a40:	b2 83       	std	Z+2, r27	; 0x02
     a42:	c3 83       	std	Z+3, r28	; 0x03
     a44:	d4 83       	std	Z+4, r29	; 0x04
     a46:	15 83       	std	Z+5, r17	; 0x05
     a48:	c6 82       	std	Z+6, r12	; 0x06
     a4a:	07 83       	std	Z+7, r16	; 0x07
     a4c:	1c c0       	rjmp	.+56     	; 0xa86 <f_shift_left_until_bit63_set+0x158>
     a4e:	ff e3       	ldi	r31, 0x3F	; 63
     a50:	fb 15       	cp	r31, r11
     a52:	9c f6       	brge	.-90     	; 0x9fa <f_shift_left_until_bit63_set+0xcc>
     a54:	f7 01       	movw	r30, r14
     a56:	d0 82       	st	Z, r13
     a58:	a1 82       	std	Z+1, r10	; 0x01
     a5a:	b2 83       	std	Z+2, r27	; 0x02
     a5c:	c3 83       	std	Z+3, r28	; 0x03
     a5e:	d4 83       	std	Z+4, r29	; 0x04
     a60:	15 83       	std	Z+5, r17	; 0x05
     a62:	c6 82       	std	Z+6, r12	; 0x06
     a64:	07 83       	std	Z+7, r16	; 0x07
     a66:	0f c0       	rjmp	.+30     	; 0xa86 <f_shift_left_until_bit63_set+0x158>
     a68:	20 e0       	ldi	r18, 0x00	; 0
     a6a:	30 e0       	ldi	r19, 0x00	; 0
     a6c:	40 e0       	ldi	r20, 0x00	; 0
     a6e:	50 e0       	ldi	r21, 0x00	; 0
     a70:	60 e0       	ldi	r22, 0x00	; 0
     a72:	70 e0       	ldi	r23, 0x00	; 0
     a74:	80 e0       	ldi	r24, 0x00	; 0
     a76:	90 2f       	mov	r25, r16
     a78:	90 78       	andi	r25, 0x80	; 128
     a7a:	a0 e0       	ldi	r26, 0x00	; 0
     a7c:	0e 94 65 40 	call	0x80ca	; 0x80ca <__cmpdi2_s8>
     a80:	09 f4       	brne	.+2      	; 0xa84 <f_shift_left_until_bit63_set+0x156>
     a82:	ba cf       	rjmp	.-140    	; 0x9f8 <f_shift_left_until_bit63_set+0xca>
     a84:	b1 2c       	mov	r11, r1
     a86:	8b 2d       	mov	r24, r11
     a88:	df 91       	pop	r29
     a8a:	cf 91       	pop	r28
     a8c:	1f 91       	pop	r17
     a8e:	0f 91       	pop	r16
     a90:	ff 90       	pop	r15
     a92:	ef 90       	pop	r14
     a94:	df 90       	pop	r13
     a96:	cf 90       	pop	r12
     a98:	bf 90       	pop	r11
     a9a:	af 90       	pop	r10
     a9c:	08 95       	ret

00000a9e <approx_high_uint64_word_of_uint64_mult_uint64>:
     a9e:	2f 92       	push	r2
     aa0:	3f 92       	push	r3
     aa2:	4f 92       	push	r4
     aa4:	5f 92       	push	r5
     aa6:	6f 92       	push	r6
     aa8:	7f 92       	push	r7
     aaa:	8f 92       	push	r8
     aac:	9f 92       	push	r9
     aae:	af 92       	push	r10
     ab0:	bf 92       	push	r11
     ab2:	cf 92       	push	r12
     ab4:	df 92       	push	r13
     ab6:	ef 92       	push	r14
     ab8:	ff 92       	push	r15
     aba:	0f 93       	push	r16
     abc:	1f 93       	push	r17
     abe:	cf 93       	push	r28
     ac0:	df 93       	push	r29
     ac2:	cd b7       	in	r28, 0x3d	; 61
     ac4:	de b7       	in	r29, 0x3e	; 62
     ac6:	a1 97       	sbiw	r28, 0x21	; 33
     ac8:	cd bf       	out	0x3d, r28	; 61
     aca:	de bf       	out	0x3e, r29	; 62
     acc:	dc 01       	movw	r26, r24
     ace:	fb 01       	movw	r30, r22
     ad0:	34 2e       	mov	r3, r20
     ad2:	8c 91       	ld	r24, X
     ad4:	8e 83       	std	Y+6, r24	; 0x06
     ad6:	11 96       	adiw	r26, 0x01	; 1
     ad8:	8c 91       	ld	r24, X
     ada:	11 97       	sbiw	r26, 0x01	; 1
     adc:	8f 83       	std	Y+7, r24	; 0x07
     ade:	12 96       	adiw	r26, 0x02	; 2
     ae0:	8c 91       	ld	r24, X
     ae2:	12 97       	sbiw	r26, 0x02	; 2
     ae4:	88 87       	std	Y+8, r24	; 0x08
     ae6:	13 96       	adiw	r26, 0x03	; 3
     ae8:	8c 91       	ld	r24, X
     aea:	13 97       	sbiw	r26, 0x03	; 3
     aec:	89 87       	std	Y+9, r24	; 0x09
     aee:	14 96       	adiw	r26, 0x04	; 4
     af0:	8c 91       	ld	r24, X
     af2:	14 97       	sbiw	r26, 0x04	; 4
     af4:	8c 8f       	std	Y+28, r24	; 0x1c
     af6:	15 96       	adiw	r26, 0x05	; 5
     af8:	8c 91       	ld	r24, X
     afa:	15 97       	sbiw	r26, 0x05	; 5
     afc:	8d 8f       	std	Y+29, r24	; 0x1d
     afe:	16 96       	adiw	r26, 0x06	; 6
     b00:	8c 91       	ld	r24, X
     b02:	16 97       	sbiw	r26, 0x06	; 6
     b04:	8e 8f       	std	Y+30, r24	; 0x1e
     b06:	17 96       	adiw	r26, 0x07	; 7
     b08:	8c 91       	ld	r24, X
     b0a:	8f 8f       	std	Y+31, r24	; 0x1f
     b0c:	2e 81       	ldd	r18, Y+6	; 0x06
     b0e:	3f 81       	ldd	r19, Y+7	; 0x07
     b10:	48 85       	ldd	r20, Y+8	; 0x08
     b12:	59 85       	ldd	r21, Y+9	; 0x09
     b14:	6c 8d       	ldd	r22, Y+28	; 0x1c
     b16:	7d 8d       	ldd	r23, Y+29	; 0x1d
     b18:	8e 8d       	ldd	r24, Y+30	; 0x1e
     b1a:	9f 8d       	ldd	r25, Y+31	; 0x1f
     b1c:	00 e2       	ldi	r16, 0x20	; 32
     b1e:	0e 94 22 40 	call	0x8044	; 0x8044 <__lshrdi3>
     b22:	29 a3       	std	Y+33, r18	; 0x21
     b24:	38 a3       	std	Y+32, r19	; 0x20
     b26:	4a 87       	std	Y+10, r20	; 0x0a
     b28:	5b 87       	std	Y+11, r21	; 0x0b
     b2a:	6c 87       	std	Y+12, r22	; 0x0c
     b2c:	7d 87       	std	Y+13, r23	; 0x0d
     b2e:	8e 87       	std	Y+14, r24	; 0x0e
     b30:	9f 87       	std	Y+15, r25	; 0x0f
     b32:	40 80       	ld	r4, Z
     b34:	51 80       	ldd	r5, Z+1	; 0x01
     b36:	62 80       	ldd	r6, Z+2	; 0x02
     b38:	23 80       	ldd	r2, Z+3	; 0x03
     b3a:	84 81       	ldd	r24, Z+4	; 0x04
     b3c:	88 8f       	std	Y+24, r24	; 0x18
     b3e:	85 81       	ldd	r24, Z+5	; 0x05
     b40:	89 8f       	std	Y+25, r24	; 0x19
     b42:	86 81       	ldd	r24, Z+6	; 0x06
     b44:	8a 8f       	std	Y+26, r24	; 0x1a
     b46:	87 81       	ldd	r24, Z+7	; 0x07
     b48:	8b 8f       	std	Y+27, r24	; 0x1b
     b4a:	24 2d       	mov	r18, r4
     b4c:	35 2d       	mov	r19, r5
     b4e:	46 2d       	mov	r20, r6
     b50:	52 2d       	mov	r21, r2
     b52:	68 8d       	ldd	r22, Y+24	; 0x18
     b54:	79 8d       	ldd	r23, Y+25	; 0x19
     b56:	8a 8d       	ldd	r24, Y+26	; 0x1a
     b58:	9b 8d       	ldd	r25, Y+27	; 0x1b
     b5a:	0e 94 22 40 	call	0x8044	; 0x8044 <__lshrdi3>
     b5e:	28 8b       	std	Y+16, r18	; 0x10
     b60:	39 8b       	std	Y+17, r19	; 0x11
     b62:	4a 8b       	std	Y+18, r20	; 0x12
     b64:	5b 8b       	std	Y+19, r21	; 0x13
     b66:	6c 8b       	std	Y+20, r22	; 0x14
     b68:	7d 8b       	std	Y+21, r23	; 0x15
     b6a:	8e 8b       	std	Y+22, r24	; 0x16
     b6c:	9f 8b       	std	Y+23, r25	; 0x17
     b6e:	a9 a0       	ldd	r10, Y+33	; 0x21
     b70:	b8 a0       	ldd	r11, Y+32	; 0x20
     b72:	ca 84       	ldd	r12, Y+10	; 0x0a
     b74:	db 84       	ldd	r13, Y+11	; 0x0b
     b76:	ec 84       	ldd	r14, Y+12	; 0x0c
     b78:	fd 84       	ldd	r15, Y+13	; 0x0d
     b7a:	0e 85       	ldd	r16, Y+14	; 0x0e
     b7c:	1f 85       	ldd	r17, Y+15	; 0x0f
     b7e:	24 2d       	mov	r18, r4
     b80:	35 2d       	mov	r19, r5
     b82:	46 2d       	mov	r20, r6
     b84:	52 2d       	mov	r21, r2
     b86:	60 e0       	ldi	r22, 0x00	; 0
     b88:	70 e0       	ldi	r23, 0x00	; 0
     b8a:	80 e0       	ldi	r24, 0x00	; 0
     b8c:	90 e0       	ldi	r25, 0x00	; 0
     b8e:	0e 94 9e 3f 	call	0x7f3c	; 0x7f3c <__muldi3>
     b92:	00 e2       	ldi	r16, 0x20	; 32
     b94:	0e 94 22 40 	call	0x8044	; 0x8044 <__lshrdi3>
     b98:	29 83       	std	Y+1, r18	; 0x01
     b9a:	3a 83       	std	Y+2, r19	; 0x02
     b9c:	4b 83       	std	Y+3, r20	; 0x03
     b9e:	5c 83       	std	Y+4, r21	; 0x04
     ba0:	6d 83       	std	Y+5, r22	; 0x05
     ba2:	77 2e       	mov	r7, r23
     ba4:	88 2e       	mov	r8, r24
     ba6:	99 2e       	mov	r9, r25
     ba8:	a8 88       	ldd	r10, Y+16	; 0x10
     baa:	b9 88       	ldd	r11, Y+17	; 0x11
     bac:	ca 88       	ldd	r12, Y+18	; 0x12
     bae:	db 88       	ldd	r13, Y+19	; 0x13
     bb0:	ec 88       	ldd	r14, Y+20	; 0x14
     bb2:	fd 88       	ldd	r15, Y+21	; 0x15
     bb4:	0e 89       	ldd	r16, Y+22	; 0x16
     bb6:	1f 89       	ldd	r17, Y+23	; 0x17
     bb8:	2e 81       	ldd	r18, Y+6	; 0x06
     bba:	3f 81       	ldd	r19, Y+7	; 0x07
     bbc:	48 85       	ldd	r20, Y+8	; 0x08
     bbe:	59 85       	ldd	r21, Y+9	; 0x09
     bc0:	60 e0       	ldi	r22, 0x00	; 0
     bc2:	70 e0       	ldi	r23, 0x00	; 0
     bc4:	80 e0       	ldi	r24, 0x00	; 0
     bc6:	90 e0       	ldi	r25, 0x00	; 0
     bc8:	0e 94 9e 3f 	call	0x7f3c	; 0x7f3c <__muldi3>
     bcc:	00 e2       	ldi	r16, 0x20	; 32
     bce:	0e 94 22 40 	call	0x8044	; 0x8044 <__lshrdi3>
     bd2:	a2 2e       	mov	r10, r18
     bd4:	b3 2e       	mov	r11, r19
     bd6:	c4 2e       	mov	r12, r20
     bd8:	d5 2e       	mov	r13, r21
     bda:	e6 2e       	mov	r14, r22
     bdc:	f7 2e       	mov	r15, r23
     bde:	08 2f       	mov	r16, r24
     be0:	19 2f       	mov	r17, r25
     be2:	29 81       	ldd	r18, Y+1	; 0x01
     be4:	3a 81       	ldd	r19, Y+2	; 0x02
     be6:	4b 81       	ldd	r20, Y+3	; 0x03
     be8:	5c 81       	ldd	r21, Y+4	; 0x04
     bea:	6d 81       	ldd	r22, Y+5	; 0x05
     bec:	77 2d       	mov	r23, r7
     bee:	88 2d       	mov	r24, r8
     bf0:	99 2d       	mov	r25, r9
     bf2:	0e 94 3e 40 	call	0x807c	; 0x807c <__adddi3>
     bf6:	29 83       	std	Y+1, r18	; 0x01
     bf8:	3a 83       	std	Y+2, r19	; 0x02
     bfa:	4b 83       	std	Y+3, r20	; 0x03
     bfc:	5c 83       	std	Y+4, r21	; 0x04
     bfe:	6d 83       	std	Y+5, r22	; 0x05
     c00:	77 2e       	mov	r7, r23
     c02:	88 2e       	mov	r8, r24
     c04:	99 2e       	mov	r9, r25
     c06:	a8 88       	ldd	r10, Y+16	; 0x10
     c08:	b9 88       	ldd	r11, Y+17	; 0x11
     c0a:	ca 88       	ldd	r12, Y+18	; 0x12
     c0c:	db 88       	ldd	r13, Y+19	; 0x13
     c0e:	ec 88       	ldd	r14, Y+20	; 0x14
     c10:	fd 88       	ldd	r15, Y+21	; 0x15
     c12:	0e 89       	ldd	r16, Y+22	; 0x16
     c14:	1f 89       	ldd	r17, Y+23	; 0x17
     c16:	29 a1       	ldd	r18, Y+33	; 0x21
     c18:	38 a1       	ldd	r19, Y+32	; 0x20
     c1a:	4a 85       	ldd	r20, Y+10	; 0x0a
     c1c:	5b 85       	ldd	r21, Y+11	; 0x0b
     c1e:	6c 85       	ldd	r22, Y+12	; 0x0c
     c20:	7d 85       	ldd	r23, Y+13	; 0x0d
     c22:	8e 85       	ldd	r24, Y+14	; 0x0e
     c24:	9f 85       	ldd	r25, Y+15	; 0x0f
     c26:	0e 94 9e 3f 	call	0x7f3c	; 0x7f3c <__muldi3>
     c2a:	a2 2e       	mov	r10, r18
     c2c:	b3 2e       	mov	r11, r19
     c2e:	c4 2e       	mov	r12, r20
     c30:	d5 2e       	mov	r13, r21
     c32:	e6 2e       	mov	r14, r22
     c34:	f7 2e       	mov	r15, r23
     c36:	08 2f       	mov	r16, r24
     c38:	19 2f       	mov	r17, r25
     c3a:	29 81       	ldd	r18, Y+1	; 0x01
     c3c:	3a 81       	ldd	r19, Y+2	; 0x02
     c3e:	4b 81       	ldd	r20, Y+3	; 0x03
     c40:	5c 81       	ldd	r21, Y+4	; 0x04
     c42:	6d 81       	ldd	r22, Y+5	; 0x05
     c44:	77 2d       	mov	r23, r7
     c46:	88 2d       	mov	r24, r8
     c48:	99 2d       	mov	r25, r9
     c4a:	0e 94 3e 40 	call	0x807c	; 0x807c <__adddi3>
     c4e:	92 2e       	mov	r9, r18
     c50:	3a 83       	std	Y+2, r19	; 0x02
     c52:	49 83       	std	Y+1, r20	; 0x01
     c54:	b5 2f       	mov	r27, r21
     c56:	f6 2f       	mov	r31, r22
     c58:	e7 2f       	mov	r30, r23
     c5a:	78 2e       	mov	r7, r24
     c5c:	89 2e       	mov	r8, r25
     c5e:	30 fe       	sbrs	r3, 0
     c60:	26 c0       	rjmp	.+76     	; 0xcae <approx_high_uint64_word_of_uint64_mult_uint64+0x210>
     c62:	2e 81       	ldd	r18, Y+6	; 0x06
     c64:	3f 81       	ldd	r19, Y+7	; 0x07
     c66:	48 85       	ldd	r20, Y+8	; 0x08
     c68:	59 85       	ldd	r21, Y+9	; 0x09
     c6a:	6c 8d       	ldd	r22, Y+28	; 0x1c
     c6c:	7d 8d       	ldd	r23, Y+29	; 0x1d
     c6e:	8e 8d       	ldd	r24, Y+30	; 0x1e
     c70:	9f 8d       	ldd	r25, Y+31	; 0x1f
     c72:	a0 e0       	ldi	r26, 0x00	; 0
     c74:	0e 94 65 40 	call	0x80ca	; 0x80ca <__cmpdi2_s8>
     c78:	d4 f4       	brge	.+52     	; 0xcae <approx_high_uint64_word_of_uint64_mult_uint64+0x210>
     c7a:	29 2d       	mov	r18, r9
     c7c:	3a 81       	ldd	r19, Y+2	; 0x02
     c7e:	49 81       	ldd	r20, Y+1	; 0x01
     c80:	5b 2f       	mov	r21, r27
     c82:	6f 2f       	mov	r22, r31
     c84:	7e 2f       	mov	r23, r30
     c86:	87 2d       	mov	r24, r7
     c88:	98 2d       	mov	r25, r8
     c8a:	a4 2c       	mov	r10, r4
     c8c:	b5 2c       	mov	r11, r5
     c8e:	c6 2c       	mov	r12, r6
     c90:	d2 2c       	mov	r13, r2
     c92:	e8 8c       	ldd	r14, Y+24	; 0x18
     c94:	f9 8c       	ldd	r15, Y+25	; 0x19
     c96:	0a 8d       	ldd	r16, Y+26	; 0x1a
     c98:	1b 8d       	ldd	r17, Y+27	; 0x1b
     c9a:	0e 94 53 40 	call	0x80a6	; 0x80a6 <__subdi3>
     c9e:	92 2e       	mov	r9, r18
     ca0:	3a 83       	std	Y+2, r19	; 0x02
     ca2:	49 83       	std	Y+1, r20	; 0x01
     ca4:	b5 2f       	mov	r27, r21
     ca6:	f6 2f       	mov	r31, r22
     ca8:	e7 2f       	mov	r30, r23
     caa:	78 2e       	mov	r7, r24
     cac:	89 2e       	mov	r8, r25
     cae:	31 fe       	sbrs	r3, 1
     cb0:	26 c0       	rjmp	.+76     	; 0xcfe <approx_high_uint64_word_of_uint64_mult_uint64+0x260>
     cb2:	24 2d       	mov	r18, r4
     cb4:	35 2d       	mov	r19, r5
     cb6:	46 2d       	mov	r20, r6
     cb8:	52 2d       	mov	r21, r2
     cba:	68 8d       	ldd	r22, Y+24	; 0x18
     cbc:	79 8d       	ldd	r23, Y+25	; 0x19
     cbe:	8a 8d       	ldd	r24, Y+26	; 0x1a
     cc0:	9b 8d       	ldd	r25, Y+27	; 0x1b
     cc2:	a0 e0       	ldi	r26, 0x00	; 0
     cc4:	0e 94 65 40 	call	0x80ca	; 0x80ca <__cmpdi2_s8>
     cc8:	d4 f4       	brge	.+52     	; 0xcfe <approx_high_uint64_word_of_uint64_mult_uint64+0x260>
     cca:	29 2d       	mov	r18, r9
     ccc:	3a 81       	ldd	r19, Y+2	; 0x02
     cce:	49 81       	ldd	r20, Y+1	; 0x01
     cd0:	5b 2f       	mov	r21, r27
     cd2:	6f 2f       	mov	r22, r31
     cd4:	7e 2f       	mov	r23, r30
     cd6:	87 2d       	mov	r24, r7
     cd8:	98 2d       	mov	r25, r8
     cda:	ae 80       	ldd	r10, Y+6	; 0x06
     cdc:	bf 80       	ldd	r11, Y+7	; 0x07
     cde:	c8 84       	ldd	r12, Y+8	; 0x08
     ce0:	d9 84       	ldd	r13, Y+9	; 0x09
     ce2:	ec 8c       	ldd	r14, Y+28	; 0x1c
     ce4:	fd 8c       	ldd	r15, Y+29	; 0x1d
     ce6:	0e 8d       	ldd	r16, Y+30	; 0x1e
     ce8:	1f 8d       	ldd	r17, Y+31	; 0x1f
     cea:	0e 94 53 40 	call	0x80a6	; 0x80a6 <__subdi3>
     cee:	92 2e       	mov	r9, r18
     cf0:	3a 83       	std	Y+2, r19	; 0x02
     cf2:	49 83       	std	Y+1, r20	; 0x01
     cf4:	b5 2f       	mov	r27, r21
     cf6:	f6 2f       	mov	r31, r22
     cf8:	e7 2f       	mov	r30, r23
     cfa:	78 2e       	mov	r7, r24
     cfc:	89 2e       	mov	r8, r25
     cfe:	29 2d       	mov	r18, r9
     d00:	3a 81       	ldd	r19, Y+2	; 0x02
     d02:	49 81       	ldd	r20, Y+1	; 0x01
     d04:	5b 2f       	mov	r21, r27
     d06:	6f 2f       	mov	r22, r31
     d08:	7e 2f       	mov	r23, r30
     d0a:	87 2d       	mov	r24, r7
     d0c:	98 2d       	mov	r25, r8
     d0e:	a1 96       	adiw	r28, 0x21	; 33
     d10:	cd bf       	out	0x3d, r28	; 61
     d12:	de bf       	out	0x3e, r29	; 62
     d14:	df 91       	pop	r29
     d16:	cf 91       	pop	r28
     d18:	1f 91       	pop	r17
     d1a:	0f 91       	pop	r16
     d1c:	ff 90       	pop	r15
     d1e:	ef 90       	pop	r14
     d20:	df 90       	pop	r13
     d22:	cf 90       	pop	r12
     d24:	bf 90       	pop	r11
     d26:	af 90       	pop	r10
     d28:	9f 90       	pop	r9
     d2a:	8f 90       	pop	r8
     d2c:	7f 90       	pop	r7
     d2e:	6f 90       	pop	r6
     d30:	5f 90       	pop	r5
     d32:	4f 90       	pop	r4
     d34:	3f 90       	pop	r3
     d36:	2f 90       	pop	r2
     d38:	08 95       	ret

00000d3a <approx_inverse_of_fixpoint_uint64>:
     d3a:	2f 92       	push	r2
     d3c:	3f 92       	push	r3
     d3e:	4f 92       	push	r4
     d40:	5f 92       	push	r5
     d42:	6f 92       	push	r6
     d44:	7f 92       	push	r7
     d46:	8f 92       	push	r8
     d48:	9f 92       	push	r9
     d4a:	af 92       	push	r10
     d4c:	bf 92       	push	r11
     d4e:	cf 92       	push	r12
     d50:	df 92       	push	r13
     d52:	ef 92       	push	r14
     d54:	ff 92       	push	r15
     d56:	0f 93       	push	r16
     d58:	1f 93       	push	r17
     d5a:	cf 93       	push	r28
     d5c:	df 93       	push	r29
     d5e:	cd b7       	in	r28, 0x3d	; 61
     d60:	de b7       	in	r29, 0x3e	; 62
     d62:	e2 97       	sbiw	r28, 0x32	; 50
     d64:	cd bf       	out	0x3d, r28	; 61
     d66:	de bf       	out	0x3e, r29	; 62
     d68:	fc 01       	movw	r30, r24
     d6a:	80 80       	ld	r8, Z
     d6c:	89 8e       	std	Y+25, r8	; 0x19
     d6e:	91 80       	ldd	r9, Z+1	; 0x01
     d70:	9a 8e       	std	Y+26, r9	; 0x1a
     d72:	a2 80       	ldd	r10, Z+2	; 0x02
     d74:	ab 8e       	std	Y+27, r10	; 0x1b
     d76:	b3 80       	ldd	r11, Z+3	; 0x03
     d78:	bc 8e       	std	Y+28, r11	; 0x1c
     d7a:	c4 80       	ldd	r12, Z+4	; 0x04
     d7c:	cd 8e       	std	Y+29, r12	; 0x1d
     d7e:	d5 80       	ldd	r13, Z+5	; 0x05
     d80:	de 8e       	std	Y+30, r13	; 0x1e
     d82:	e6 80       	ldd	r14, Z+6	; 0x06
     d84:	ef 8e       	std	Y+31, r14	; 0x1f
     d86:	f7 80       	ldd	r15, Z+7	; 0x07
     d88:	f8 a2       	std	Y+32, r15	; 0x20
     d8a:	28 2d       	mov	r18, r8
     d8c:	39 2d       	mov	r19, r9
     d8e:	4a 2d       	mov	r20, r10
     d90:	5b 2d       	mov	r21, r11
     d92:	6c 2d       	mov	r22, r12
     d94:	7d 2d       	mov	r23, r13
     d96:	8e 2d       	mov	r24, r14
     d98:	9f 2d       	mov	r25, r15
     d9a:	00 e2       	ldi	r16, 0x20	; 32
     d9c:	0e 94 22 40 	call	0x8044	; 0x8044 <__lshrdi3>
     da0:	82 2f       	mov	r24, r18
     da2:	93 2f       	mov	r25, r19
     da4:	a4 2f       	mov	r26, r20
     da6:	b5 2f       	mov	r27, r21
     da8:	8d a7       	std	Y+45, r24	; 0x2d
     daa:	9e a7       	std	Y+46, r25	; 0x2e
     dac:	af a7       	std	Y+47, r26	; 0x2f
     dae:	b8 ab       	std	Y+48, r27	; 0x30
     db0:	09 8d       	ldd	r16, Y+25	; 0x19
     db2:	1a 8d       	ldd	r17, Y+26	; 0x1a
     db4:	2b 8d       	ldd	r18, Y+27	; 0x1b
     db6:	3c 8d       	ldd	r19, Y+28	; 0x1c
     db8:	33 23       	and	r19, r19
     dba:	7c f4       	brge	.+30     	; 0xdda <approx_inverse_of_fixpoint_uint64+0xa0>
     dbc:	9c 01       	movw	r18, r24
     dbe:	ad 01       	movw	r20, r26
     dc0:	2f 5f       	subi	r18, 0xFF	; 255
     dc2:	3f 4f       	sbci	r19, 0xFF	; 255
     dc4:	4f 4f       	sbci	r20, 0xFF	; 255
     dc6:	5f 4f       	sbci	r21, 0xFF	; 255
     dc8:	2d a7       	std	Y+45, r18	; 0x2d
     dca:	3e a7       	std	Y+46, r19	; 0x2e
     dcc:	4f a7       	std	Y+47, r20	; 0x2f
     dce:	58 ab       	std	Y+48, r21	; 0x30
     dd0:	23 2b       	or	r18, r19
     dd2:	24 2b       	or	r18, r20
     dd4:	25 2b       	or	r18, r21
     dd6:	09 f4       	brne	.+2      	; 0xdda <approx_inverse_of_fixpoint_uint64+0xa0>
     dd8:	c1 c1       	rjmp	.+898    	; 0x115c <approx_inverse_of_fixpoint_uint64+0x422>
     dda:	8d a4       	ldd	r8, Y+45	; 0x2d
     ddc:	9e a4       	ldd	r9, Y+46	; 0x2e
     dde:	af a4       	ldd	r10, Y+47	; 0x2f
     de0:	b8 a8       	ldd	r11, Y+48	; 0x30
     de2:	95 01       	movw	r18, r10
     de4:	44 27       	eor	r20, r20
     de6:	55 27       	eor	r21, r21
     de8:	c9 01       	movw	r24, r18
     dea:	9f 77       	andi	r25, 0x7F	; 127
     dec:	89 2b       	or	r24, r25
     dee:	29 f5       	brne	.+74     	; 0xe3a <approx_inverse_of_fixpoint_uint64+0x100>
     df0:	24 01       	movw	r4, r8
     df2:	35 01       	movw	r6, r10
     df4:	66 24       	eor	r6, r6
     df6:	77 24       	eor	r7, r7
     df8:	41 14       	cp	r4, r1
     dfa:	51 04       	cpc	r5, r1
     dfc:	61 04       	cpc	r6, r1
     dfe:	71 04       	cpc	r7, r1
     e00:	59 f4       	brne	.+22     	; 0xe18 <approx_inverse_of_fixpoint_uint64+0xde>
     e02:	29 8d       	ldd	r18, Y+25	; 0x19
     e04:	3a 8d       	ldd	r19, Y+26	; 0x1a
     e06:	4b 8d       	ldd	r20, Y+27	; 0x1b
     e08:	5c 8d       	ldd	r21, Y+28	; 0x1c
     e0a:	6d 8d       	ldd	r22, Y+29	; 0x1d
     e0c:	7e 8d       	ldd	r23, Y+30	; 0x1e
     e0e:	8f 8d       	ldd	r24, Y+31	; 0x1f
     e10:	98 a1       	ldd	r25, Y+32	; 0x20
     e12:	0e 94 f7 3f 	call	0x7fee	; 0x7fee <__negdi2>
     e16:	ae c1       	rjmp	.+860    	; 0x1174 <approx_inverse_of_fixpoint_uint64+0x43a>
     e18:	44 0c       	add	r4, r4
     e1a:	55 1c       	adc	r5, r5
     e1c:	66 1c       	adc	r6, r6
     e1e:	77 1c       	adc	r7, r7
     e20:	44 0c       	add	r4, r4
     e22:	55 1c       	adc	r5, r5
     e24:	66 1c       	adc	r6, r6
     e26:	77 1c       	adc	r7, r7
     e28:	70 94       	com	r7
     e2a:	60 94       	com	r6
     e2c:	50 94       	com	r5
     e2e:	40 94       	com	r4
     e30:	41 1c       	adc	r4, r1
     e32:	51 1c       	adc	r5, r1
     e34:	61 1c       	adc	r6, r1
     e36:	71 1c       	adc	r7, r1
     e38:	8d c0       	rjmp	.+282    	; 0xf54 <approx_inverse_of_fixpoint_uint64+0x21a>
     e3a:	2f 3f       	cpi	r18, 0xFF	; 255
     e3c:	0f ef       	ldi	r16, 0xFF	; 255
     e3e:	30 07       	cpc	r19, r16
     e40:	69 f4       	brne	.+26     	; 0xe5c <approx_inverse_of_fixpoint_uint64+0x122>
     e42:	4d a4       	ldd	r4, Y+45	; 0x2d
     e44:	5e a4       	ldd	r5, Y+46	; 0x2e
     e46:	6f a4       	ldd	r6, Y+47	; 0x2f
     e48:	78 a8       	ldd	r7, Y+48	; 0x30
     e4a:	70 94       	com	r7
     e4c:	60 94       	com	r6
     e4e:	50 94       	com	r5
     e50:	40 94       	com	r4
     e52:	41 1c       	adc	r4, r1
     e54:	51 1c       	adc	r5, r1
     e56:	61 1c       	adc	r6, r1
     e58:	71 1c       	adc	r7, r1
     e5a:	7c c0       	rjmp	.+248    	; 0xf54 <approx_inverse_of_fixpoint_uint64+0x21a>
     e5c:	b9 01       	movw	r22, r18
     e5e:	76 95       	lsr	r23
     e60:	67 95       	ror	r22
     e62:	cb 01       	movw	r24, r22
     e64:	a0 e0       	ldi	r26, 0x00	; 0
     e66:	b0 e0       	ldi	r27, 0x00	; 0
     e68:	bc 01       	movw	r22, r24
     e6a:	cd 01       	movw	r24, r26
     e6c:	60 95       	com	r22
     e6e:	70 95       	com	r23
     e70:	80 95       	com	r24
     e72:	90 95       	com	r25
     e74:	0e 94 74 3f 	call	0x7ee8	; 0x7ee8 <__udivmodsi4>
     e78:	2f 5f       	subi	r18, 0xFF	; 255
     e7a:	3f 4f       	sbci	r19, 0xFF	; 255
     e7c:	69 01       	movw	r12, r18
     e7e:	e1 2c       	mov	r14, r1
     e80:	f1 2c       	mov	r15, r1
     e82:	b7 01       	movw	r22, r14
     e84:	a6 01       	movw	r20, r12
     e86:	03 2e       	mov	r0, r19
     e88:	31 e1       	ldi	r19, 0x11	; 17
     e8a:	44 0f       	add	r20, r20
     e8c:	55 1f       	adc	r21, r21
     e8e:	66 1f       	adc	r22, r22
     e90:	77 1f       	adc	r23, r23
     e92:	3a 95       	dec	r19
     e94:	d1 f7       	brne	.-12     	; 0xe8a <approx_inverse_of_fixpoint_uint64+0x150>
     e96:	30 2d       	mov	r19, r0
     e98:	8d a5       	ldd	r24, Y+45	; 0x2d
     e9a:	9e a5       	ldd	r25, Y+46	; 0x2e
     e9c:	af a5       	ldd	r26, Y+47	; 0x2f
     e9e:	b8 a9       	ldd	r27, Y+48	; 0x30
     ea0:	80 95       	com	r24
     ea2:	90 95       	com	r25
     ea4:	a0 95       	com	r26
     ea6:	b0 95       	com	r27
     ea8:	4a 01       	movw	r8, r20
     eaa:	5b 01       	movw	r10, r22
     eac:	88 0e       	add	r8, r24
     eae:	99 1e       	adc	r9, r25
     eb0:	aa 1e       	adc	r10, r26
     eb2:	bb 1e       	adc	r11, r27
     eb4:	89 a6       	std	Y+41, r8	; 0x29
     eb6:	9a a6       	std	Y+42, r9	; 0x2a
     eb8:	ab a6       	std	Y+43, r10	; 0x2b
     eba:	bc a6       	std	Y+44, r11	; 0x2c
     ebc:	d7 01       	movw	r26, r14
     ebe:	c6 01       	movw	r24, r12
     ec0:	12 96       	adiw	r26, 0x02	; 2
     ec2:	1c 01       	movw	r2, r24
     ec4:	2d 01       	movw	r4, r26
     ec6:	a9 01       	movw	r20, r18
     ec8:	60 e0       	ldi	r22, 0x00	; 0
     eca:	70 e0       	ldi	r23, 0x00	; 0
     ecc:	80 e0       	ldi	r24, 0x00	; 0
     ece:	90 e0       	ldi	r25, 0x00	; 0
     ed0:	dc 01       	movw	r26, r24
     ed2:	29 a3       	std	Y+33, r18	; 0x21
     ed4:	5a a3       	std	Y+34, r21	; 0x22
     ed6:	6b a3       	std	Y+35, r22	; 0x23
     ed8:	7c a3       	std	Y+36, r23	; 0x24
     eda:	8d a3       	std	Y+37, r24	; 0x25
     edc:	9e a3       	std	Y+38, r25	; 0x26
     ede:	af a3       	std	Y+39, r26	; 0x27
     ee0:	b8 a7       	std	Y+40, r27	; 0x28
     ee2:	8d a5       	ldd	r24, Y+45	; 0x2d
     ee4:	9e a5       	ldd	r25, Y+46	; 0x2e
     ee6:	af a5       	ldd	r26, Y+47	; 0x2f
     ee8:	b8 a9       	ldd	r27, Y+48	; 0x30
     eea:	8c 01       	movw	r16, r24
     eec:	9d 01       	movw	r18, r26
     eee:	a8 2e       	mov	r10, r24
     ef0:	b1 2e       	mov	r11, r17
     ef2:	c2 2e       	mov	r12, r18
     ef4:	d3 2e       	mov	r13, r19
     ef6:	e1 2c       	mov	r14, r1
     ef8:	f1 2c       	mov	r15, r1
     efa:	00 e0       	ldi	r16, 0x00	; 0
     efc:	10 e0       	ldi	r17, 0x00	; 0
     efe:	29 a1       	ldd	r18, Y+33	; 0x21
     f00:	3a a1       	ldd	r19, Y+34	; 0x22
     f02:	40 e0       	ldi	r20, 0x00	; 0
     f04:	50 e0       	ldi	r21, 0x00	; 0
     f06:	60 e0       	ldi	r22, 0x00	; 0
     f08:	70 e0       	ldi	r23, 0x00	; 0
     f0a:	80 e0       	ldi	r24, 0x00	; 0
     f0c:	90 e0       	ldi	r25, 0x00	; 0
     f0e:	0e 94 9e 3f 	call	0x7f3c	; 0x7f3c <__muldi3>
     f12:	a2 2e       	mov	r10, r18
     f14:	b3 2e       	mov	r11, r19
     f16:	c4 2e       	mov	r12, r20
     f18:	d5 2e       	mov	r13, r21
     f1a:	e6 2e       	mov	r14, r22
     f1c:	f7 2e       	mov	r15, r23
     f1e:	08 2f       	mov	r16, r24
     f20:	19 2f       	mov	r17, r25
     f22:	22 2d       	mov	r18, r2
     f24:	33 2d       	mov	r19, r3
     f26:	44 2d       	mov	r20, r4
     f28:	55 2d       	mov	r21, r5
     f2a:	60 e0       	ldi	r22, 0x00	; 0
     f2c:	70 e0       	ldi	r23, 0x00	; 0
     f2e:	80 e0       	ldi	r24, 0x00	; 0
     f30:	90 e0       	ldi	r25, 0x00	; 0
     f32:	0e 94 9e 3f 	call	0x7f3c	; 0x7f3c <__muldi3>
     f36:	00 e2       	ldi	r16, 0x20	; 32
     f38:	0e 94 22 40 	call	0x8044	; 0x8044 <__lshrdi3>
     f3c:	82 2e       	mov	r8, r18
     f3e:	93 2e       	mov	r9, r19
     f40:	a4 2e       	mov	r10, r20
     f42:	b5 2e       	mov	r11, r21
     f44:	49 a4       	ldd	r4, Y+41	; 0x29
     f46:	5a a4       	ldd	r5, Y+42	; 0x2a
     f48:	6b a4       	ldd	r6, Y+43	; 0x2b
     f4a:	7c a4       	ldd	r7, Y+44	; 0x2c
     f4c:	48 18       	sub	r4, r8
     f4e:	59 08       	sbc	r5, r9
     f50:	6a 08       	sbc	r6, r10
     f52:	7b 08       	sbc	r7, r11
     f54:	8d a4       	ldd	r8, Y+45	; 0x2d
     f56:	9e a4       	ldd	r9, Y+46	; 0x2e
     f58:	af a4       	ldd	r10, Y+47	; 0x2f
     f5a:	b8 a8       	ldd	r11, Y+48	; 0x30
     f5c:	95 01       	movw	r18, r10
     f5e:	84 01       	movw	r16, r8
     f60:	a8 2c       	mov	r10, r8
     f62:	b1 2e       	mov	r11, r17
     f64:	c2 2e       	mov	r12, r18
     f66:	d3 2e       	mov	r13, r19
     f68:	e1 2c       	mov	r14, r1
     f6a:	f1 2c       	mov	r15, r1
     f6c:	00 e0       	ldi	r16, 0x00	; 0
     f6e:	10 e0       	ldi	r17, 0x00	; 0
     f70:	a3 01       	movw	r20, r6
     f72:	92 01       	movw	r18, r4
     f74:	60 e0       	ldi	r22, 0x00	; 0
     f76:	70 e0       	ldi	r23, 0x00	; 0
     f78:	cb 01       	movw	r24, r22
     f7a:	49 a2       	std	Y+33, r4	; 0x21
     f7c:	3a a3       	std	Y+34, r19	; 0x22
     f7e:	4b a3       	std	Y+35, r20	; 0x23
     f80:	5c a3       	std	Y+36, r21	; 0x24
     f82:	6d a3       	std	Y+37, r22	; 0x25
     f84:	7e a3       	std	Y+38, r23	; 0x26
     f86:	8f a3       	std	Y+39, r24	; 0x27
     f88:	98 a7       	std	Y+40, r25	; 0x28
     f8a:	61 e0       	ldi	r22, 0x01	; 1
     f8c:	70 e0       	ldi	r23, 0x00	; 0
     f8e:	80 e0       	ldi	r24, 0x00	; 0
     f90:	90 e0       	ldi	r25, 0x00	; 0
     f92:	0e 94 9e 3f 	call	0x7f3c	; 0x7f3c <__muldi3>
     f96:	8d a4       	ldd	r8, Y+45	; 0x2d
     f98:	9e a4       	ldd	r9, Y+46	; 0x2e
     f9a:	af a4       	ldd	r10, Y+47	; 0x2f
     f9c:	b8 a8       	ldd	r11, Y+48	; 0x30
     f9e:	b6 94       	lsr	r11
     fa0:	a7 94       	ror	r10
     fa2:	97 94       	ror	r9
     fa4:	87 94       	ror	r8
     fa6:	65 01       	movw	r12, r10
     fa8:	54 01       	movw	r10, r8
     faa:	45 01       	movw	r8, r10
     fac:	56 01       	movw	r10, r12
     fae:	ab a2       	std	Y+35, r10	; 0x23
     fb0:	bc a2       	std	Y+36, r11	; 0x24
     fb2:	a8 2c       	mov	r10, r8
     fb4:	b9 2c       	mov	r11, r9
     fb6:	cb a0       	ldd	r12, Y+35	; 0x23
     fb8:	dc a0       	ldd	r13, Y+36	; 0x24
     fba:	e1 2c       	mov	r14, r1
     fbc:	f1 2c       	mov	r15, r1
     fbe:	0e 94 3e 40 	call	0x807c	; 0x807c <__adddi3>
     fc2:	29 87       	std	Y+9, r18	; 0x09
     fc4:	3a 87       	std	Y+10, r19	; 0x0a
     fc6:	4b 87       	std	Y+11, r20	; 0x0b
     fc8:	5c 87       	std	Y+12, r21	; 0x0c
     fca:	6d 87       	std	Y+13, r22	; 0x0d
     fcc:	7e 87       	std	Y+14, r23	; 0x0e
     fce:	8f 87       	std	Y+15, r24	; 0x0f
     fd0:	98 8b       	std	Y+16, r25	; 0x10
     fd2:	c2 2e       	mov	r12, r18
     fd4:	d3 2e       	mov	r13, r19
     fd6:	e4 2e       	mov	r14, r20
     fd8:	f5 2e       	mov	r15, r21
     fda:	00 e2       	ldi	r16, 0x20	; 32
     fdc:	0e 94 22 40 	call	0x8044	; 0x8044 <__lshrdi3>
     fe0:	22 23       	and	r18, r18
     fe2:	c9 f0       	breq	.+50     	; 0x1016 <approx_inverse_of_fixpoint_uint64+0x2dc>
     fe4:	4d a5       	ldd	r20, Y+45	; 0x2d
     fe6:	5e a5       	ldd	r21, Y+46	; 0x2e
     fe8:	6f a5       	ldd	r22, Y+47	; 0x2f
     fea:	78 a9       	ldd	r23, Y+48	; 0x30
     fec:	db 01       	movw	r26, r22
     fee:	ca 01       	movw	r24, r20
     ff0:	8c 0d       	add	r24, r12
     ff2:	9d 1d       	adc	r25, r13
     ff4:	ae 1d       	adc	r26, r14
     ff6:	bf 1d       	adc	r27, r15
     ff8:	8c 15       	cp	r24, r12
     ffa:	9d 05       	cpc	r25, r13
     ffc:	ae 05       	cpc	r26, r14
     ffe:	bf 05       	cpc	r27, r15
    1000:	08 f4       	brcc	.+2      	; 0x1004 <approx_inverse_of_fixpoint_uint64+0x2ca>
    1002:	2f 5f       	subi	r18, 0xFF	; 255
    1004:	0f ef       	ldi	r16, 0xFF	; 255
    1006:	40 1a       	sub	r4, r16
    1008:	50 0a       	sbc	r5, r16
    100a:	60 0a       	sbc	r6, r16
    100c:	70 0a       	sbc	r7, r16
    100e:	6c 01       	movw	r12, r24
    1010:	7d 01       	movw	r14, r26
    1012:	21 11       	cpse	r18, r1
    1014:	eb cf       	rjmp	.-42     	; 0xfec <approx_inverse_of_fixpoint_uint64+0x2b2>
    1016:	53 01       	movw	r10, r6
    1018:	42 01       	movw	r8, r4
    101a:	24 2d       	mov	r18, r4
    101c:	39 2d       	mov	r19, r9
    101e:	4a 2d       	mov	r20, r10
    1020:	5b 2d       	mov	r21, r11
    1022:	60 e0       	ldi	r22, 0x00	; 0
    1024:	70 e0       	ldi	r23, 0x00	; 0
    1026:	80 e0       	ldi	r24, 0x00	; 0
    1028:	90 e0       	ldi	r25, 0x00	; 0
    102a:	0f e1       	ldi	r16, 0x1F	; 31
    102c:	0e 94 07 40 	call	0x800e	; 0x800e <__ashldi3>
    1030:	22 2e       	mov	r2, r18
    1032:	33 2e       	mov	r3, r19
    1034:	44 2e       	mov	r4, r20
    1036:	55 2e       	mov	r5, r21
    1038:	66 2e       	mov	r6, r22
    103a:	f7 2e       	mov	r15, r23
    103c:	18 2f       	mov	r17, r24
    103e:	72 2e       	mov	r7, r18
    1040:	83 2e       	mov	r8, r19
    1042:	49 a3       	std	Y+33, r20	; 0x21
    1044:	59 a7       	std	Y+41, r21	; 0x29
    1046:	6d a7       	std	Y+45, r22	; 0x2d
    1048:	79 ab       	std	Y+49, r23	; 0x31
    104a:	8a ab       	std	Y+50, r24	; 0x32
    104c:	90 68       	ori	r25, 0x80	; 128
    104e:	99 2e       	mov	r9, r25
    1050:	29 82       	std	Y+1, r2	; 0x01
    1052:	3a 82       	std	Y+2, r3	; 0x02
    1054:	4b 82       	std	Y+3, r4	; 0x03
    1056:	5c 82       	std	Y+4, r5	; 0x04
    1058:	6d 82       	std	Y+5, r6	; 0x05
    105a:	fe 82       	std	Y+6, r15	; 0x06
    105c:	1f 83       	std	Y+7, r17	; 0x07
    105e:	98 87       	std	Y+8, r25	; 0x08
    1060:	29 8d       	ldd	r18, Y+25	; 0x19
    1062:	3a 8d       	ldd	r19, Y+26	; 0x1a
    1064:	4b 8d       	ldd	r20, Y+27	; 0x1b
    1066:	5c 8d       	ldd	r21, Y+28	; 0x1c
    1068:	6d 8d       	ldd	r22, Y+29	; 0x1d
    106a:	7e 8d       	ldd	r23, Y+30	; 0x1e
    106c:	8f 8d       	ldd	r24, Y+31	; 0x1f
    106e:	98 a1       	ldd	r25, Y+32	; 0x20
    1070:	01 e0       	ldi	r16, 0x01	; 1
    1072:	0e 94 07 40 	call	0x800e	; 0x800e <__ashldi3>
    1076:	29 8b       	std	Y+17, r18	; 0x11
    1078:	3a 8b       	std	Y+18, r19	; 0x12
    107a:	4b 8b       	std	Y+19, r20	; 0x13
    107c:	5c 8b       	std	Y+20, r21	; 0x14
    107e:	6d 8b       	std	Y+21, r22	; 0x15
    1080:	7e 8b       	std	Y+22, r23	; 0x16
    1082:	8f 8b       	std	Y+23, r24	; 0x17
    1084:	98 8f       	std	Y+24, r25	; 0x18
    1086:	40 e0       	ldi	r20, 0x00	; 0
    1088:	be 01       	movw	r22, r28
    108a:	6f 5e       	subi	r22, 0xEF	; 239
    108c:	7f 4f       	sbci	r23, 0xFF	; 255
    108e:	ce 01       	movw	r24, r28
    1090:	01 96       	adiw	r24, 0x01	; 1
    1092:	0e 94 4f 05 	call	0xa9e	; 0xa9e <approx_high_uint64_word_of_uint64_mult_uint64>
    1096:	a2 2e       	mov	r10, r18
    1098:	b3 2e       	mov	r11, r19
    109a:	c4 2e       	mov	r12, r20
    109c:	d5 2e       	mov	r13, r21
    109e:	e6 2e       	mov	r14, r22
    10a0:	e7 2f       	mov	r30, r23
    10a2:	08 2f       	mov	r16, r24
    10a4:	f9 2f       	mov	r31, r25
    10a6:	22 2d       	mov	r18, r2
    10a8:	33 2d       	mov	r19, r3
    10aa:	44 2d       	mov	r20, r4
    10ac:	55 2d       	mov	r21, r5
    10ae:	66 2d       	mov	r22, r6
    10b0:	7f 2d       	mov	r23, r15
    10b2:	81 2f       	mov	r24, r17
    10b4:	99 2d       	mov	r25, r9
    10b6:	fe 2e       	mov	r15, r30
    10b8:	1f 2f       	mov	r17, r31
    10ba:	0e 94 3e 40 	call	0x807c	; 0x807c <__adddi3>
    10be:	0e 94 f7 3f 	call	0x7fee	; 0x7fee <__negdi2>
    10c2:	a2 2e       	mov	r10, r18
    10c4:	b3 2e       	mov	r11, r19
    10c6:	c4 2e       	mov	r12, r20
    10c8:	d5 2e       	mov	r13, r21
    10ca:	e6 2e       	mov	r14, r22
    10cc:	f7 2e       	mov	r15, r23
    10ce:	08 2f       	mov	r16, r24
    10d0:	19 2f       	mov	r17, r25
    10d2:	29 87       	std	Y+9, r18	; 0x09
    10d4:	3a 87       	std	Y+10, r19	; 0x0a
    10d6:	4b 87       	std	Y+11, r20	; 0x0b
    10d8:	5c 87       	std	Y+12, r21	; 0x0c
    10da:	6d 87       	std	Y+13, r22	; 0x0d
    10dc:	7e 87       	std	Y+14, r23	; 0x0e
    10de:	8f 87       	std	Y+15, r24	; 0x0f
    10e0:	98 8b       	std	Y+16, r25	; 0x10
    10e2:	40 e0       	ldi	r20, 0x00	; 0
    10e4:	be 01       	movw	r22, r28
    10e6:	67 5f       	subi	r22, 0xF7	; 247
    10e8:	7f 4f       	sbci	r23, 0xFF	; 255
    10ea:	ce 01       	movw	r24, r28
    10ec:	01 96       	adiw	r24, 0x01	; 1
    10ee:	0e 94 4f 05 	call	0xa9e	; 0xa9e <approx_high_uint64_word_of_uint64_mult_uint64>
    10f2:	22 2e       	mov	r2, r18
    10f4:	33 2e       	mov	r3, r19
    10f6:	44 2e       	mov	r4, r20
    10f8:	55 2e       	mov	r5, r21
    10fa:	66 2e       	mov	r6, r22
    10fc:	b7 2f       	mov	r27, r23
    10fe:	f8 2f       	mov	r31, r24
    1100:	e9 2f       	mov	r30, r25
    1102:	2a 2d       	mov	r18, r10
    1104:	3b 2d       	mov	r19, r11
    1106:	4c 2d       	mov	r20, r12
    1108:	5d 2d       	mov	r21, r13
    110a:	6e 2d       	mov	r22, r14
    110c:	7f 2d       	mov	r23, r15
    110e:	80 2f       	mov	r24, r16
    1110:	91 2f       	mov	r25, r17
    1112:	a0 e0       	ldi	r26, 0x00	; 0
    1114:	0e 94 65 40 	call	0x80ca	; 0x80ca <__cmpdi2_s8>
    1118:	44 f4       	brge	.+16     	; 0x112a <approx_inverse_of_fixpoint_uint64+0x3f0>
    111a:	71 2c       	mov	r7, r1
    111c:	81 2c       	mov	r8, r1
    111e:	19 a2       	std	Y+33, r1	; 0x21
    1120:	19 a6       	std	Y+41, r1	; 0x29
    1122:	1d a6       	std	Y+45, r1	; 0x2d
    1124:	19 aa       	std	Y+49, r1	; 0x31
    1126:	1a aa       	std	Y+50, r1	; 0x32
    1128:	91 2c       	mov	r9, r1
    112a:	22 2d       	mov	r18, r2
    112c:	33 2d       	mov	r19, r3
    112e:	44 2d       	mov	r20, r4
    1130:	55 2d       	mov	r21, r5
    1132:	66 2d       	mov	r22, r6
    1134:	7b 2f       	mov	r23, r27
    1136:	8f 2f       	mov	r24, r31
    1138:	9e 2f       	mov	r25, r30
    113a:	a1 e0       	ldi	r26, 0x01	; 1
    113c:	0e 94 47 40 	call	0x808e	; 0x808e <__adddi3_s8>
    1140:	a7 2c       	mov	r10, r7
    1142:	b8 2c       	mov	r11, r8
    1144:	c9 a0       	ldd	r12, Y+33	; 0x21
    1146:	d9 a4       	ldd	r13, Y+41	; 0x29
    1148:	ed a4       	ldd	r14, Y+45	; 0x2d
    114a:	f9 a8       	ldd	r15, Y+49	; 0x31
    114c:	0a a9       	ldd	r16, Y+50	; 0x32
    114e:	19 2d       	mov	r17, r9
    1150:	0e 94 3e 40 	call	0x807c	; 0x807c <__adddi3>
    1154:	01 e0       	ldi	r16, 0x01	; 1
    1156:	0e 94 22 40 	call	0x8044	; 0x8044 <__lshrdi3>
    115a:	0c c0       	rjmp	.+24     	; 0x1174 <approx_inverse_of_fixpoint_uint64+0x43a>
    115c:	19 86       	std	Y+9, r1	; 0x09
    115e:	1a 86       	std	Y+10, r1	; 0x0a
    1160:	1b 86       	std	Y+11, r1	; 0x0b
    1162:	1c 86       	std	Y+12, r1	; 0x0c
    1164:	1d 86       	std	Y+13, r1	; 0x0d
    1166:	1e 86       	std	Y+14, r1	; 0x0e
    1168:	1f 86       	std	Y+15, r1	; 0x0f
    116a:	18 8a       	std	Y+16, r1	; 0x10
    116c:	41 2c       	mov	r4, r1
    116e:	51 2c       	mov	r5, r1
    1170:	32 01       	movw	r6, r4
    1172:	51 cf       	rjmp	.-350    	; 0x1016 <approx_inverse_of_fixpoint_uint64+0x2dc>
    1174:	e2 96       	adiw	r28, 0x32	; 50
    1176:	cd bf       	out	0x3d, r28	; 61
    1178:	de bf       	out	0x3e, r29	; 62
    117a:	df 91       	pop	r29
    117c:	cf 91       	pop	r28
    117e:	1f 91       	pop	r17
    1180:	0f 91       	pop	r16
    1182:	ff 90       	pop	r15
    1184:	ef 90       	pop	r14
    1186:	df 90       	pop	r13
    1188:	cf 90       	pop	r12
    118a:	bf 90       	pop	r11
    118c:	af 90       	pop	r10
    118e:	9f 90       	pop	r9
    1190:	8f 90       	pop	r8
    1192:	7f 90       	pop	r7
    1194:	6f 90       	pop	r6
    1196:	5f 90       	pop	r5
    1198:	4f 90       	pop	r4
    119a:	3f 90       	pop	r3
    119c:	2f 90       	pop	r2
    119e:	08 95       	ret

000011a0 <f_addsub2>:
    11a0:	6f 92       	push	r6
    11a2:	7f 92       	push	r7
    11a4:	8f 92       	push	r8
    11a6:	9f 92       	push	r9
    11a8:	af 92       	push	r10
    11aa:	bf 92       	push	r11
    11ac:	cf 92       	push	r12
    11ae:	df 92       	push	r13
    11b0:	ef 92       	push	r14
    11b2:	ff 92       	push	r15
    11b4:	0f 93       	push	r16
    11b6:	1f 93       	push	r17
    11b8:	cf 93       	push	r28
    11ba:	df 93       	push	r29
    11bc:	cd b7       	in	r28, 0x3d	; 61
    11be:	de b7       	in	r29, 0x3e	; 62
    11c0:	a5 97       	sbiw	r28, 0x25	; 37
    11c2:	cd bf       	out	0x3d, r28	; 61
    11c4:	de bf       	out	0x3e, r29	; 62
    11c6:	3c 01       	movw	r6, r24
    11c8:	0e 8b       	std	Y+22, r16	; 0x16
    11ca:	1f 8b       	std	Y+23, r17	; 0x17
    11cc:	28 8f       	std	Y+24, r18	; 0x18
    11ce:	39 8f       	std	Y+25, r19	; 0x19
    11d0:	4a 8f       	std	Y+26, r20	; 0x1a
    11d2:	5b 8f       	std	Y+27, r21	; 0x1b
    11d4:	6c 8f       	std	Y+28, r22	; 0x1c
    11d6:	7d 8f       	std	Y+29, r23	; 0x1d
    11d8:	8e 8e       	std	Y+30, r8	; 0x1e
    11da:	9f 8e       	std	Y+31, r9	; 0x1f
    11dc:	a8 a2       	std	Y+32, r10	; 0x20
    11de:	b9 a2       	std	Y+33, r11	; 0x21
    11e0:	ca a2       	std	Y+34, r12	; 0x22
    11e2:	db a2       	std	Y+35, r13	; 0x23
    11e4:	ec a2       	std	Y+36, r14	; 0x24
    11e6:	fd a2       	std	Y+37, r15	; 0x25
    11e8:	0a e0       	ldi	r16, 0x0A	; 10
    11ea:	9e 01       	movw	r18, r28
    11ec:	2a 5f       	subi	r18, 0xFA	; 250
    11ee:	3f 4f       	sbci	r19, 0xFF	; 255
    11f0:	ae 01       	movw	r20, r28
    11f2:	4e 5f       	subi	r20, 0xFE	; 254
    11f4:	5f 4f       	sbci	r21, 0xFF	; 255
    11f6:	be 01       	movw	r22, r28
    11f8:	6f 5f       	subi	r22, 0xFF	; 255
    11fa:	7f 4f       	sbci	r23, 0xFF	; 255
    11fc:	ce 01       	movw	r24, r28
    11fe:	46 96       	adiw	r24, 0x16	; 22
    1200:	0e 94 0d 02 	call	0x41a	; 0x41a <f_split64>
    1204:	9e 01       	movw	r18, r28
    1206:	22 5f       	subi	r18, 0xF2	; 242
    1208:	3f 4f       	sbci	r19, 0xFF	; 255
    120a:	ae 01       	movw	r20, r28
    120c:	4c 5f       	subi	r20, 0xFC	; 252
    120e:	5f 4f       	sbci	r21, 0xFF	; 255
    1210:	be 01       	movw	r22, r28
    1212:	6f 5f       	subi	r22, 0xFF	; 255
    1214:	7f 4f       	sbci	r23, 0xFF	; 255
    1216:	ce 01       	movw	r24, r28
    1218:	4e 96       	adiw	r24, 0x1e	; 30
    121a:	0e 94 0d 02 	call	0x41a	; 0x41a <f_split64>
    121e:	e8 ad       	ldd	r30, Y+56	; 0x38
    1220:	f9 ad       	ldd	r31, Y+57	; 0x39
    1222:	10 82       	st	Z, r1
    1224:	ea 81       	ldd	r30, Y+2	; 0x02
    1226:	fb 81       	ldd	r31, Y+3	; 0x03
    1228:	ef 3f       	cpi	r30, 0xFF	; 255
    122a:	27 e0       	ldi	r18, 0x07	; 7
    122c:	f2 07       	cpc	r31, r18
    122e:	e9 f5       	brne	.+122    	; 0x12aa <f_addsub2+0x10a>
    1230:	2e 81       	ldd	r18, Y+6	; 0x06
    1232:	3f 81       	ldd	r19, Y+7	; 0x07
    1234:	48 85       	ldd	r20, Y+8	; 0x08
    1236:	59 85       	ldd	r21, Y+9	; 0x09
    1238:	6a 85       	ldd	r22, Y+10	; 0x0a
    123a:	7b 85       	ldd	r23, Y+11	; 0x0b
    123c:	8c 85       	ldd	r24, Y+12	; 0x0c
    123e:	9d 85       	ldd	r25, Y+13	; 0x0d
    1240:	a0 e0       	ldi	r26, 0x00	; 0
    1242:	0e 94 65 40 	call	0x80ca	; 0x80ca <__cmpdi2_s8>
    1246:	29 f5       	brne	.+74     	; 0x1292 <f_addsub2+0xf2>
    1248:	8c 81       	ldd	r24, Y+4	; 0x04
    124a:	9d 81       	ldd	r25, Y+5	; 0x05
    124c:	8f 3f       	cpi	r24, 0xFF	; 255
    124e:	97 40       	sbci	r25, 0x07	; 7
    1250:	71 f4       	brne	.+28     	; 0x126e <f_addsub2+0xce>
    1252:	2e 85       	ldd	r18, Y+14	; 0x0e
    1254:	3f 85       	ldd	r19, Y+15	; 0x0f
    1256:	48 89       	ldd	r20, Y+16	; 0x10
    1258:	59 89       	ldd	r21, Y+17	; 0x11
    125a:	6a 89       	ldd	r22, Y+18	; 0x12
    125c:	7b 89       	ldd	r23, Y+19	; 0x13
    125e:	8c 89       	ldd	r24, Y+20	; 0x14
    1260:	9d 89       	ldd	r25, Y+21	; 0x15
    1262:	0e 94 65 40 	call	0x80ca	; 0x80ca <__cmpdi2_s8>
    1266:	a9 f4       	brne	.+42     	; 0x1292 <f_addsub2+0xf2>
    1268:	ff a9       	ldd	r31, Y+55	; 0x37
    126a:	ff 23       	and	r31, r31
    126c:	91 f0       	breq	.+36     	; 0x1292 <f_addsub2+0xf2>
    126e:	8e 89       	ldd	r24, Y+22	; 0x16
    1270:	f3 01       	movw	r30, r6
    1272:	80 83       	st	Z, r24
    1274:	8f 89       	ldd	r24, Y+23	; 0x17
    1276:	81 83       	std	Z+1, r24	; 0x01
    1278:	88 8d       	ldd	r24, Y+24	; 0x18
    127a:	82 83       	std	Z+2, r24	; 0x02
    127c:	89 8d       	ldd	r24, Y+25	; 0x19
    127e:	83 83       	std	Z+3, r24	; 0x03
    1280:	8a 8d       	ldd	r24, Y+26	; 0x1a
    1282:	84 83       	std	Z+4, r24	; 0x04
    1284:	8b 8d       	ldd	r24, Y+27	; 0x1b
    1286:	85 83       	std	Z+5, r24	; 0x05
    1288:	8c 8d       	ldd	r24, Y+28	; 0x1c
    128a:	86 83       	std	Z+6, r24	; 0x06
    128c:	8d 8d       	ldd	r24, Y+29	; 0x1d
    128e:	87 83       	std	Z+7, r24	; 0x07
    1290:	1e c1       	rjmp	.+572    	; 0x14ce <f_addsub2+0x32e>
    1292:	8f ef       	ldi	r24, 0xFF	; 255
    1294:	f3 01       	movw	r30, r6
    1296:	80 83       	st	Z, r24
    1298:	81 83       	std	Z+1, r24	; 0x01
    129a:	82 83       	std	Z+2, r24	; 0x02
    129c:	83 83       	std	Z+3, r24	; 0x03
    129e:	84 83       	std	Z+4, r24	; 0x04
    12a0:	85 83       	std	Z+5, r24	; 0x05
    12a2:	86 83       	std	Z+6, r24	; 0x06
    12a4:	8f e7       	ldi	r24, 0x7F	; 127
    12a6:	87 83       	std	Z+7, r24	; 0x07
    12a8:	12 c1       	rjmp	.+548    	; 0x14ce <f_addsub2+0x32e>
    12aa:	ac 81       	ldd	r26, Y+4	; 0x04
    12ac:	bd 81       	ldd	r27, Y+5	; 0x05
    12ae:	af 3f       	cpi	r26, 0xFF	; 255
    12b0:	27 e0       	ldi	r18, 0x07	; 7
    12b2:	b2 07       	cpc	r27, r18
    12b4:	91 f4       	brne	.+36     	; 0x12da <f_addsub2+0x13a>
    12b6:	8e 8d       	ldd	r24, Y+30	; 0x1e
    12b8:	f3 01       	movw	r30, r6
    12ba:	80 83       	st	Z, r24
    12bc:	8f 8d       	ldd	r24, Y+31	; 0x1f
    12be:	81 83       	std	Z+1, r24	; 0x01
    12c0:	88 a1       	ldd	r24, Y+32	; 0x20
    12c2:	82 83       	std	Z+2, r24	; 0x02
    12c4:	89 a1       	ldd	r24, Y+33	; 0x21
    12c6:	83 83       	std	Z+3, r24	; 0x03
    12c8:	8a a1       	ldd	r24, Y+34	; 0x22
    12ca:	84 83       	std	Z+4, r24	; 0x04
    12cc:	8b a1       	ldd	r24, Y+35	; 0x23
    12ce:	85 83       	std	Z+5, r24	; 0x05
    12d0:	8c a1       	ldd	r24, Y+36	; 0x24
    12d2:	86 83       	std	Z+6, r24	; 0x06
    12d4:	8d a1       	ldd	r24, Y+37	; 0x25
    12d6:	87 83       	std	Z+7, r24	; 0x07
    12d8:	fa c0       	rjmp	.+500    	; 0x14ce <f_addsub2+0x32e>
    12da:	30 97       	sbiw	r30, 0x00	; 0
    12dc:	31 f0       	breq	.+12     	; 0x12ea <f_addsub2+0x14a>
    12de:	cf 01       	movw	r24, r30
    12e0:	80 5c       	subi	r24, 0xC0	; 192
    12e2:	9f 4f       	sbci	r25, 0xFF	; 255
    12e4:	a8 17       	cp	r26, r24
    12e6:	b9 07       	cpc	r27, r25
    12e8:	b4 f0       	brlt	.+44     	; 0x1316 <f_addsub2+0x176>
    12ea:	8e 8d       	ldd	r24, Y+30	; 0x1e
    12ec:	f3 01       	movw	r30, r6
    12ee:	80 83       	st	Z, r24
    12f0:	8f 8d       	ldd	r24, Y+31	; 0x1f
    12f2:	81 83       	std	Z+1, r24	; 0x01
    12f4:	88 a1       	ldd	r24, Y+32	; 0x20
    12f6:	82 83       	std	Z+2, r24	; 0x02
    12f8:	89 a1       	ldd	r24, Y+33	; 0x21
    12fa:	83 83       	std	Z+3, r24	; 0x03
    12fc:	8a a1       	ldd	r24, Y+34	; 0x22
    12fe:	84 83       	std	Z+4, r24	; 0x04
    1300:	8b a1       	ldd	r24, Y+35	; 0x23
    1302:	85 83       	std	Z+5, r24	; 0x05
    1304:	8c a1       	ldd	r24, Y+36	; 0x24
    1306:	86 83       	std	Z+6, r24	; 0x06
    1308:	8d a1       	ldd	r24, Y+37	; 0x25
    130a:	87 83       	std	Z+7, r24	; 0x07
    130c:	81 e0       	ldi	r24, 0x01	; 1
    130e:	e8 ad       	ldd	r30, Y+56	; 0x38
    1310:	f9 ad       	ldd	r31, Y+57	; 0x39
    1312:	80 83       	st	Z, r24
    1314:	dc c0       	rjmp	.+440    	; 0x14ce <f_addsub2+0x32e>
    1316:	10 97       	sbiw	r26, 0x00	; 0
    1318:	31 f0       	breq	.+12     	; 0x1326 <f_addsub2+0x186>
    131a:	cd 01       	movw	r24, r26
    131c:	80 5c       	subi	r24, 0xC0	; 192
    131e:	9f 4f       	sbci	r25, 0xFF	; 255
    1320:	e8 17       	cp	r30, r24
    1322:	f9 07       	cpc	r31, r25
    1324:	94 f0       	brlt	.+36     	; 0x134a <f_addsub2+0x1aa>
    1326:	8e 89       	ldd	r24, Y+22	; 0x16
    1328:	f3 01       	movw	r30, r6
    132a:	80 83       	st	Z, r24
    132c:	8f 89       	ldd	r24, Y+23	; 0x17
    132e:	81 83       	std	Z+1, r24	; 0x01
    1330:	88 8d       	ldd	r24, Y+24	; 0x18
    1332:	82 83       	std	Z+2, r24	; 0x02
    1334:	89 8d       	ldd	r24, Y+25	; 0x19
    1336:	83 83       	std	Z+3, r24	; 0x03
    1338:	8a 8d       	ldd	r24, Y+26	; 0x1a
    133a:	84 83       	std	Z+4, r24	; 0x04
    133c:	8b 8d       	ldd	r24, Y+27	; 0x1b
    133e:	85 83       	std	Z+5, r24	; 0x05
    1340:	8c 8d       	ldd	r24, Y+28	; 0x1c
    1342:	86 83       	std	Z+6, r24	; 0x06
    1344:	8d 8d       	ldd	r24, Y+29	; 0x1d
    1346:	87 83       	std	Z+7, r24	; 0x07
    1348:	c2 c0       	rjmp	.+388    	; 0x14ce <f_addsub2+0x32e>
    134a:	2f a9       	ldd	r18, Y+55	; 0x37
    134c:	22 23       	and	r18, r18
    134e:	09 f4       	brne	.+2      	; 0x1352 <f_addsub2+0x1b2>
    1350:	45 c0       	rjmp	.+138    	; 0x13dc <f_addsub2+0x23c>
    1352:	ea 17       	cp	r30, r26
    1354:	fb 07       	cpc	r31, r27
    1356:	04 f1       	brlt	.+64     	; 0x1398 <f_addsub2+0x1f8>
    1358:	8f 01       	movw	r16, r30
    135a:	0a 1b       	sub	r16, r26
    135c:	1b 0b       	sbc	r17, r27
    135e:	2e 85       	ldd	r18, Y+14	; 0x0e
    1360:	3f 85       	ldd	r19, Y+15	; 0x0f
    1362:	48 89       	ldd	r20, Y+16	; 0x10
    1364:	59 89       	ldd	r21, Y+17	; 0x11
    1366:	6a 89       	ldd	r22, Y+18	; 0x12
    1368:	7b 89       	ldd	r23, Y+19	; 0x13
    136a:	8c 89       	ldd	r24, Y+20	; 0x14
    136c:	9d 89       	ldd	r25, Y+21	; 0x15
    136e:	0e 94 22 40 	call	0x8044	; 0x8044 <__lshrdi3>
    1372:	ae 80       	ldd	r10, Y+6	; 0x06
    1374:	bf 80       	ldd	r11, Y+7	; 0x07
    1376:	c8 84       	ldd	r12, Y+8	; 0x08
    1378:	d9 84       	ldd	r13, Y+9	; 0x09
    137a:	ea 84       	ldd	r14, Y+10	; 0x0a
    137c:	fb 84       	ldd	r15, Y+11	; 0x0b
    137e:	0c 85       	ldd	r16, Y+12	; 0x0c
    1380:	1d 85       	ldd	r17, Y+13	; 0x0d
    1382:	0e 94 3e 40 	call	0x807c	; 0x807c <__adddi3>
    1386:	2e 83       	std	Y+6, r18	; 0x06
    1388:	3f 83       	std	Y+7, r19	; 0x07
    138a:	48 87       	std	Y+8, r20	; 0x08
    138c:	59 87       	std	Y+9, r21	; 0x09
    138e:	6a 87       	std	Y+10, r22	; 0x0a
    1390:	7b 87       	std	Y+11, r23	; 0x0b
    1392:	8c 87       	std	Y+12, r24	; 0x0c
    1394:	9d 87       	std	Y+13, r25	; 0x0d
    1396:	90 c0       	rjmp	.+288    	; 0x14b8 <f_addsub2+0x318>
    1398:	8d 01       	movw	r16, r26
    139a:	0e 1b       	sub	r16, r30
    139c:	1f 0b       	sbc	r17, r31
    139e:	2e 81       	ldd	r18, Y+6	; 0x06
    13a0:	3f 81       	ldd	r19, Y+7	; 0x07
    13a2:	48 85       	ldd	r20, Y+8	; 0x08
    13a4:	59 85       	ldd	r21, Y+9	; 0x09
    13a6:	6a 85       	ldd	r22, Y+10	; 0x0a
    13a8:	7b 85       	ldd	r23, Y+11	; 0x0b
    13aa:	8c 85       	ldd	r24, Y+12	; 0x0c
    13ac:	9d 85       	ldd	r25, Y+13	; 0x0d
    13ae:	0e 94 22 40 	call	0x8044	; 0x8044 <__lshrdi3>
    13b2:	ae 84       	ldd	r10, Y+14	; 0x0e
    13b4:	bf 84       	ldd	r11, Y+15	; 0x0f
    13b6:	c8 88       	ldd	r12, Y+16	; 0x10
    13b8:	d9 88       	ldd	r13, Y+17	; 0x11
    13ba:	ea 88       	ldd	r14, Y+18	; 0x12
    13bc:	fb 88       	ldd	r15, Y+19	; 0x13
    13be:	0c 89       	ldd	r16, Y+20	; 0x14
    13c0:	1d 89       	ldd	r17, Y+21	; 0x15
    13c2:	0e 94 3e 40 	call	0x807c	; 0x807c <__adddi3>
    13c6:	2e 83       	std	Y+6, r18	; 0x06
    13c8:	3f 83       	std	Y+7, r19	; 0x07
    13ca:	48 87       	std	Y+8, r20	; 0x08
    13cc:	59 87       	std	Y+9, r21	; 0x09
    13ce:	6a 87       	std	Y+10, r22	; 0x0a
    13d0:	7b 87       	std	Y+11, r23	; 0x0b
    13d2:	8c 87       	std	Y+12, r24	; 0x0c
    13d4:	9d 87       	std	Y+13, r25	; 0x0d
    13d6:	aa 83       	std	Y+2, r26	; 0x02
    13d8:	bb 83       	std	Y+3, r27	; 0x03
    13da:	6e c0       	rjmp	.+220    	; 0x14b8 <f_addsub2+0x318>
    13dc:	ae 17       	cp	r26, r30
    13de:	bf 07       	cpc	r27, r31
    13e0:	b4 f0       	brlt	.+44     	; 0x140e <f_addsub2+0x26e>
    13e2:	ea 17       	cp	r30, r26
    13e4:	fb 07       	cpc	r31, r27
    13e6:	d9 f5       	brne	.+118    	; 0x145e <f_addsub2+0x2be>
    13e8:	2e 81       	ldd	r18, Y+6	; 0x06
    13ea:	3f 81       	ldd	r19, Y+7	; 0x07
    13ec:	48 85       	ldd	r20, Y+8	; 0x08
    13ee:	59 85       	ldd	r21, Y+9	; 0x09
    13f0:	6a 85       	ldd	r22, Y+10	; 0x0a
    13f2:	7b 85       	ldd	r23, Y+11	; 0x0b
    13f4:	ae 84       	ldd	r10, Y+14	; 0x0e
    13f6:	bf 84       	ldd	r11, Y+15	; 0x0f
    13f8:	c8 88       	ldd	r12, Y+16	; 0x10
    13fa:	d9 88       	ldd	r13, Y+17	; 0x11
    13fc:	ea 88       	ldd	r14, Y+18	; 0x12
    13fe:	fb 88       	ldd	r15, Y+19	; 0x13
    1400:	0c 89       	ldd	r16, Y+20	; 0x14
    1402:	1d 89       	ldd	r17, Y+21	; 0x15
    1404:	8c 85       	ldd	r24, Y+12	; 0x0c
    1406:	9d 85       	ldd	r25, Y+13	; 0x0d
    1408:	0e 94 5c 40 	call	0x80b8	; 0x80b8 <__cmpdi2>
    140c:	40 f1       	brcs	.+80     	; 0x145e <f_addsub2+0x2be>
    140e:	8f 01       	movw	r16, r30
    1410:	0a 1b       	sub	r16, r26
    1412:	1b 0b       	sbc	r17, r27
    1414:	2e 85       	ldd	r18, Y+14	; 0x0e
    1416:	3f 85       	ldd	r19, Y+15	; 0x0f
    1418:	48 89       	ldd	r20, Y+16	; 0x10
    141a:	59 89       	ldd	r21, Y+17	; 0x11
    141c:	6a 89       	ldd	r22, Y+18	; 0x12
    141e:	7b 89       	ldd	r23, Y+19	; 0x13
    1420:	8c 89       	ldd	r24, Y+20	; 0x14
    1422:	9d 89       	ldd	r25, Y+21	; 0x15
    1424:	0e 94 22 40 	call	0x8044	; 0x8044 <__lshrdi3>
    1428:	a2 2e       	mov	r10, r18
    142a:	b3 2e       	mov	r11, r19
    142c:	c4 2e       	mov	r12, r20
    142e:	d5 2e       	mov	r13, r21
    1430:	e6 2e       	mov	r14, r22
    1432:	f7 2e       	mov	r15, r23
    1434:	08 2f       	mov	r16, r24
    1436:	19 2f       	mov	r17, r25
    1438:	2e 81       	ldd	r18, Y+6	; 0x06
    143a:	3f 81       	ldd	r19, Y+7	; 0x07
    143c:	48 85       	ldd	r20, Y+8	; 0x08
    143e:	59 85       	ldd	r21, Y+9	; 0x09
    1440:	6a 85       	ldd	r22, Y+10	; 0x0a
    1442:	7b 85       	ldd	r23, Y+11	; 0x0b
    1444:	8c 85       	ldd	r24, Y+12	; 0x0c
    1446:	9d 85       	ldd	r25, Y+13	; 0x0d
    1448:	0e 94 53 40 	call	0x80a6	; 0x80a6 <__subdi3>
    144c:	2e 83       	std	Y+6, r18	; 0x06
    144e:	3f 83       	std	Y+7, r19	; 0x07
    1450:	48 87       	std	Y+8, r20	; 0x08
    1452:	59 87       	std	Y+9, r21	; 0x09
    1454:	6a 87       	std	Y+10, r22	; 0x0a
    1456:	7b 87       	std	Y+11, r23	; 0x0b
    1458:	8c 87       	std	Y+12, r24	; 0x0c
    145a:	9d 87       	std	Y+13, r25	; 0x0d
    145c:	2d c0       	rjmp	.+90     	; 0x14b8 <f_addsub2+0x318>
    145e:	8d 01       	movw	r16, r26
    1460:	0e 1b       	sub	r16, r30
    1462:	1f 0b       	sbc	r17, r31
    1464:	2e 81       	ldd	r18, Y+6	; 0x06
    1466:	3f 81       	ldd	r19, Y+7	; 0x07
    1468:	48 85       	ldd	r20, Y+8	; 0x08
    146a:	59 85       	ldd	r21, Y+9	; 0x09
    146c:	6a 85       	ldd	r22, Y+10	; 0x0a
    146e:	7b 85       	ldd	r23, Y+11	; 0x0b
    1470:	8c 85       	ldd	r24, Y+12	; 0x0c
    1472:	9d 85       	ldd	r25, Y+13	; 0x0d
    1474:	0e 94 22 40 	call	0x8044	; 0x8044 <__lshrdi3>
    1478:	a2 2e       	mov	r10, r18
    147a:	b3 2e       	mov	r11, r19
    147c:	c4 2e       	mov	r12, r20
    147e:	d5 2e       	mov	r13, r21
    1480:	e6 2e       	mov	r14, r22
    1482:	f7 2e       	mov	r15, r23
    1484:	08 2f       	mov	r16, r24
    1486:	19 2f       	mov	r17, r25
    1488:	2e 85       	ldd	r18, Y+14	; 0x0e
    148a:	3f 85       	ldd	r19, Y+15	; 0x0f
    148c:	48 89       	ldd	r20, Y+16	; 0x10
    148e:	59 89       	ldd	r21, Y+17	; 0x11
    1490:	6a 89       	ldd	r22, Y+18	; 0x12
    1492:	7b 89       	ldd	r23, Y+19	; 0x13
    1494:	8c 89       	ldd	r24, Y+20	; 0x14
    1496:	9d 89       	ldd	r25, Y+21	; 0x15
    1498:	0e 94 53 40 	call	0x80a6	; 0x80a6 <__subdi3>
    149c:	2e 83       	std	Y+6, r18	; 0x06
    149e:	3f 83       	std	Y+7, r19	; 0x07
    14a0:	48 87       	std	Y+8, r20	; 0x08
    14a2:	59 87       	std	Y+9, r21	; 0x09
    14a4:	6a 87       	std	Y+10, r22	; 0x0a
    14a6:	7b 87       	std	Y+11, r23	; 0x0b
    14a8:	8c 87       	std	Y+12, r24	; 0x0c
    14aa:	9d 87       	std	Y+13, r25	; 0x0d
    14ac:	81 e0       	ldi	r24, 0x01	; 1
    14ae:	e8 ad       	ldd	r30, Y+56	; 0x38
    14b0:	f9 ad       	ldd	r31, Y+57	; 0x39
    14b2:	80 83       	st	Z, r24
    14b4:	aa 83       	std	Y+2, r26	; 0x02
    14b6:	bb 83       	std	Y+3, r27	; 0x03
    14b8:	4a 81       	ldd	r20, Y+2	; 0x02
    14ba:	5b 81       	ldd	r21, Y+3	; 0x03
    14bc:	4a 50       	subi	r20, 0x0A	; 10
    14be:	51 09       	sbc	r21, r1
    14c0:	9e 01       	movw	r18, r28
    14c2:	2a 5f       	subi	r18, 0xFA	; 250
    14c4:	3f 4f       	sbci	r19, 0xFF	; 255
    14c6:	60 e0       	ldi	r22, 0x00	; 0
    14c8:	c3 01       	movw	r24, r6
    14ca:	0e 94 b5 02 	call	0x56a	; 0x56a <f_combi_from_fixpoint>
    14ce:	a5 96       	adiw	r28, 0x25	; 37
    14d0:	cd bf       	out	0x3d, r28	; 61
    14d2:	de bf       	out	0x3e, r29	; 62
    14d4:	df 91       	pop	r29
    14d6:	cf 91       	pop	r28
    14d8:	1f 91       	pop	r17
    14da:	0f 91       	pop	r16
    14dc:	ff 90       	pop	r15
    14de:	ef 90       	pop	r14
    14e0:	df 90       	pop	r13
    14e2:	cf 90       	pop	r12
    14e4:	bf 90       	pop	r11
    14e6:	af 90       	pop	r10
    14e8:	9f 90       	pop	r9
    14ea:	8f 90       	pop	r8
    14ec:	7f 90       	pop	r7
    14ee:	6f 90       	pop	r6
    14f0:	08 95       	ret

000014f2 <f_sd>:
    14f2:	4f 92       	push	r4
    14f4:	5f 92       	push	r5
    14f6:	6f 92       	push	r6
    14f8:	7f 92       	push	r7
    14fa:	8f 92       	push	r8
    14fc:	9f 92       	push	r9
    14fe:	af 92       	push	r10
    1500:	bf 92       	push	r11
    1502:	cf 92       	push	r12
    1504:	df 92       	push	r13
    1506:	ef 92       	push	r14
    1508:	ff 92       	push	r15
    150a:	1f 93       	push	r17
    150c:	cf 93       	push	r28
    150e:	df 93       	push	r29
    1510:	cd b7       	in	r28, 0x3d	; 61
    1512:	de b7       	in	r29, 0x3e	; 62
    1514:	60 97       	sbiw	r28, 0x10	; 16
    1516:	cd bf       	out	0x3d, r28	; 61
    1518:	de bf       	out	0x3e, r29	; 62
    151a:	2b 01       	movw	r4, r22
    151c:	3c 01       	movw	r6, r24
    151e:	e8 94       	clt
    1520:	67 f8       	bld	r6, 7
    1522:	77 24       	eor	r7, r7
    1524:	53 01       	movw	r10, r6
    1526:	42 01       	movw	r8, r4
    1528:	bb 0c       	add	r11, r11
    152a:	88 08       	sbc	r8, r8
    152c:	98 2c       	mov	r9, r8
    152e:	54 01       	movw	r10, r8
    1530:	49 82       	std	Y+1, r4	; 0x01
    1532:	5a 82       	std	Y+2, r5	; 0x02
    1534:	6b 82       	std	Y+3, r6	; 0x03
    1536:	7c 82       	std	Y+4, r7	; 0x04
    1538:	8d 82       	std	Y+5, r8	; 0x05
    153a:	8e 82       	std	Y+6, r8	; 0x06
    153c:	8f 82       	std	Y+7, r8	; 0x07
    153e:	88 86       	std	Y+8, r8	; 0x08
    1540:	6b 01       	movw	r12, r22
    1542:	7c 01       	movw	r14, r24
    1544:	0b 2e       	mov	r0, r27
    1546:	b7 e1       	ldi	r27, 0x17	; 23
    1548:	f5 94       	asr	r15
    154a:	e7 94       	ror	r14
    154c:	d7 94       	ror	r13
    154e:	c7 94       	ror	r12
    1550:	ba 95       	dec	r27
    1552:	d1 f7       	brne	.-12     	; 0x1548 <f_sd+0x56>
    1554:	b0 2d       	mov	r27, r0
    1556:	f6 01       	movw	r30, r12
    1558:	ff 27       	eor	r31, r31
    155a:	6b 01       	movw	r12, r22
    155c:	7c 01       	movw	r14, r24
    155e:	cc 24       	eor	r12, r12
    1560:	f7 fc       	sbrc	r15, 7
    1562:	c3 94       	inc	r12
    1564:	dd 24       	eor	r13, r13
    1566:	ee 24       	eor	r14, r14
    1568:	ff 24       	eor	r15, r15
    156a:	1c 2d       	mov	r17, r12
    156c:	30 97       	sbiw	r30, 0x00	; 0
    156e:	09 f0       	breq	.+2      	; 0x1572 <f_sd+0x80>
    1570:	66 c0       	rjmp	.+204    	; 0x163e <f_sd+0x14c>
    1572:	24 2d       	mov	r18, r4
    1574:	35 2d       	mov	r19, r5
    1576:	46 2d       	mov	r20, r6
    1578:	57 2d       	mov	r21, r7
    157a:	68 2d       	mov	r22, r8
    157c:	78 2d       	mov	r23, r8
    157e:	88 2d       	mov	r24, r8
    1580:	98 2d       	mov	r25, r8
    1582:	a0 e0       	ldi	r26, 0x00	; 0
    1584:	0e 94 65 40 	call	0x80ca	; 0x80ca <__cmpdi2_s8>
    1588:	11 f5       	brne	.+68     	; 0x15ce <f_sd+0xdc>
    158a:	17 c0       	rjmp	.+46     	; 0x15ba <f_sd+0xc8>
    158c:	24 2d       	mov	r18, r4
    158e:	35 2d       	mov	r19, r5
    1590:	46 2d       	mov	r20, r6
    1592:	57 2d       	mov	r21, r7
    1594:	68 2d       	mov	r22, r8
    1596:	78 2d       	mov	r23, r8
    1598:	88 2d       	mov	r24, r8
    159a:	98 2d       	mov	r25, r8
    159c:	a0 e0       	ldi	r26, 0x00	; 0
    159e:	0e 94 65 40 	call	0x80ca	; 0x80ca <__cmpdi2_s8>
    15a2:	49 f5       	brne	.+82     	; 0x15f6 <f_sd+0x104>
    15a4:	11 11       	cpse	r17, r1
    15a6:	30 c0       	rjmp	.+96     	; 0x1608 <f_sd+0x116>
    15a8:	20 e0       	ldi	r18, 0x00	; 0
    15aa:	30 e0       	ldi	r19, 0x00	; 0
    15ac:	40 e0       	ldi	r20, 0x00	; 0
    15ae:	50 e0       	ldi	r21, 0x00	; 0
    15b0:	60 e0       	ldi	r22, 0x00	; 0
    15b2:	70 e0       	ldi	r23, 0x00	; 0
    15b4:	80 ef       	ldi	r24, 0xF0	; 240
    15b6:	9f e7       	ldi	r25, 0x7F	; 127
    15b8:	46 c0       	rjmp	.+140    	; 0x1646 <f_sd+0x154>
    15ba:	19 82       	std	Y+1, r1	; 0x01
    15bc:	1a 82       	std	Y+2, r1	; 0x02
    15be:	80 e8       	ldi	r24, 0x80	; 128
    15c0:	8b 83       	std	Y+3, r24	; 0x03
    15c2:	1c 82       	std	Y+4, r1	; 0x04
    15c4:	1d 82       	std	Y+5, r1	; 0x05
    15c6:	1e 82       	std	Y+6, r1	; 0x06
    15c8:	1f 82       	std	Y+7, r1	; 0x07
    15ca:	18 86       	std	Y+8, r1	; 0x08
    15cc:	02 c0       	rjmp	.+4      	; 0x15d2 <f_sd+0xe0>
    15ce:	ee e9       	ldi	r30, 0x9E	; 158
    15d0:	f3 e0       	ldi	r31, 0x03	; 3
    15d2:	9e 01       	movw	r18, r28
    15d4:	2f 5f       	subi	r18, 0xFF	; 255
    15d6:	3f 4f       	sbci	r19, 0xFF	; 255
    15d8:	af 01       	movw	r20, r30
    15da:	6c 2d       	mov	r22, r12
    15dc:	ce 01       	movw	r24, r28
    15de:	09 96       	adiw	r24, 0x09	; 9
    15e0:	0e 94 b5 02 	call	0x56a	; 0x56a <f_combi_from_fixpoint>
    15e4:	29 85       	ldd	r18, Y+9	; 0x09
    15e6:	3a 85       	ldd	r19, Y+10	; 0x0a
    15e8:	4b 85       	ldd	r20, Y+11	; 0x0b
    15ea:	5c 85       	ldd	r21, Y+12	; 0x0c
    15ec:	6d 85       	ldd	r22, Y+13	; 0x0d
    15ee:	7e 85       	ldd	r23, Y+14	; 0x0e
    15f0:	8f 85       	ldd	r24, Y+15	; 0x0f
    15f2:	98 89       	ldd	r25, Y+16	; 0x10
    15f4:	28 c0       	rjmp	.+80     	; 0x1646 <f_sd+0x154>
    15f6:	2f ef       	ldi	r18, 0xFF	; 255
    15f8:	3f ef       	ldi	r19, 0xFF	; 255
    15fa:	4f ef       	ldi	r20, 0xFF	; 255
    15fc:	5f ef       	ldi	r21, 0xFF	; 255
    15fe:	6f ef       	ldi	r22, 0xFF	; 255
    1600:	7f ef       	ldi	r23, 0xFF	; 255
    1602:	8f ef       	ldi	r24, 0xFF	; 255
    1604:	9f e7       	ldi	r25, 0x7F	; 127
    1606:	1f c0       	rjmp	.+62     	; 0x1646 <f_sd+0x154>
    1608:	20 e0       	ldi	r18, 0x00	; 0
    160a:	30 e0       	ldi	r19, 0x00	; 0
    160c:	40 e0       	ldi	r20, 0x00	; 0
    160e:	50 e0       	ldi	r21, 0x00	; 0
    1610:	60 e0       	ldi	r22, 0x00	; 0
    1612:	70 e0       	ldi	r23, 0x00	; 0
    1614:	80 ef       	ldi	r24, 0xF0	; 240
    1616:	9f ef       	ldi	r25, 0xFF	; 255
    1618:	16 c0       	rjmp	.+44     	; 0x1646 <f_sd+0x154>
    161a:	d3 01       	movw	r26, r6
    161c:	c2 01       	movw	r24, r4
    161e:	a0 68       	ori	r26, 0x80	; 128
    1620:	89 83       	std	Y+1, r24	; 0x01
    1622:	9a 83       	std	Y+2, r25	; 0x02
    1624:	ab 83       	std	Y+3, r26	; 0x03
    1626:	bc 83       	std	Y+4, r27	; 0x04
    1628:	bb 0f       	add	r27, r27
    162a:	88 0b       	sbc	r24, r24
    162c:	98 2f       	mov	r25, r24
    162e:	dc 01       	movw	r26, r24
    1630:	8d 83       	std	Y+5, r24	; 0x05
    1632:	8e 83       	std	Y+6, r24	; 0x06
    1634:	8f 83       	std	Y+7, r24	; 0x07
    1636:	88 87       	std	Y+8, r24	; 0x08
    1638:	e3 56       	subi	r30, 0x63	; 99
    163a:	fc 4f       	sbci	r31, 0xFC	; 252
    163c:	ca cf       	rjmp	.-108    	; 0x15d2 <f_sd+0xe0>
    163e:	ef 3f       	cpi	r30, 0xFF	; 255
    1640:	f1 05       	cpc	r31, r1
    1642:	59 f7       	brne	.-42     	; 0x161a <f_sd+0x128>
    1644:	a3 cf       	rjmp	.-186    	; 0x158c <f_sd+0x9a>
    1646:	60 96       	adiw	r28, 0x10	; 16
    1648:	cd bf       	out	0x3d, r28	; 61
    164a:	de bf       	out	0x3e, r29	; 62
    164c:	df 91       	pop	r29
    164e:	cf 91       	pop	r28
    1650:	1f 91       	pop	r17
    1652:	ff 90       	pop	r15
    1654:	ef 90       	pop	r14
    1656:	df 90       	pop	r13
    1658:	cf 90       	pop	r12
    165a:	bf 90       	pop	r11
    165c:	af 90       	pop	r10
    165e:	9f 90       	pop	r9
    1660:	8f 90       	pop	r8
    1662:	7f 90       	pop	r7
    1664:	6f 90       	pop	r6
    1666:	5f 90       	pop	r5
    1668:	4f 90       	pop	r4
    166a:	08 95       	ret

0000166c <f_add>:
}

/***********************************************************/
float64_t f_add(float64_t a, float64_t b)
/***********************************************************/
{uint8_t signa,signb,signerg;
    166c:	2f 92       	push	r2
    166e:	3f 92       	push	r3
    1670:	4f 92       	push	r4
    1672:	5f 92       	push	r5
    1674:	6f 92       	push	r6
    1676:	7f 92       	push	r7
    1678:	8f 92       	push	r8
    167a:	9f 92       	push	r9
    167c:	af 92       	push	r10
    167e:	bf 92       	push	r11
    1680:	cf 92       	push	r12
    1682:	df 92       	push	r13
    1684:	ef 92       	push	r14
    1686:	ff 92       	push	r15
    1688:	0f 93       	push	r16
    168a:	1f 93       	push	r17
    168c:	cf 93       	push	r28
    168e:	df 93       	push	r29
    1690:	cd b7       	in	r28, 0x3d	; 61
    1692:	de b7       	in	r29, 0x3e	; 62
    1694:	2a 97       	sbiw	r28, 0x0a	; 10
    1696:	cd bf       	out	0x3d, r28	; 61
    1698:	de bf       	out	0x3e, r29	; 62
    169a:	42 2e       	mov	r4, r18
    169c:	53 2e       	mov	r5, r19
    169e:	64 2e       	mov	r6, r20
    16a0:	5a 87       	std	Y+10, r21	; 0x0a
    16a2:	b6 2f       	mov	r27, r22
    16a4:	a7 2f       	mov	r26, r23
    16a6:	f8 2f       	mov	r31, r24
    16a8:	e9 2f       	mov	r30, r25
    16aa:	30 2e       	mov	r3, r16

/***********************************************************/
static uint8_t f_getsign(float64_t x)
/***********************************************************/
{ uint64_t * px=&x;
 return ((uint8_t)(((*px)>>63)&1));
    16ac:	0f e3       	ldi	r16, 0x3F	; 63
    16ae:	0e 94 22 40 	call	0x8044	; 0x8044 <__lshrdi3>
    16b2:	21 70       	andi	r18, 0x01	; 1
    16b4:	72 2e       	mov	r7, r18
    16b6:	2a 2d       	mov	r18, r10
    16b8:	3b 2d       	mov	r19, r11
    16ba:	4c 2d       	mov	r20, r12
    16bc:	5d 2d       	mov	r21, r13
    16be:	6e 2d       	mov	r22, r14
    16c0:	7f 2d       	mov	r23, r15
    16c2:	83 2d       	mov	r24, r3
    16c4:	91 2f       	mov	r25, r17
    16c6:	0e 94 22 40 	call	0x8044	; 0x8044 <__lshrdi3>
    16ca:	21 70       	andi	r18, 0x01	; 1
    16cc:	22 2e       	mov	r2, r18
 uint64_t  i64;
 float64_t * x = &i64;

 signa= f_getsign(a);
 signb= f_getsign(b);
 if(signa^signb)
    16ce:	27 15       	cp	r18, r7
    16d0:	09 f1       	breq	.+66     	; 0x1714 <f_add+0xa8>
 {  // diff. signs
   f_addsub2(x,a,b,0,&flagexd); // calc a-b
    16d2:	ce 01       	movw	r24, r28
    16d4:	01 96       	adiw	r24, 0x01	; 1
    16d6:	9f 93       	push	r25
    16d8:	8f 93       	push	r24
    16da:	1f 92       	push	r1
    16dc:	8a 2c       	mov	r8, r10
    16de:	9b 2c       	mov	r9, r11
    16e0:	ac 2c       	mov	r10, r12
    16e2:	bd 2c       	mov	r11, r13
    16e4:	ce 2c       	mov	r12, r14
    16e6:	df 2c       	mov	r13, r15
    16e8:	e3 2c       	mov	r14, r3
    16ea:	f1 2e       	mov	r15, r17
    16ec:	04 2d       	mov	r16, r4
    16ee:	15 2d       	mov	r17, r5
    16f0:	26 2d       	mov	r18, r6
    16f2:	3a 85       	ldd	r19, Y+10	; 0x0a
    16f4:	4b 2f       	mov	r20, r27
    16f6:	5a 2f       	mov	r21, r26
    16f8:	6f 2f       	mov	r22, r31
    16fa:	7e 2f       	mov	r23, r30
    16fc:	01 96       	adiw	r24, 0x01	; 1
    16fe:	0e 94 d0 08 	call	0x11a0	; 0x11a0 <f_addsub2>
   signerg= ((flagexd^signa))&1;
    1702:	29 80       	ldd	r2, Y+1	; 0x01
    1704:	27 2d       	mov	r18, r7
    1706:	22 25       	eor	r18, r2
    1708:	21 70       	andi	r18, 0x01	; 1
    170a:	22 2e       	mov	r2, r18
    170c:	0f 90       	pop	r0
    170e:	0f 90       	pop	r0
    1710:	0f 90       	pop	r0
    1712:	1d c0       	rjmp	.+58     	; 0x174e <f_add+0xe2>
 }else{            // eq.   signs
   f_addsub2(x,a,b,1,&flagexd); // calc a+b
    1714:	ce 01       	movw	r24, r28
    1716:	01 96       	adiw	r24, 0x01	; 1
    1718:	9f 93       	push	r25
    171a:	8f 93       	push	r24
    171c:	81 e0       	ldi	r24, 0x01	; 1
    171e:	8f 93       	push	r24
    1720:	8a 2c       	mov	r8, r10
    1722:	9b 2c       	mov	r9, r11
    1724:	ac 2c       	mov	r10, r12
    1726:	bd 2c       	mov	r11, r13
    1728:	ce 2c       	mov	r12, r14
    172a:	df 2c       	mov	r13, r15
    172c:	e3 2c       	mov	r14, r3
    172e:	f1 2e       	mov	r15, r17
    1730:	04 2d       	mov	r16, r4
    1732:	15 2d       	mov	r17, r5
    1734:	26 2d       	mov	r18, r6
    1736:	3a 85       	ldd	r19, Y+10	; 0x0a
    1738:	4b 2f       	mov	r20, r27
    173a:	5a 2f       	mov	r21, r26
    173c:	6f 2f       	mov	r22, r31
    173e:	7e 2f       	mov	r23, r30
    1740:	ce 01       	movw	r24, r28
    1742:	02 96       	adiw	r24, 0x02	; 2
    1744:	0e 94 d0 08 	call	0x11a0	; 0x11a0 <f_addsub2>
    1748:	0f 90       	pop	r0
    174a:	0f 90       	pop	r0
    174c:	0f 90       	pop	r0

/***********************************************************/
static void f_setsign(float64_t * x, int8_t sign)
/***********************************************************/
{
	if(sign)
    174e:	22 20       	and	r2, r2
    1750:	21 f0       	breq	.+8      	; 0x175a <f_add+0xee>
		*x |= 0x8000000000000000;
    1752:	89 85       	ldd	r24, Y+9	; 0x09
    1754:	80 68       	ori	r24, 0x80	; 128
    1756:	89 87       	std	Y+9, r24	; 0x09
    1758:	03 c0       	rjmp	.+6      	; 0x1760 <f_add+0xf4>
	else
		*x &= 0x7fffffffffffffff;
    175a:	89 85       	ldd	r24, Y+9	; 0x09
    175c:	8f 77       	andi	r24, 0x7F	; 127
    175e:	89 87       	std	Y+9, r24	; 0x09
   f_addsub2(x,a,b,1,&flagexd); // calc a+b
   signerg= signa;
 }
 f_setsign(x,signerg);

return(i64);
    1760:	2a 81       	ldd	r18, Y+2	; 0x02
    1762:	3b 81       	ldd	r19, Y+3	; 0x03
    1764:	4c 81       	ldd	r20, Y+4	; 0x04
    1766:	5d 81       	ldd	r21, Y+5	; 0x05
    1768:	6e 81       	ldd	r22, Y+6	; 0x06
    176a:	7f 81       	ldd	r23, Y+7	; 0x07
}
    176c:	88 85       	ldd	r24, Y+8	; 0x08
    176e:	99 85       	ldd	r25, Y+9	; 0x09
    1770:	2a 96       	adiw	r28, 0x0a	; 10
    1772:	cd bf       	out	0x3d, r28	; 61
    1774:	de bf       	out	0x3e, r29	; 62
    1776:	df 91       	pop	r29
    1778:	cf 91       	pop	r28
    177a:	1f 91       	pop	r17
    177c:	0f 91       	pop	r16
    177e:	ff 90       	pop	r15
    1780:	ef 90       	pop	r14
    1782:	df 90       	pop	r13
    1784:	cf 90       	pop	r12
    1786:	bf 90       	pop	r11
    1788:	af 90       	pop	r10
    178a:	9f 90       	pop	r9
    178c:	8f 90       	pop	r8
    178e:	7f 90       	pop	r7
    1790:	6f 90       	pop	r6
    1792:	5f 90       	pop	r5
    1794:	4f 90       	pop	r4
    1796:	3f 90       	pop	r3
    1798:	2f 90       	pop	r2
    179a:	08 95       	ret

0000179c <f_sub>:

/***********************************************************/
float64_t f_sub(float64_t a, float64_t b)
/***********************************************************/
{uint8_t signb;
    179c:	7f 92       	push	r7
    179e:	8f 92       	push	r8
    17a0:	9f 92       	push	r9
    17a2:	af 92       	push	r10
    17a4:	bf 92       	push	r11
    17a6:	cf 92       	push	r12
    17a8:	df 92       	push	r13
    17aa:	ef 92       	push	r14
    17ac:	ff 92       	push	r15
    17ae:	0f 93       	push	r16
    17b0:	1f 93       	push	r17
    17b2:	cf 93       	push	r28
    17b4:	df 93       	push	r29
    17b6:	72 2e       	mov	r7, r18
    17b8:	83 2e       	mov	r8, r19
    17ba:	94 2e       	mov	r9, r20
    17bc:	d5 2f       	mov	r29, r21
    17be:	c6 2f       	mov	r28, r22
    17c0:	b7 2f       	mov	r27, r23
    17c2:	a8 2f       	mov	r26, r24
    17c4:	f9 2f       	mov	r31, r25
    17c6:	e0 2f       	mov	r30, r16

/***********************************************************/
static void f_setsign(float64_t * x, int8_t sign)
/***********************************************************/
{
	if(sign)
    17c8:	2a 2d       	mov	r18, r10
    17ca:	3b 2d       	mov	r19, r11
    17cc:	4c 2d       	mov	r20, r12
    17ce:	5d 2d       	mov	r21, r13
    17d0:	6e 2d       	mov	r22, r14
    17d2:	7f 2d       	mov	r23, r15
    17d4:	80 2f       	mov	r24, r16
    17d6:	91 2f       	mov	r25, r17
    17d8:	0f e3       	ldi	r16, 0x3F	; 63
    17da:	0e 94 22 40 	call	0x8044	; 0x8044 <__lshrdi3>
    17de:	20 fd       	sbrc	r18, 0
    17e0:	03 c0       	rjmp	.+6      	; 0x17e8 <f_sub+0x4c>
		*x |= 0x8000000000000000;
    17e2:	0e 2f       	mov	r16, r30
    17e4:	10 68       	ori	r17, 0x80	; 128
    17e6:	02 c0       	rjmp	.+4      	; 0x17ec <f_sub+0x50>
	else
		*x &= 0x7fffffffffffffff;
    17e8:	0e 2f       	mov	r16, r30
    17ea:	1f 77       	andi	r17, 0x7F	; 127
 uint64_t  i64;

 signb= f_getsign(bloc);
 signb ^= 1;
 f_setsign(&bloc,signb);
 i64=f_add(a,bloc);
    17ec:	27 2d       	mov	r18, r7
    17ee:	38 2d       	mov	r19, r8
    17f0:	49 2d       	mov	r20, r9
    17f2:	5d 2f       	mov	r21, r29
    17f4:	6c 2f       	mov	r22, r28
    17f6:	7b 2f       	mov	r23, r27
    17f8:	8a 2f       	mov	r24, r26
    17fa:	9f 2f       	mov	r25, r31
    17fc:	0e 94 36 0b 	call	0x166c	; 0x166c <f_add>
 return(i64);

}
    1800:	df 91       	pop	r29
    1802:	cf 91       	pop	r28
    1804:	1f 91       	pop	r17
    1806:	0f 91       	pop	r16
    1808:	ff 90       	pop	r15
    180a:	ef 90       	pop	r14
    180c:	df 90       	pop	r13
    180e:	cf 90       	pop	r12
    1810:	bf 90       	pop	r11
    1812:	af 90       	pop	r10
    1814:	9f 90       	pop	r9
    1816:	8f 90       	pop	r8
    1818:	7f 90       	pop	r7
    181a:	08 95       	ret

0000181c <f_mult>:

/***********************************************************/
float64_t f_mult(float64_t fa, float64_t fb)
/***********************************************************/
{ //multiply doubles
    181c:	af 92       	push	r10
    181e:	bf 92       	push	r11
    1820:	cf 92       	push	r12
    1822:	df 92       	push	r13
    1824:	ef 92       	push	r14
    1826:	ff 92       	push	r15
    1828:	0f 93       	push	r16
    182a:	1f 93       	push	r17
    182c:	cf 93       	push	r28
    182e:	df 93       	push	r29
    1830:	cd b7       	in	r28, 0x3d	; 61
    1832:	de b7       	in	r29, 0x3e	; 62
    1834:	a6 97       	sbiw	r28, 0x26	; 38
    1836:	cd bf       	out	0x3d, r28	; 61
    1838:	de bf       	out	0x3e, r29	; 62
    183a:	2f 8b       	std	Y+23, r18	; 0x17
    183c:	38 8f       	std	Y+24, r19	; 0x18
    183e:	49 8f       	std	Y+25, r20	; 0x19
    1840:	5a 8f       	std	Y+26, r21	; 0x1a
    1842:	6b 8f       	std	Y+27, r22	; 0x1b
    1844:	7c 8f       	std	Y+28, r23	; 0x1c
    1846:	8d 8f       	std	Y+29, r24	; 0x1d
    1848:	9e 8f       	std	Y+30, r25	; 0x1e
    184a:	af 8e       	std	Y+31, r10	; 0x1f
    184c:	b8 a2       	std	Y+32, r11	; 0x20
    184e:	c9 a2       	std	Y+33, r12	; 0x21
    1850:	da a2       	std	Y+34, r13	; 0x22
    1852:	eb a2       	std	Y+35, r14	; 0x23
    1854:	fc a2       	std	Y+36, r15	; 0x24
    1856:	0d a3       	std	Y+37, r16	; 0x25
    1858:	1e a3       	std	Y+38, r17	; 0x26
  uint8_t  asig,bsig;
  int16_t aex,bex;
  uint64_t am, bm;

  f_split64(&fa,&asig,&aex,&am, 11);
    185a:	0b e0       	ldi	r16, 0x0B	; 11
    185c:	9e 01       	movw	r18, r28
    185e:	29 5f       	subi	r18, 0xF9	; 249
    1860:	3f 4f       	sbci	r19, 0xFF	; 255
    1862:	ae 01       	movw	r20, r28
    1864:	4d 5f       	subi	r20, 0xFD	; 253
    1866:	5f 4f       	sbci	r21, 0xFF	; 255
    1868:	be 01       	movw	r22, r28
    186a:	6f 5f       	subi	r22, 0xFF	; 255
    186c:	7f 4f       	sbci	r23, 0xFF	; 255
    186e:	ce 01       	movw	r24, r28
    1870:	47 96       	adiw	r24, 0x17	; 23
    1872:	0e 94 0d 02 	call	0x41a	; 0x41a <f_split64>
  f_split64(&fb,&bsig,&bex,&bm, 11);
    1876:	9e 01       	movw	r18, r28
    1878:	21 5f       	subi	r18, 0xF1	; 241
    187a:	3f 4f       	sbci	r19, 0xFF	; 255
    187c:	ae 01       	movw	r20, r28
    187e:	4b 5f       	subi	r20, 0xFB	; 251
    1880:	5f 4f       	sbci	r21, 0xFF	; 255
    1882:	be 01       	movw	r22, r28
    1884:	6e 5f       	subi	r22, 0xFE	; 254
    1886:	7f 4f       	sbci	r23, 0xFF	; 255
    1888:	ce 01       	movw	r24, r28
    188a:	4f 96       	adiw	r24, 0x1f	; 31
    188c:	0e 94 0d 02 	call	0x41a	; 0x41a <f_split64>

#ifdef F_ONLY_NAN_NO_INFINITY
  if(2047==aex || 2047==bex)
		return float64_ONE_POSSIBLE_NAN_REPRESENTATION;
#else
  if(2047==aex) // a ist ein NaN oder +INF oder -INF
    1890:	eb 81       	ldd	r30, Y+3	; 0x03
    1892:	fc 81       	ldd	r31, Y+4	; 0x04
    1894:	ef 3f       	cpi	r30, 0xFF	; 255
    1896:	27 e0       	ldi	r18, 0x07	; 7
    1898:	f2 07       	cpc	r31, r18
    189a:	21 f5       	brne	.+72     	; 0x18e4 <f_mult+0xc8>
	{
		if(0!=am || (2047==bex && 0!=bm) || 0==bex)
    189c:	2f 81       	ldd	r18, Y+7	; 0x07
    189e:	38 85       	ldd	r19, Y+8	; 0x08
    18a0:	49 85       	ldd	r20, Y+9	; 0x09
    18a2:	5a 85       	ldd	r21, Y+10	; 0x0a
    18a4:	6b 85       	ldd	r22, Y+11	; 0x0b
    18a6:	7c 85       	ldd	r23, Y+12	; 0x0c
    18a8:	8d 85       	ldd	r24, Y+13	; 0x0d
    18aa:	9e 85       	ldd	r25, Y+14	; 0x0e
    18ac:	a0 e0       	ldi	r26, 0x00	; 0
    18ae:	0e 94 65 40 	call	0x80ca	; 0x80ca <__cmpdi2_s8>
    18b2:	09 f0       	breq	.+2      	; 0x18b6 <f_mult+0x9a>
    18b4:	6c c0       	rjmp	.+216    	; 0x198e <f_mult+0x172>
    18b6:	8d 81       	ldd	r24, Y+5	; 0x05
    18b8:	9e 81       	ldd	r25, Y+6	; 0x06
    18ba:	8f 3f       	cpi	r24, 0xFF	; 255
    18bc:	27 e0       	ldi	r18, 0x07	; 7
    18be:	92 07       	cpc	r25, r18
    18c0:	69 f4       	brne	.+26     	; 0x18dc <f_mult+0xc0>
    18c2:	2f 85       	ldd	r18, Y+15	; 0x0f
    18c4:	38 89       	ldd	r19, Y+16	; 0x10
    18c6:	49 89       	ldd	r20, Y+17	; 0x11
    18c8:	5a 89       	ldd	r21, Y+18	; 0x12
    18ca:	6b 89       	ldd	r22, Y+19	; 0x13
    18cc:	7c 89       	ldd	r23, Y+20	; 0x14
    18ce:	8d 89       	ldd	r24, Y+21	; 0x15
    18d0:	9e 89       	ldd	r25, Y+22	; 0x16
    18d2:	0e 94 65 40 	call	0x80ca	; 0x80ca <__cmpdi2_s8>
    18d6:	09 f0       	breq	.+2      	; 0x18da <f_mult+0xbe>
    18d8:	63 c0       	rjmp	.+198    	; 0x19a0 <f_mult+0x184>
    18da:	43 c0       	rjmp	.+134    	; 0x1962 <f_mult+0x146>
    18dc:	89 2b       	or	r24, r25
    18de:	09 f4       	brne	.+2      	; 0x18e2 <f_mult+0xc6>
    18e0:	68 c0       	rjmp	.+208    	; 0x19b2 <f_mult+0x196>
    18e2:	3f c0       	rjmp	.+126    	; 0x1962 <f_mult+0x146>
			return float64_ONE_POSSIBLE_NAN_REPRESENTATION; // Auch +/-INF * Null ergibt NaN
		// (+/- INF) * (+/- INF) oder (+/- INF) * endliche Zahl auer Null ergibt +/-INF
	}
	else if(2047==bex)
    18e4:	8d 81       	ldd	r24, Y+5	; 0x05
    18e6:	9e 81       	ldd	r25, Y+6	; 0x06
    18e8:	8f 3f       	cpi	r24, 0xFF	; 255
    18ea:	27 e0       	ldi	r18, 0x07	; 7
    18ec:	92 07       	cpc	r25, r18
    18ee:	e9 f4       	brne	.+58     	; 0x192a <f_mult+0x10e>
	{
		if(0!=bm || 0==aex)
    18f0:	2f 85       	ldd	r18, Y+15	; 0x0f
    18f2:	38 89       	ldd	r19, Y+16	; 0x10
    18f4:	49 89       	ldd	r20, Y+17	; 0x11
    18f6:	5a 89       	ldd	r21, Y+18	; 0x12
    18f8:	6b 89       	ldd	r22, Y+19	; 0x13
    18fa:	7c 89       	ldd	r23, Y+20	; 0x14
    18fc:	8d 89       	ldd	r24, Y+21	; 0x15
    18fe:	9e 89       	ldd	r25, Y+22	; 0x16
    1900:	a0 e0       	ldi	r26, 0x00	; 0
    1902:	0e 94 65 40 	call	0x80ca	; 0x80ca <__cmpdi2_s8>
    1906:	09 f0       	breq	.+2      	; 0x190a <f_mult+0xee>
    1908:	5d c0       	rjmp	.+186    	; 0x19c4 <f_mult+0x1a8>
    190a:	ef 2b       	or	r30, r31
    190c:	09 f4       	brne	.+2      	; 0x1910 <f_mult+0xf4>
    190e:	63 c0       	rjmp	.+198    	; 0x19d6 <f_mult+0x1ba>
			return float64_ONE_POSSIBLE_NAN_REPRESENTATION;
		aex=bex; am=bm;
    1910:	8f ef       	ldi	r24, 0xFF	; 255
    1912:	97 e0       	ldi	r25, 0x07	; 7
    1914:	8b 83       	std	Y+3, r24	; 0x03
    1916:	9c 83       	std	Y+4, r25	; 0x04
    1918:	1f 82       	std	Y+7, r1	; 0x07
    191a:	18 86       	std	Y+8, r1	; 0x08
    191c:	19 86       	std	Y+9, r1	; 0x09
    191e:	1a 86       	std	Y+10, r1	; 0x0a
    1920:	1b 86       	std	Y+11, r1	; 0x0b
    1922:	1c 86       	std	Y+12, r1	; 0x0c
    1924:	1d 86       	std	Y+13, r1	; 0x0d
    1926:	1e 86       	std	Y+14, r1	; 0x0e
    1928:	1c c0       	rjmp	.+56     	; 0x1962 <f_mult+0x146>
	}
#endif
  else if(!aex || !bex)  // gendert von Florian Knigstein: Alle denormalisierten Zahlen werden als Null interpretiert.
    192a:	30 97       	sbiw	r30, 0x00	; 0
    192c:	09 f4       	brne	.+2      	; 0x1930 <f_mult+0x114>
    192e:	5c c0       	rjmp	.+184    	; 0x19e8 <f_mult+0x1cc>
    1930:	00 97       	sbiw	r24, 0x00	; 0
    1932:	09 f4       	brne	.+2      	; 0x1936 <f_mult+0x11a>
    1934:	62 c0       	rjmp	.+196    	; 0x19fa <f_mult+0x1de>
  { // 0
      return float64_NUMBER_PLUS_ZERO;
  }else{
	  aex=aex+bex-(0x3ff+10);
    1936:	e8 0f       	add	r30, r24
    1938:	f9 1f       	adc	r31, r25
    193a:	e9 50       	subi	r30, 0x09	; 9
    193c:	f4 40       	sbci	r31, 0x04	; 4
    193e:	eb 83       	std	Y+3, r30	; 0x03
    1940:	fc 83       	std	Y+4, r31	; 0x04
	  am=approx_high_uint64_word_of_uint64_mult_uint64(&am, &bm, 0);
    1942:	40 e0       	ldi	r20, 0x00	; 0
    1944:	be 01       	movw	r22, r28
    1946:	61 5f       	subi	r22, 0xF1	; 241
    1948:	7f 4f       	sbci	r23, 0xFF	; 255
    194a:	ce 01       	movw	r24, r28
    194c:	07 96       	adiw	r24, 0x07	; 7
    194e:	0e 94 4f 05 	call	0xa9e	; 0xa9e <approx_high_uint64_word_of_uint64_mult_uint64>
    1952:	2f 83       	std	Y+7, r18	; 0x07
    1954:	38 87       	std	Y+8, r19	; 0x08
    1956:	49 87       	std	Y+9, r20	; 0x09
    1958:	5a 87       	std	Y+10, r21	; 0x0a
    195a:	6b 87       	std	Y+11, r22	; 0x0b
    195c:	7c 87       	std	Y+12, r23	; 0x0c
    195e:	8d 87       	std	Y+13, r24	; 0x0d
    1960:	9e 87       	std	Y+14, r25	; 0x0e
  }
  asig ^= bsig;
    1962:	69 81       	ldd	r22, Y+1	; 0x01
    1964:	8a 81       	ldd	r24, Y+2	; 0x02
    1966:	68 27       	eor	r22, r24
    1968:	69 83       	std	Y+1, r22	; 0x01
  f_combi_from_fixpoint(&fa, asig, aex, &am); // Hier darf von aex nichts subtrahiert werden, damit
    196a:	4b 81       	ldd	r20, Y+3	; 0x03
    196c:	5c 81       	ldd	r21, Y+4	; 0x04
    196e:	9e 01       	movw	r18, r28
    1970:	29 5f       	subi	r18, 0xF9	; 249
    1972:	3f 4f       	sbci	r19, 0xFF	; 255
    1974:	ce 01       	movw	r24, r28
    1976:	47 96       	adiw	r24, 0x17	; 23
    1978:	0e 94 b5 02 	call	0x56a	; 0x56a <f_combi_from_fixpoint>
	// auch aex==2047 (INF, NaN) nicht verflscht wird.
  return fa;
    197c:	2f 89       	ldd	r18, Y+23	; 0x17
    197e:	38 8d       	ldd	r19, Y+24	; 0x18
    1980:	49 8d       	ldd	r20, Y+25	; 0x19
    1982:	5a 8d       	ldd	r21, Y+26	; 0x1a
    1984:	6b 8d       	ldd	r22, Y+27	; 0x1b
    1986:	7c 8d       	ldd	r23, Y+28	; 0x1c
    1988:	8d 8d       	ldd	r24, Y+29	; 0x1d
    198a:	9e 8d       	ldd	r25, Y+30	; 0x1e
    198c:	3e c0       	rjmp	.+124    	; 0x1a0a <f_mult+0x1ee>
		return float64_ONE_POSSIBLE_NAN_REPRESENTATION;
#else
  if(2047==aex) // a ist ein NaN oder +INF oder -INF
	{
		if(0!=am || (2047==bex && 0!=bm) || 0==bex)
			return float64_ONE_POSSIBLE_NAN_REPRESENTATION; // Auch +/-INF * Null ergibt NaN
    198e:	2f ef       	ldi	r18, 0xFF	; 255
    1990:	3f ef       	ldi	r19, 0xFF	; 255
    1992:	4f ef       	ldi	r20, 0xFF	; 255
    1994:	5f ef       	ldi	r21, 0xFF	; 255
    1996:	6f ef       	ldi	r22, 0xFF	; 255
    1998:	7f ef       	ldi	r23, 0xFF	; 255
    199a:	8f ef       	ldi	r24, 0xFF	; 255
    199c:	9f e7       	ldi	r25, 0x7F	; 127
    199e:	35 c0       	rjmp	.+106    	; 0x1a0a <f_mult+0x1ee>
    19a0:	2f ef       	ldi	r18, 0xFF	; 255
    19a2:	3f ef       	ldi	r19, 0xFF	; 255
    19a4:	4f ef       	ldi	r20, 0xFF	; 255
    19a6:	5f ef       	ldi	r21, 0xFF	; 255
    19a8:	6f ef       	ldi	r22, 0xFF	; 255
    19aa:	7f ef       	ldi	r23, 0xFF	; 255
    19ac:	8f ef       	ldi	r24, 0xFF	; 255
    19ae:	9f e7       	ldi	r25, 0x7F	; 127
    19b0:	2c c0       	rjmp	.+88     	; 0x1a0a <f_mult+0x1ee>
    19b2:	2f ef       	ldi	r18, 0xFF	; 255
    19b4:	3f ef       	ldi	r19, 0xFF	; 255
    19b6:	4f ef       	ldi	r20, 0xFF	; 255
    19b8:	5f ef       	ldi	r21, 0xFF	; 255
    19ba:	6f ef       	ldi	r22, 0xFF	; 255
    19bc:	7f ef       	ldi	r23, 0xFF	; 255
    19be:	8f ef       	ldi	r24, 0xFF	; 255
    19c0:	9f e7       	ldi	r25, 0x7F	; 127
    19c2:	23 c0       	rjmp	.+70     	; 0x1a0a <f_mult+0x1ee>
		// (+/- INF) * (+/- INF) oder (+/- INF) * endliche Zahl auer Null ergibt +/-INF
	}
	else if(2047==bex)
	{
		if(0!=bm || 0==aex)
			return float64_ONE_POSSIBLE_NAN_REPRESENTATION;
    19c4:	2f ef       	ldi	r18, 0xFF	; 255
    19c6:	3f ef       	ldi	r19, 0xFF	; 255
    19c8:	4f ef       	ldi	r20, 0xFF	; 255
    19ca:	5f ef       	ldi	r21, 0xFF	; 255
    19cc:	6f ef       	ldi	r22, 0xFF	; 255
    19ce:	7f ef       	ldi	r23, 0xFF	; 255
    19d0:	8f ef       	ldi	r24, 0xFF	; 255
    19d2:	9f e7       	ldi	r25, 0x7F	; 127
    19d4:	1a c0       	rjmp	.+52     	; 0x1a0a <f_mult+0x1ee>
    19d6:	2f ef       	ldi	r18, 0xFF	; 255
    19d8:	3f ef       	ldi	r19, 0xFF	; 255
    19da:	4f ef       	ldi	r20, 0xFF	; 255
    19dc:	5f ef       	ldi	r21, 0xFF	; 255
    19de:	6f ef       	ldi	r22, 0xFF	; 255
    19e0:	7f ef       	ldi	r23, 0xFF	; 255
    19e2:	8f ef       	ldi	r24, 0xFF	; 255
    19e4:	9f e7       	ldi	r25, 0x7F	; 127
    19e6:	11 c0       	rjmp	.+34     	; 0x1a0a <f_mult+0x1ee>
		aex=bex; am=bm;
	}
#endif
  else if(!aex || !bex)  // gendert von Florian Knigstein: Alle denormalisierten Zahlen werden als Null interpretiert.
  { // 0
      return float64_NUMBER_PLUS_ZERO;
    19e8:	20 e0       	ldi	r18, 0x00	; 0
    19ea:	30 e0       	ldi	r19, 0x00	; 0
    19ec:	40 e0       	ldi	r20, 0x00	; 0
    19ee:	50 e0       	ldi	r21, 0x00	; 0
    19f0:	60 e0       	ldi	r22, 0x00	; 0
    19f2:	70 e0       	ldi	r23, 0x00	; 0
    19f4:	80 e0       	ldi	r24, 0x00	; 0
    19f6:	90 e0       	ldi	r25, 0x00	; 0
    19f8:	08 c0       	rjmp	.+16     	; 0x1a0a <f_mult+0x1ee>
    19fa:	20 e0       	ldi	r18, 0x00	; 0
    19fc:	30 e0       	ldi	r19, 0x00	; 0
    19fe:	40 e0       	ldi	r20, 0x00	; 0
    1a00:	50 e0       	ldi	r21, 0x00	; 0
    1a02:	60 e0       	ldi	r22, 0x00	; 0
    1a04:	70 e0       	ldi	r23, 0x00	; 0
    1a06:	80 e0       	ldi	r24, 0x00	; 0
    1a08:	90 e0       	ldi	r25, 0x00	; 0
  }
  asig ^= bsig;
  f_combi_from_fixpoint(&fa, asig, aex, &am); // Hier darf von aex nichts subtrahiert werden, damit
	// auch aex==2047 (INF, NaN) nicht verflscht wird.
  return fa;
}
    1a0a:	a6 96       	adiw	r28, 0x26	; 38
    1a0c:	cd bf       	out	0x3d, r28	; 61
    1a0e:	de bf       	out	0x3e, r29	; 62
    1a10:	df 91       	pop	r29
    1a12:	cf 91       	pop	r28
    1a14:	1f 91       	pop	r17
    1a16:	0f 91       	pop	r16
    1a18:	ff 90       	pop	r15
    1a1a:	ef 90       	pop	r14
    1a1c:	df 90       	pop	r13
    1a1e:	cf 90       	pop	r12
    1a20:	bf 90       	pop	r11
    1a22:	af 90       	pop	r10
    1a24:	08 95       	ret

00001a26 <f_div>:

/***********************************************************/
float64_t f_div(float64_t x, float64_t y)
/***********************************************************/
{
    1a26:	af 92       	push	r10
    1a28:	bf 92       	push	r11
    1a2a:	cf 92       	push	r12
    1a2c:	df 92       	push	r13
    1a2e:	ef 92       	push	r14
    1a30:	ff 92       	push	r15
    1a32:	0f 93       	push	r16
    1a34:	1f 93       	push	r17
    1a36:	cf 93       	push	r28
    1a38:	df 93       	push	r29
    1a3a:	cd b7       	in	r28, 0x3d	; 61
    1a3c:	de b7       	in	r29, 0x3e	; 62
    1a3e:	e6 97       	sbiw	r28, 0x36	; 54
    1a40:	cd bf       	out	0x3d, r28	; 61
    1a42:	de bf       	out	0x3e, r29	; 62
    1a44:	2f a3       	std	Y+39, r18	; 0x27
    1a46:	38 a7       	std	Y+40, r19	; 0x28
    1a48:	49 a7       	std	Y+41, r20	; 0x29
    1a4a:	5a a7       	std	Y+42, r21	; 0x2a
    1a4c:	6b a7       	std	Y+43, r22	; 0x2b
    1a4e:	7c a7       	std	Y+44, r23	; 0x2c
    1a50:	8d a7       	std	Y+45, r24	; 0x2d
    1a52:	9e a7       	std	Y+46, r25	; 0x2e
    1a54:	af a6       	std	Y+47, r10	; 0x2f
    1a56:	b8 aa       	std	Y+48, r11	; 0x30
    1a58:	c9 aa       	std	Y+49, r12	; 0x31
    1a5a:	da aa       	std	Y+50, r13	; 0x32
    1a5c:	eb aa       	std	Y+51, r14	; 0x33
    1a5e:	fc aa       	std	Y+52, r15	; 0x34
    1a60:	0d ab       	std	Y+53, r16	; 0x35
    1a62:	1e ab       	std	Y+54, r17	; 0x36
	uint8_t  xsig, ysig;
	int16_t xex, yex;
	uint64_t xm, ym, i64;

	f_split64(&x,&xsig,&xex,&xm, 11);
    1a64:	0b e0       	ldi	r16, 0x0B	; 11
    1a66:	9e 01       	movw	r18, r28
    1a68:	29 5f       	subi	r18, 0xF9	; 249
    1a6a:	3f 4f       	sbci	r19, 0xFF	; 255
    1a6c:	ae 01       	movw	r20, r28
    1a6e:	4d 5f       	subi	r20, 0xFD	; 253
    1a70:	5f 4f       	sbci	r21, 0xFF	; 255
    1a72:	be 01       	movw	r22, r28
    1a74:	6f 5f       	subi	r22, 0xFF	; 255
    1a76:	7f 4f       	sbci	r23, 0xFF	; 255
    1a78:	ce 01       	movw	r24, r28
    1a7a:	87 96       	adiw	r24, 0x27	; 39
    1a7c:	0e 94 0d 02 	call	0x41a	; 0x41a <f_split64>
	f_split64(&y,&ysig,&yex,&ym, 11);
    1a80:	9e 01       	movw	r18, r28
    1a82:	21 5f       	subi	r18, 0xF1	; 241
    1a84:	3f 4f       	sbci	r19, 0xFF	; 255
    1a86:	ae 01       	movw	r20, r28
    1a88:	4b 5f       	subi	r20, 0xFB	; 251
    1a8a:	5f 4f       	sbci	r21, 0xFF	; 255
    1a8c:	be 01       	movw	r22, r28
    1a8e:	6e 5f       	subi	r22, 0xFE	; 254
    1a90:	7f 4f       	sbci	r23, 0xFF	; 255
    1a92:	ce 01       	movw	r24, r28
    1a94:	8f 96       	adiw	r24, 0x2f	; 47
    1a96:	0e 94 0d 02 	call	0x41a	; 0x41a <f_split64>
#ifdef F_ONLY_NAN_NO_INFINITY
	if(2047==xex || 2047==yex || 0==yex)
		return float64_ONE_POSSIBLE_NAN_REPRESENTATION;
#else
	if(0==yex) { // divide by 0 wont work  . Gendert von Florian Knigstein: Alle denormalisierten Zahlen werden als Null interpretiert.
    1a9a:	0d 81       	ldd	r16, Y+5	; 0x05
    1a9c:	1e 81       	ldd	r17, Y+6	; 0x06
    1a9e:	01 15       	cp	r16, r1
    1aa0:	11 05       	cpc	r17, r1
    1aa2:	09 f4       	brne	.+2      	; 0x1aa6 <f_div+0x80>
    1aa4:	82 c0       	rjmp	.+260    	; 0x1baa <f_div+0x184>
		return float64_ONE_POSSIBLE_NAN_REPRESENTATION;
	}
	else if(2047==xex) // x ist ein NaN oder +INF oder -INF
    1aa6:	eb 80       	ldd	r14, Y+3	; 0x03
    1aa8:	fc 80       	ldd	r15, Y+4	; 0x04
    1aaa:	8f ef       	ldi	r24, 0xFF	; 255
    1aac:	e8 16       	cp	r14, r24
    1aae:	87 e0       	ldi	r24, 0x07	; 7
    1ab0:	f8 06       	cpc	r15, r24
    1ab2:	f1 f4       	brne	.+60     	; 0x1af0 <f_div+0xca>
	{
		if(0!=xm || 2047==yex)
    1ab4:	2f 81       	ldd	r18, Y+7	; 0x07
    1ab6:	38 85       	ldd	r19, Y+8	; 0x08
    1ab8:	49 85       	ldd	r20, Y+9	; 0x09
    1aba:	5a 85       	ldd	r21, Y+10	; 0x0a
    1abc:	6b 85       	ldd	r22, Y+11	; 0x0b
    1abe:	7c 85       	ldd	r23, Y+12	; 0x0c
    1ac0:	8d 85       	ldd	r24, Y+13	; 0x0d
    1ac2:	9e 85       	ldd	r25, Y+14	; 0x0e
    1ac4:	a0 e0       	ldi	r26, 0x00	; 0
    1ac6:	0e 94 65 40 	call	0x80ca	; 0x80ca <__cmpdi2_s8>
    1aca:	09 f0       	breq	.+2      	; 0x1ace <f_div+0xa8>
    1acc:	7a c0       	rjmp	.+244    	; 0x1bc2 <f_div+0x19c>
    1ace:	0f 3f       	cpi	r16, 0xFF	; 255
    1ad0:	17 40       	sbci	r17, 0x07	; 7
    1ad2:	09 f4       	brne	.+2      	; 0x1ad6 <f_div+0xb0>
    1ad4:	82 c0       	rjmp	.+260    	; 0x1bda <f_div+0x1b4>
			return float64_ONE_POSSIBLE_NAN_REPRESENTATION;
		// Ansonsten: (+/- INF) / (endliche Zahl auer Null)
		return (xsig^ysig) ? float64_MINUS_INFINITY : float64_PLUS_INFINITY;
    1ad6:	99 81       	ldd	r25, Y+1	; 0x01
    1ad8:	8a 81       	ldd	r24, Y+2	; 0x02
    1ada:	98 13       	cpse	r25, r24
    1adc:	8a c0       	rjmp	.+276    	; 0x1bf2 <f_div+0x1cc>
    1ade:	d1 2c       	mov	r13, r1
    1ae0:	e1 2c       	mov	r14, r1
    1ae2:	f1 2c       	mov	r15, r1
    1ae4:	00 e0       	ldi	r16, 0x00	; 0
    1ae6:	10 e0       	ldi	r17, 0x00	; 0
    1ae8:	b0 e0       	ldi	r27, 0x00	; 0
    1aea:	f0 ef       	ldi	r31, 0xF0	; 240
    1aec:	ef e7       	ldi	r30, 0x7F	; 127
    1aee:	89 c0       	rjmp	.+274    	; 0x1c02 <f_div+0x1dc>
	}
	else if(2047==yex) // x ist ein NaN oder +INF oder -INF
    1af0:	0f 3f       	cpi	r16, 0xFF	; 255
    1af2:	87 e0       	ldi	r24, 0x07	; 7
    1af4:	18 07       	cpc	r17, r24
    1af6:	09 f5       	brne	.+66     	; 0x1b3a <f_div+0x114>
	{
		if(0==ym) // endliche Zahl / INF = Null
    1af8:	df 84       	ldd	r13, Y+15	; 0x0f
    1afa:	e8 88       	ldd	r14, Y+16	; 0x10
    1afc:	f9 88       	ldd	r15, Y+17	; 0x11
    1afe:	0a 89       	ldd	r16, Y+18	; 0x12
    1b00:	1b 89       	ldd	r17, Y+19	; 0x13
    1b02:	bc 89       	ldd	r27, Y+20	; 0x14
    1b04:	fd 89       	ldd	r31, Y+21	; 0x15
    1b06:	ee 89       	ldd	r30, Y+22	; 0x16
    1b08:	2d 2d       	mov	r18, r13
    1b0a:	3e 2d       	mov	r19, r14
    1b0c:	4f 2d       	mov	r20, r15
    1b0e:	50 2f       	mov	r21, r16
    1b10:	61 2f       	mov	r22, r17
    1b12:	7b 2f       	mov	r23, r27
    1b14:	8f 2f       	mov	r24, r31
    1b16:	9e 2f       	mov	r25, r30
    1b18:	a0 e0       	ldi	r26, 0x00	; 0
    1b1a:	0e 94 65 40 	call	0x80ca	; 0x80ca <__cmpdi2_s8>
    1b1e:	09 f4       	brne	.+2      	; 0x1b22 <f_div+0xfc>
    1b20:	70 c0       	rjmp	.+224    	; 0x1c02 <f_div+0x1dc>
			return float64_NUMBER_PLUS_ZERO;
		return float64_ONE_POSSIBLE_NAN_REPRESENTATION;
    1b22:	dd 24       	eor	r13, r13
    1b24:	da 94       	dec	r13
    1b26:	ee 24       	eor	r14, r14
    1b28:	ea 94       	dec	r14
    1b2a:	ff 24       	eor	r15, r15
    1b2c:	fa 94       	dec	r15
    1b2e:	0f ef       	ldi	r16, 0xFF	; 255
    1b30:	1f ef       	ldi	r17, 0xFF	; 255
    1b32:	bf ef       	ldi	r27, 0xFF	; 255
    1b34:	ff ef       	ldi	r31, 0xFF	; 255
    1b36:	ef e7       	ldi	r30, 0x7F	; 127
    1b38:	64 c0       	rjmp	.+200    	; 0x1c02 <f_div+0x1dc>
	}
#endif
	else
	{
		i64=approx_high_uint64_word_of_uint64_mult_uint64_pbv_y(&xm, approx_inverse_of_fixpoint_uint64(&ym), 0);
    1b3a:	ce 01       	movw	r24, r28
    1b3c:	0f 96       	adiw	r24, 0x0f	; 15
    1b3e:	0e 94 9d 06 	call	0xd3a	; 0xd3a <approx_inverse_of_fixpoint_uint64>
    1b42:	2f 8f       	std	Y+31, r18	; 0x1f
    1b44:	38 a3       	std	Y+32, r19	; 0x20
    1b46:	49 a3       	std	Y+33, r20	; 0x21
    1b48:	5a a3       	std	Y+34, r21	; 0x22
    1b4a:	6b a3       	std	Y+35, r22	; 0x23
    1b4c:	7c a3       	std	Y+36, r23	; 0x24
    1b4e:	8d a3       	std	Y+37, r24	; 0x25
    1b50:	9e a3       	std	Y+38, r25	; 0x26
	return r;
}

static uint64_t approx_high_uint64_word_of_uint64_mult_uint64_pbv_y(uint64_t *x, uint64_t y, uint8_t signed_mult)
{
	return approx_high_uint64_word_of_uint64_mult_uint64(x, &y, signed_mult);
    1b52:	40 e0       	ldi	r20, 0x00	; 0
    1b54:	be 01       	movw	r22, r28
    1b56:	61 5e       	subi	r22, 0xE1	; 225
    1b58:	7f 4f       	sbci	r23, 0xFF	; 255
    1b5a:	ce 01       	movw	r24, r28
    1b5c:	07 96       	adiw	r24, 0x07	; 7
    1b5e:	0e 94 4f 05 	call	0xa9e	; 0xa9e <approx_high_uint64_word_of_uint64_mult_uint64>
		return float64_ONE_POSSIBLE_NAN_REPRESENTATION;
	}
#endif
	else
	{
		i64=approx_high_uint64_word_of_uint64_mult_uint64_pbv_y(&xm, approx_inverse_of_fixpoint_uint64(&ym), 0);
    1b62:	2f 8b       	std	Y+23, r18	; 0x17
    1b64:	38 8f       	std	Y+24, r19	; 0x18
    1b66:	49 8f       	std	Y+25, r20	; 0x19
    1b68:	5a 8f       	std	Y+26, r21	; 0x1a
    1b6a:	6b 8f       	std	Y+27, r22	; 0x1b
    1b6c:	7c 8f       	std	Y+28, r23	; 0x1c
    1b6e:	8d 8f       	std	Y+29, r24	; 0x1d
    1b70:	9e 8f       	std	Y+30, r25	; 0x1e
		xex += 1023-yex;
    1b72:	a7 01       	movw	r20, r14
    1b74:	40 1b       	sub	r20, r16
    1b76:	51 0b       	sbc	r21, r17
    1b78:	41 50       	subi	r20, 0x01	; 1
    1b7a:	5c 4f       	sbci	r21, 0xFC	; 252
    1b7c:	4b 83       	std	Y+3, r20	; 0x03
    1b7e:	5c 83       	std	Y+4, r21	; 0x04
	}
	f_combi_from_fixpoint(&x, xsig^ysig, xex-10, &i64);
    1b80:	4a 50       	subi	r20, 0x0A	; 10
    1b82:	51 09       	sbc	r21, r1
    1b84:	69 81       	ldd	r22, Y+1	; 0x01
    1b86:	8a 81       	ldd	r24, Y+2	; 0x02
    1b88:	68 27       	eor	r22, r24
    1b8a:	9e 01       	movw	r18, r28
    1b8c:	29 5e       	subi	r18, 0xE9	; 233
    1b8e:	3f 4f       	sbci	r19, 0xFF	; 255
    1b90:	ce 01       	movw	r24, r28
    1b92:	87 96       	adiw	r24, 0x27	; 39
    1b94:	0e 94 b5 02 	call	0x56a	; 0x56a <f_combi_from_fixpoint>
	return x;
    1b98:	df a0       	ldd	r13, Y+39	; 0x27
    1b9a:	e8 a4       	ldd	r14, Y+40	; 0x28
    1b9c:	f9 a4       	ldd	r15, Y+41	; 0x29
    1b9e:	0a a5       	ldd	r16, Y+42	; 0x2a
    1ba0:	1b a5       	ldd	r17, Y+43	; 0x2b
    1ba2:	bc a5       	ldd	r27, Y+44	; 0x2c
    1ba4:	fd a5       	ldd	r31, Y+45	; 0x2d
    1ba6:	ee a5       	ldd	r30, Y+46	; 0x2e
    1ba8:	2c c0       	rjmp	.+88     	; 0x1c02 <f_div+0x1dc>
#ifdef F_ONLY_NAN_NO_INFINITY
	if(2047==xex || 2047==yex || 0==yex)
		return float64_ONE_POSSIBLE_NAN_REPRESENTATION;
#else
	if(0==yex) { // divide by 0 wont work  . Gendert von Florian Knigstein: Alle denormalisierten Zahlen werden als Null interpretiert.
		return float64_ONE_POSSIBLE_NAN_REPRESENTATION;
    1baa:	dd 24       	eor	r13, r13
    1bac:	da 94       	dec	r13
    1bae:	ee 24       	eor	r14, r14
    1bb0:	ea 94       	dec	r14
    1bb2:	ff 24       	eor	r15, r15
    1bb4:	fa 94       	dec	r15
    1bb6:	0f ef       	ldi	r16, 0xFF	; 255
    1bb8:	1f ef       	ldi	r17, 0xFF	; 255
    1bba:	bf ef       	ldi	r27, 0xFF	; 255
    1bbc:	ff ef       	ldi	r31, 0xFF	; 255
    1bbe:	ef e7       	ldi	r30, 0x7F	; 127
    1bc0:	20 c0       	rjmp	.+64     	; 0x1c02 <f_div+0x1dc>
	}
	else if(2047==xex) // x ist ein NaN oder +INF oder -INF
	{
		if(0!=xm || 2047==yex)
			return float64_ONE_POSSIBLE_NAN_REPRESENTATION;
    1bc2:	dd 24       	eor	r13, r13
    1bc4:	da 94       	dec	r13
    1bc6:	ee 24       	eor	r14, r14
    1bc8:	ea 94       	dec	r14
    1bca:	ff 24       	eor	r15, r15
    1bcc:	fa 94       	dec	r15
    1bce:	0f ef       	ldi	r16, 0xFF	; 255
    1bd0:	1f ef       	ldi	r17, 0xFF	; 255
    1bd2:	bf ef       	ldi	r27, 0xFF	; 255
    1bd4:	ff ef       	ldi	r31, 0xFF	; 255
    1bd6:	ef e7       	ldi	r30, 0x7F	; 127
    1bd8:	14 c0       	rjmp	.+40     	; 0x1c02 <f_div+0x1dc>
    1bda:	dd 24       	eor	r13, r13
    1bdc:	da 94       	dec	r13
    1bde:	ee 24       	eor	r14, r14
    1be0:	ea 94       	dec	r14
    1be2:	ff 24       	eor	r15, r15
    1be4:	fa 94       	dec	r15
    1be6:	0f ef       	ldi	r16, 0xFF	; 255
    1be8:	1f ef       	ldi	r17, 0xFF	; 255
    1bea:	bf ef       	ldi	r27, 0xFF	; 255
    1bec:	ff ef       	ldi	r31, 0xFF	; 255
    1bee:	ef e7       	ldi	r30, 0x7F	; 127
    1bf0:	08 c0       	rjmp	.+16     	; 0x1c02 <f_div+0x1dc>
		// Ansonsten: (+/- INF) / (endliche Zahl auer Null)
		return (xsig^ysig) ? float64_MINUS_INFINITY : float64_PLUS_INFINITY;
    1bf2:	d1 2c       	mov	r13, r1
    1bf4:	e1 2c       	mov	r14, r1
    1bf6:	f1 2c       	mov	r15, r1
    1bf8:	00 e0       	ldi	r16, 0x00	; 0
    1bfa:	10 e0       	ldi	r17, 0x00	; 0
    1bfc:	b0 e0       	ldi	r27, 0x00	; 0
    1bfe:	f0 ef       	ldi	r31, 0xF0	; 240
    1c00:	ef ef       	ldi	r30, 0xFF	; 255
		i64=approx_high_uint64_word_of_uint64_mult_uint64_pbv_y(&xm, approx_inverse_of_fixpoint_uint64(&ym), 0);
		xex += 1023-yex;
	}
	f_combi_from_fixpoint(&x, xsig^ysig, xex-10, &i64);
	return x;
}
    1c02:	2d 2d       	mov	r18, r13
    1c04:	3e 2d       	mov	r19, r14
    1c06:	4f 2d       	mov	r20, r15
    1c08:	50 2f       	mov	r21, r16
    1c0a:	61 2f       	mov	r22, r17
    1c0c:	7b 2f       	mov	r23, r27
    1c0e:	8f 2f       	mov	r24, r31
    1c10:	9e 2f       	mov	r25, r30
    1c12:	e6 96       	adiw	r28, 0x36	; 54
    1c14:	cd bf       	out	0x3d, r28	; 61
    1c16:	de bf       	out	0x3e, r29	; 62
    1c18:	df 91       	pop	r29
    1c1a:	cf 91       	pop	r28
    1c1c:	1f 91       	pop	r17
    1c1e:	0f 91       	pop	r16
    1c20:	ff 90       	pop	r15
    1c22:	ef 90       	pop	r14
    1c24:	df 90       	pop	r13
    1c26:	cf 90       	pop	r12
    1c28:	bf 90       	pop	r11
    1c2a:	af 90       	pop	r10
    1c2c:	08 95       	ret

00001c2e <f_sqrt>:
}
#endif

#ifdef F_WITH_sqrt
float64_t f_sqrt(float64_t x)
{
    1c2e:	2f 92       	push	r2
    1c30:	3f 92       	push	r3
    1c32:	4f 92       	push	r4
    1c34:	5f 92       	push	r5
    1c36:	6f 92       	push	r6
    1c38:	7f 92       	push	r7
    1c3a:	8f 92       	push	r8
    1c3c:	9f 92       	push	r9
    1c3e:	af 92       	push	r10
    1c40:	bf 92       	push	r11
    1c42:	cf 92       	push	r12
    1c44:	df 92       	push	r13
    1c46:	ef 92       	push	r14
    1c48:	ff 92       	push	r15
    1c4a:	0f 93       	push	r16
    1c4c:	1f 93       	push	r17
    1c4e:	cf 93       	push	r28
    1c50:	df 93       	push	r29
    1c52:	cd b7       	in	r28, 0x3d	; 61
    1c54:	de b7       	in	r29, 0x3e	; 62
    1c56:	c3 54       	subi	r28, 0x43	; 67
    1c58:	d1 09       	sbc	r29, r1
    1c5a:	cd bf       	out	0x3d, r28	; 61
    1c5c:	de bf       	out	0x3e, r29	; 62
    1c5e:	2c 87       	std	Y+12, r18	; 0x0c
    1c60:	3d 87       	std	Y+13, r19	; 0x0d
    1c62:	4e 87       	std	Y+14, r20	; 0x0e
    1c64:	5f 87       	std	Y+15, r21	; 0x0f
    1c66:	68 8b       	std	Y+16, r22	; 0x10
    1c68:	79 8b       	std	Y+17, r23	; 0x11
    1c6a:	8a 8b       	std	Y+18, r24	; 0x12
    1c6c:	9b 8b       	std	Y+19, r25	; 0x13
	uint8_t  xsig;
	int16_t xex;
	uint64_t w, wL;

	f_split64(&x,&xsig,&xex,&w, 11);
    1c6e:	0b e0       	ldi	r16, 0x0B	; 11
    1c70:	9e 01       	movw	r18, r28
    1c72:	2c 5f       	subi	r18, 0xFC	; 252
    1c74:	3f 4f       	sbci	r19, 0xFF	; 255
    1c76:	ae 01       	movw	r20, r28
    1c78:	4e 5f       	subi	r20, 0xFE	; 254
    1c7a:	5f 4f       	sbci	r21, 0xFF	; 255
    1c7c:	be 01       	movw	r22, r28
    1c7e:	6f 5f       	subi	r22, 0xFF	; 255
    1c80:	7f 4f       	sbci	r23, 0xFF	; 255
    1c82:	ce 01       	movw	r24, r28
    1c84:	0c 96       	adiw	r24, 0x0c	; 12
    1c86:	0e 94 0d 02 	call	0x41a	; 0x41a <f_split64>
	if(0==xex) // Null
    1c8a:	8a 81       	ldd	r24, Y+2	; 0x02
    1c8c:	9b 81       	ldd	r25, Y+3	; 0x03
    1c8e:	24 96       	adiw	r28, 0x04	; 4
    1c90:	8e af       	std	Y+62, r24	; 0x3e
    1c92:	9f af       	std	Y+63, r25	; 0x3f
    1c94:	24 97       	sbiw	r28, 0x04	; 4
    1c96:	00 97       	sbiw	r24, 0x00	; 0
    1c98:	09 f4       	brne	.+2      	; 0x1c9c <f_sqrt+0x6e>
    1c9a:	bf c2       	rjmp	.+1406   	; 0x221a <f_sqrt+0x5ec>
		return float64_NUMBER_PLUS_ZERO;
#ifdef F_ONLY_NAN_NO_INFINITY
	if(2047==xex || 0!=xsig)
		return float64_ONE_POSSIBLE_NAN_REPRESENTATION;
#else
	if(2047==xex) // NaN, +INF oder -INF
    1c9c:	8f 3f       	cpi	r24, 0xFF	; 255
    1c9e:	97 40       	sbci	r25, 0x07	; 7
    1ca0:	c9 f4       	brne	.+50     	; 0x1cd4 <f_sqrt+0xa6>
	{
		if(0==w && 0==xsig) // +INF
    1ca2:	2c 81       	ldd	r18, Y+4	; 0x04
    1ca4:	3d 81       	ldd	r19, Y+5	; 0x05
    1ca6:	4e 81       	ldd	r20, Y+6	; 0x06
    1ca8:	5f 81       	ldd	r21, Y+7	; 0x07
    1caa:	68 85       	ldd	r22, Y+8	; 0x08
    1cac:	79 85       	ldd	r23, Y+9	; 0x09
    1cae:	8a 85       	ldd	r24, Y+10	; 0x0a
    1cb0:	9b 85       	ldd	r25, Y+11	; 0x0b
    1cb2:	a0 e0       	ldi	r26, 0x00	; 0
    1cb4:	0e 94 65 40 	call	0x80ca	; 0x80ca <__cmpdi2_s8>
    1cb8:	09 f0       	breq	.+2      	; 0x1cbc <f_sqrt+0x8e>
    1cba:	b8 c2       	rjmp	.+1392   	; 0x222c <f_sqrt+0x5fe>
    1cbc:	89 81       	ldd	r24, Y+1	; 0x01
    1cbe:	81 11       	cpse	r24, r1
    1cc0:	be c2       	rjmp	.+1404   	; 0x223e <f_sqrt+0x610>
			return x;
    1cc2:	2c 85       	ldd	r18, Y+12	; 0x0c
    1cc4:	3d 85       	ldd	r19, Y+13	; 0x0d
    1cc6:	4e 85       	ldd	r20, Y+14	; 0x0e
    1cc8:	5f 85       	ldd	r21, Y+15	; 0x0f
    1cca:	68 89       	ldd	r22, Y+16	; 0x10
    1ccc:	79 89       	ldd	r23, Y+17	; 0x11
    1cce:	8a 89       	ldd	r24, Y+18	; 0x12
    1cd0:	9b 89       	ldd	r25, Y+19	; 0x13
    1cd2:	e2 c2       	rjmp	.+1476   	; 0x2298 <f_sqrt+0x66a>
		return float64_ONE_POSSIBLE_NAN_REPRESENTATION;
	}
	if(xsig)
    1cd4:	89 81       	ldd	r24, Y+1	; 0x01
    1cd6:	81 11       	cpse	r24, r1
    1cd8:	bb c2       	rjmp	.+1398   	; 0x2250 <f_sqrt+0x622>
		return float64_ONE_POSSIBLE_NAN_REPRESENTATION;
#endif

	wL=0;
	if(xex & 1)
    1cda:	23 96       	adiw	r28, 0x03	; 3
    1cdc:	2f ad       	ldd	r18, Y+63	; 0x3f
    1cde:	23 97       	sbiw	r28, 0x03	; 3
    1ce0:	20 ff       	sbrs	r18, 0
    1ce2:	42 c0       	rjmp	.+132    	; 0x1d68 <f_sqrt+0x13a>
	{
		if(w & 1)
    1ce4:	ec 81       	ldd	r30, Y+4	; 0x04
    1ce6:	dd 80       	ldd	r13, Y+5	; 0x05
    1ce8:	ee 80       	ldd	r14, Y+6	; 0x06
    1cea:	ff 80       	ldd	r15, Y+7	; 0x07
    1cec:	08 85       	ldd	r16, Y+8	; 0x08
    1cee:	19 85       	ldd	r17, Y+9	; 0x09
    1cf0:	ba 85       	ldd	r27, Y+10	; 0x0a
    1cf2:	fb 85       	ldd	r31, Y+11	; 0x0b
    1cf4:	2e 2f       	mov	r18, r30
    1cf6:	21 70       	andi	r18, 0x01	; 1
    1cf8:	30 e0       	ldi	r19, 0x00	; 0
    1cfa:	40 e0       	ldi	r20, 0x00	; 0
    1cfc:	50 e0       	ldi	r21, 0x00	; 0
    1cfe:	60 e0       	ldi	r22, 0x00	; 0
    1d00:	70 e0       	ldi	r23, 0x00	; 0
    1d02:	90 e0       	ldi	r25, 0x00	; 0
    1d04:	a0 e0       	ldi	r26, 0x00	; 0
    1d06:	0e 94 65 40 	call	0x80ca	; 0x80ca <__cmpdi2_s8>
    1d0a:	71 f0       	breq	.+28     	; 0x1d28 <f_sqrt+0xfa>
			wL = ((uint64_t)1LU) << 63;
    1d0c:	1a ae       	std	Y+58, r1	; 0x3a
    1d0e:	1b ae       	std	Y+59, r1	; 0x3b
    1d10:	1c ae       	std	Y+60, r1	; 0x3c
    1d12:	1d ae       	std	Y+61, r1	; 0x3d
    1d14:	1e ae       	std	Y+62, r1	; 0x3e
    1d16:	1f ae       	std	Y+63, r1	; 0x3f
    1d18:	21 96       	adiw	r28, 0x01	; 1
    1d1a:	1f ae       	std	Y+63, r1	; 0x3f
    1d1c:	21 97       	sbiw	r28, 0x01	; 1
    1d1e:	80 e8       	ldi	r24, 0x80	; 128
    1d20:	22 96       	adiw	r28, 0x02	; 2
    1d22:	8f af       	std	Y+63, r24	; 0x3f
    1d24:	22 97       	sbiw	r28, 0x02	; 2
    1d26:	0c c0       	rjmp	.+24     	; 0x1d40 <f_sqrt+0x112>
	}
	if(xsig)
		return float64_ONE_POSSIBLE_NAN_REPRESENTATION;
#endif

	wL=0;
    1d28:	1a ae       	std	Y+58, r1	; 0x3a
    1d2a:	1b ae       	std	Y+59, r1	; 0x3b
    1d2c:	1c ae       	std	Y+60, r1	; 0x3c
    1d2e:	1d ae       	std	Y+61, r1	; 0x3d
    1d30:	1e ae       	std	Y+62, r1	; 0x3e
    1d32:	1f ae       	std	Y+63, r1	; 0x3f
    1d34:	21 96       	adiw	r28, 0x01	; 1
    1d36:	1f ae       	std	Y+63, r1	; 0x3f
    1d38:	21 97       	sbiw	r28, 0x01	; 1
    1d3a:	22 96       	adiw	r28, 0x02	; 2
    1d3c:	1f ae       	std	Y+63, r1	; 0x3f
    1d3e:	22 97       	sbiw	r28, 0x02	; 2
	if(xex & 1)
	{
		if(w & 1)
			wL = ((uint64_t)1LU) << 63;
		w >>= 1;
    1d40:	2e 2f       	mov	r18, r30
    1d42:	3d 2d       	mov	r19, r13
    1d44:	4e 2d       	mov	r20, r14
    1d46:	5f 2d       	mov	r21, r15
    1d48:	60 2f       	mov	r22, r16
    1d4a:	71 2f       	mov	r23, r17
    1d4c:	8b 2f       	mov	r24, r27
    1d4e:	9f 2f       	mov	r25, r31
    1d50:	01 e0       	ldi	r16, 0x01	; 1
    1d52:	0e 94 22 40 	call	0x8044	; 0x8044 <__lshrdi3>
    1d56:	2c 83       	std	Y+4, r18	; 0x04
    1d58:	3d 83       	std	Y+5, r19	; 0x05
    1d5a:	4e 83       	std	Y+6, r20	; 0x06
    1d5c:	5f 83       	std	Y+7, r21	; 0x07
    1d5e:	68 87       	std	Y+8, r22	; 0x08
    1d60:	79 87       	std	Y+9, r23	; 0x09
    1d62:	8a 87       	std	Y+10, r24	; 0x0a
    1d64:	9b 87       	std	Y+11, r25	; 0x0b
    1d66:	0c c0       	rjmp	.+24     	; 0x1d80 <f_sqrt+0x152>
	}
	if(xsig)
		return float64_ONE_POSSIBLE_NAN_REPRESENTATION;
#endif

	wL=0;
    1d68:	1a ae       	std	Y+58, r1	; 0x3a
    1d6a:	1b ae       	std	Y+59, r1	; 0x3b
    1d6c:	1c ae       	std	Y+60, r1	; 0x3c
    1d6e:	1d ae       	std	Y+61, r1	; 0x3d
    1d70:	1e ae       	std	Y+62, r1	; 0x3e
    1d72:	1f ae       	std	Y+63, r1	; 0x3f
    1d74:	21 96       	adiw	r28, 0x01	; 1
    1d76:	1f ae       	std	Y+63, r1	; 0x3f
    1d78:	21 97       	sbiw	r28, 0x01	; 1
    1d7a:	22 96       	adiw	r28, 0x02	; 2
    1d7c:	1f ae       	std	Y+63, r1	; 0x3f
    1d7e:	22 97       	sbiw	r28, 0x02	; 2
		if(w & 1)
			wL = ((uint64_t)1LU) << 63;
		w >>= 1;
	}

	w=rounded_sqrt_of_integer128(w, wL);
    1d80:	9c 81       	ldd	r25, Y+4	; 0x04
    1d82:	9b a3       	std	Y+35, r25	; 0x23
    1d84:	ad 81       	ldd	r26, Y+5	; 0x05
    1d86:	ac a3       	std	Y+36, r26	; 0x24
    1d88:	2e 81       	ldd	r18, Y+6	; 0x06
    1d8a:	2d a3       	std	Y+37, r18	; 0x25
    1d8c:	8f 81       	ldd	r24, Y+7	; 0x07
    1d8e:	8e a3       	std	Y+38, r24	; 0x26
    1d90:	98 85       	ldd	r25, Y+8	; 0x08
    1d92:	9f a3       	std	Y+39, r25	; 0x27
    1d94:	a9 85       	ldd	r26, Y+9	; 0x09
    1d96:	a8 a7       	std	Y+40, r26	; 0x28
    1d98:	2a 85       	ldd	r18, Y+10	; 0x0a
    1d9a:	29 a7       	std	Y+41, r18	; 0x29
    1d9c:	8b 85       	ldd	r24, Y+11	; 0x0b
    1d9e:	8a a7       	std	Y+42, r24	; 0x2a
    1da0:	fe e7       	ldi	r31, 0x7E	; 126

#if defined(F_WITH_sqrt) || defined(F_WITH_sin) || defined(F_WITH_cos) || defined(F_WITH_tan) || defined(F_WITH_arcsin) || defined(F_WITH_arccos) || defined(F_WITH_arctan)
static uint64_t rounded_sqrt_of_integer128(uint64_t x_high, uint64_t x_low)
{	// Liefert die auf die nchste ganze Zahl gerundete Quadratwurzel aus (2 hoch 64)*x_high + x_low .
	// Falls die Wurzel nach Rundung gleich (2 hoch 64) sein msste, wird (2 hoch 64)-1 zurckgegeben.
	uint64_t rL=0, rH=0, sH, sL;
    1da2:	51 2c       	mov	r5, r1
    1da4:	61 2c       	mov	r6, r1
    1da6:	71 2c       	mov	r7, r1
    1da8:	81 2c       	mov	r8, r1
    1daa:	91 2c       	mov	r9, r1
    1dac:	b0 e0       	ldi	r27, 0x00	; 0
    1dae:	19 a2       	std	Y+33, r1	; 0x21
    1db0:	1b a6       	std	Y+43, r1	; 0x2b
    1db2:	1c a6       	std	Y+44, r1	; 0x2c
    1db4:	1d a6       	std	Y+45, r1	; 0x2d
    1db6:	1e a6       	std	Y+46, r1	; 0x2e
    1db8:	1f a6       	std	Y+47, r1	; 0x2f
    1dba:	18 aa       	std	Y+48, r1	; 0x30
    1dbc:	19 aa       	std	Y+49, r1	; 0x31
    1dbe:	46 2c       	mov	r4, r6
    1dc0:	37 2c       	mov	r3, r7
    1dc2:	28 2c       	mov	r2, r8
    1dc4:	ef 2f       	mov	r30, r31
    1dc6:	f9 2d       	mov	r31, r9
	uint8_t i;
	for(i=2*64; 0!=i; )
	{
		i-=2;
		sH=rH; sL=rL;
		if(i>=64)
    1dc8:	e0 34       	cpi	r30, 0x40	; 64
    1dca:	48 f1       	brcs	.+82     	; 0x1e1e <f_sqrt+0x1f0>
			sH += ((uint64_t)1LU) << (i-64);
    1dcc:	0e 2f       	mov	r16, r30
    1dce:	10 e0       	ldi	r17, 0x00	; 0
    1dd0:	00 54       	subi	r16, 0x40	; 64
    1dd2:	11 09       	sbc	r17, r1
    1dd4:	21 e0       	ldi	r18, 0x01	; 1
    1dd6:	30 e0       	ldi	r19, 0x00	; 0
    1dd8:	40 e0       	ldi	r20, 0x00	; 0
    1dda:	50 e0       	ldi	r21, 0x00	; 0
    1ddc:	60 e0       	ldi	r22, 0x00	; 0
    1dde:	70 e0       	ldi	r23, 0x00	; 0
    1de0:	80 e0       	ldi	r24, 0x00	; 0
    1de2:	90 e0       	ldi	r25, 0x00	; 0
    1de4:	0e 94 07 40 	call	0x800e	; 0x800e <__ashldi3>
    1de8:	a9 a0       	ldd	r10, Y+33	; 0x21
    1dea:	bb a4       	ldd	r11, Y+43	; 0x2b
    1dec:	cc a4       	ldd	r12, Y+44	; 0x2c
    1dee:	dd a4       	ldd	r13, Y+45	; 0x2d
    1df0:	ee a4       	ldd	r14, Y+46	; 0x2e
    1df2:	ff a4       	ldd	r15, Y+47	; 0x2f
    1df4:	08 a9       	ldd	r16, Y+48	; 0x30
    1df6:	19 a9       	ldd	r17, Y+49	; 0x31
    1df8:	0e 94 3e 40 	call	0x807c	; 0x807c <__adddi3>
    1dfc:	2a 8f       	std	Y+26, r18	; 0x1a
    1dfe:	3b 8f       	std	Y+27, r19	; 0x1b
    1e00:	4c 8f       	std	Y+28, r20	; 0x1c
    1e02:	5d 8f       	std	Y+29, r21	; 0x1d
    1e04:	6e 8f       	std	Y+30, r22	; 0x1e
    1e06:	7f 8f       	std	Y+31, r23	; 0x1f
    1e08:	88 a3       	std	Y+32, r24	; 0x20
    1e0a:	9a a3       	std	Y+34, r25	; 0x22
    1e0c:	5c 8a       	std	Y+20, r5	; 0x14
    1e0e:	4d 8a       	std	Y+21, r4	; 0x15
    1e10:	3e 8a       	std	Y+22, r3	; 0x16
    1e12:	2f 8a       	std	Y+23, r2	; 0x17
    1e14:	6f 2e       	mov	r6, r31
    1e16:	b8 8f       	std	Y+24, r27	; 0x18
    1e18:	99 8e       	std	Y+25, r9	; 0x19
    1e1a:	78 2c       	mov	r7, r8
    1e1c:	5f c0       	rjmp	.+190    	; 0x1edc <f_sqrt+0x2ae>
		else
		{
			if(sL >= (uint64_t)(-(((uint64_t)1LU) << i))) // sL >= (2 hoch 64) - (2 hoch i)
    1e1e:	21 e0       	ldi	r18, 0x01	; 1
    1e20:	30 e0       	ldi	r19, 0x00	; 0
    1e22:	40 e0       	ldi	r20, 0x00	; 0
    1e24:	50 e0       	ldi	r21, 0x00	; 0
    1e26:	60 e0       	ldi	r22, 0x00	; 0
    1e28:	70 e0       	ldi	r23, 0x00	; 0
    1e2a:	80 e0       	ldi	r24, 0x00	; 0
    1e2c:	90 e0       	ldi	r25, 0x00	; 0
    1e2e:	0e 2f       	mov	r16, r30
    1e30:	0e 94 07 40 	call	0x800e	; 0x800e <__ashldi3>
    1e34:	2c 8b       	std	Y+20, r18	; 0x14
    1e36:	3d 8b       	std	Y+21, r19	; 0x15
    1e38:	4e 8b       	std	Y+22, r20	; 0x16
    1e3a:	5f 8b       	std	Y+23, r21	; 0x17
    1e3c:	66 2e       	mov	r6, r22
    1e3e:	77 2e       	mov	r7, r23
    1e40:	88 8f       	std	Y+24, r24	; 0x18
    1e42:	99 8f       	std	Y+25, r25	; 0x19
    1e44:	0e 94 f7 3f 	call	0x7fee	; 0x7fee <__negdi2>
    1e48:	a5 2c       	mov	r10, r5
    1e4a:	b4 2c       	mov	r11, r4
    1e4c:	c3 2c       	mov	r12, r3
    1e4e:	d2 2c       	mov	r13, r2
    1e50:	ef 2e       	mov	r14, r31
    1e52:	fb 2e       	mov	r15, r27
    1e54:	09 2d       	mov	r16, r9
    1e56:	18 2d       	mov	r17, r8
    1e58:	0e 94 5c 40 	call	0x80b8	; 0x80b8 <__cmpdi2>
    1e5c:	09 f0       	breq	.+2      	; 0x1e60 <f_sqrt+0x232>
    1e5e:	a0 f4       	brcc	.+40     	; 0x1e88 <f_sqrt+0x25a>
				sH++;
    1e60:	29 a1       	ldd	r18, Y+33	; 0x21
    1e62:	3b a5       	ldd	r19, Y+43	; 0x2b
    1e64:	4c a5       	ldd	r20, Y+44	; 0x2c
    1e66:	5d a5       	ldd	r21, Y+45	; 0x2d
    1e68:	6e a5       	ldd	r22, Y+46	; 0x2e
    1e6a:	7f a5       	ldd	r23, Y+47	; 0x2f
    1e6c:	88 a9       	ldd	r24, Y+48	; 0x30
    1e6e:	99 a9       	ldd	r25, Y+49	; 0x31
    1e70:	a1 e0       	ldi	r26, 0x01	; 1
    1e72:	0e 94 47 40 	call	0x808e	; 0x808e <__adddi3_s8>
    1e76:	2a 8f       	std	Y+26, r18	; 0x1a
    1e78:	3b 8f       	std	Y+27, r19	; 0x1b
    1e7a:	4c 8f       	std	Y+28, r20	; 0x1c
    1e7c:	5d 8f       	std	Y+29, r21	; 0x1d
    1e7e:	6e 8f       	std	Y+30, r22	; 0x1e
    1e80:	7f 8f       	std	Y+31, r23	; 0x1f
    1e82:	88 a3       	std	Y+32, r24	; 0x20
    1e84:	9a a3       	std	Y+34, r25	; 0x22
    1e86:	10 c0       	rjmp	.+32     	; 0x1ea8 <f_sqrt+0x27a>
		sH=rH; sL=rL;
		if(i>=64)
			sH += ((uint64_t)1LU) << (i-64);
		else
		{
			if(sL >= (uint64_t)(-(((uint64_t)1LU) << i))) // sL >= (2 hoch 64) - (2 hoch i)
    1e88:	99 a1       	ldd	r25, Y+33	; 0x21
    1e8a:	9a 8f       	std	Y+26, r25	; 0x1a
    1e8c:	ab a5       	ldd	r26, Y+43	; 0x2b
    1e8e:	ab 8f       	std	Y+27, r26	; 0x1b
    1e90:	2c a5       	ldd	r18, Y+44	; 0x2c
    1e92:	2c 8f       	std	Y+28, r18	; 0x1c
    1e94:	8d a5       	ldd	r24, Y+45	; 0x2d
    1e96:	8d 8f       	std	Y+29, r24	; 0x1d
    1e98:	9e a5       	ldd	r25, Y+46	; 0x2e
    1e9a:	9e 8f       	std	Y+30, r25	; 0x1e
    1e9c:	af a5       	ldd	r26, Y+47	; 0x2f
    1e9e:	af 8f       	std	Y+31, r26	; 0x1f
    1ea0:	28 a9       	ldd	r18, Y+48	; 0x30
    1ea2:	28 a3       	std	Y+32, r18	; 0x20
    1ea4:	89 a9       	ldd	r24, Y+49	; 0x31
    1ea6:	8a a3       	std	Y+34, r24	; 0x22
				sH++;
			sL += ((uint64_t)1LU) << i;
    1ea8:	2c 89       	ldd	r18, Y+20	; 0x14
    1eaa:	3d 89       	ldd	r19, Y+21	; 0x15
    1eac:	4e 89       	ldd	r20, Y+22	; 0x16
    1eae:	5f 89       	ldd	r21, Y+23	; 0x17
    1eb0:	66 2d       	mov	r22, r6
    1eb2:	77 2d       	mov	r23, r7
    1eb4:	88 8d       	ldd	r24, Y+24	; 0x18
    1eb6:	99 8d       	ldd	r25, Y+25	; 0x19
    1eb8:	a5 2c       	mov	r10, r5
    1eba:	b4 2c       	mov	r11, r4
    1ebc:	c3 2c       	mov	r12, r3
    1ebe:	d2 2c       	mov	r13, r2
    1ec0:	ef 2e       	mov	r14, r31
    1ec2:	fb 2e       	mov	r15, r27
    1ec4:	09 2d       	mov	r16, r9
    1ec6:	18 2d       	mov	r17, r8
    1ec8:	0e 94 3e 40 	call	0x807c	; 0x807c <__adddi3>
    1ecc:	2c 8b       	std	Y+20, r18	; 0x14
    1ece:	3d 8b       	std	Y+21, r19	; 0x15
    1ed0:	4e 8b       	std	Y+22, r20	; 0x16
    1ed2:	5f 8b       	std	Y+23, r21	; 0x17
    1ed4:	66 2e       	mov	r6, r22
    1ed6:	78 8f       	std	Y+24, r23	; 0x18
    1ed8:	89 8f       	std	Y+25, r24	; 0x19
    1eda:	79 2e       	mov	r7, r25
		}

		rL >>= 1;
    1edc:	25 2d       	mov	r18, r5
    1ede:	34 2d       	mov	r19, r4
    1ee0:	43 2d       	mov	r20, r3
    1ee2:	52 2d       	mov	r21, r2
    1ee4:	6f 2f       	mov	r22, r31
    1ee6:	7b 2f       	mov	r23, r27
    1ee8:	89 2d       	mov	r24, r9
    1eea:	98 2d       	mov	r25, r8
    1eec:	01 e0       	ldi	r16, 0x01	; 1
    1eee:	0e 94 22 40 	call	0x8044	; 0x8044 <__lshrdi3>
    1ef2:	19 2f       	mov	r17, r25
    1ef4:	52 2e       	mov	r5, r18
    1ef6:	43 2e       	mov	r4, r19
    1ef8:	34 2e       	mov	r3, r20
    1efa:	25 2e       	mov	r2, r21
    1efc:	f6 2f       	mov	r31, r22
    1efe:	b7 2f       	mov	r27, r23
    1f00:	98 2e       	mov	r9, r24
    1f02:	89 2e       	mov	r8, r25
		if(rH & 1)
    1f04:	29 a1       	ldd	r18, Y+33	; 0x21
    1f06:	21 70       	andi	r18, 0x01	; 1
    1f08:	30 e0       	ldi	r19, 0x00	; 0
    1f0a:	40 e0       	ldi	r20, 0x00	; 0
    1f0c:	50 e0       	ldi	r21, 0x00	; 0
    1f0e:	60 e0       	ldi	r22, 0x00	; 0
    1f10:	70 e0       	ldi	r23, 0x00	; 0
    1f12:	80 e0       	ldi	r24, 0x00	; 0
    1f14:	90 e0       	ldi	r25, 0x00	; 0
    1f16:	a0 e0       	ldi	r26, 0x00	; 0
    1f18:	0e 94 65 40 	call	0x80ca	; 0x80ca <__cmpdi2_s8>
    1f1c:	11 f0       	breq	.+4      	; 0x1f22 <f_sqrt+0x2f4>
			rL |= ((uint64_t)1LU) << 63;
    1f1e:	10 68       	ori	r17, 0x80	; 128
    1f20:	81 2e       	mov	r8, r17
		rH >>= 1;
    1f22:	29 a1       	ldd	r18, Y+33	; 0x21
    1f24:	3b a5       	ldd	r19, Y+43	; 0x2b
    1f26:	4c a5       	ldd	r20, Y+44	; 0x2c
    1f28:	5d a5       	ldd	r21, Y+45	; 0x2d
    1f2a:	6e a5       	ldd	r22, Y+46	; 0x2e
    1f2c:	7f a5       	ldd	r23, Y+47	; 0x2f
    1f2e:	88 a9       	ldd	r24, Y+48	; 0x30
    1f30:	99 a9       	ldd	r25, Y+49	; 0x31
    1f32:	01 e0       	ldi	r16, 0x01	; 1
    1f34:	0e 94 22 40 	call	0x8044	; 0x8044 <__lshrdi3>
    1f38:	2a ab       	std	Y+50, r18	; 0x32
    1f3a:	3b ab       	std	Y+51, r19	; 0x33
    1f3c:	4c ab       	std	Y+52, r20	; 0x34
    1f3e:	5d ab       	std	Y+53, r21	; 0x35
    1f40:	6e ab       	std	Y+54, r22	; 0x36
    1f42:	7f ab       	std	Y+55, r23	; 0x37
    1f44:	88 af       	std	Y+56, r24	; 0x38
    1f46:	99 af       	std	Y+57, r25	; 0x39
    1f48:	29 a3       	std	Y+33, r18	; 0x21
    1f4a:	3b a7       	std	Y+43, r19	; 0x2b
    1f4c:	4c a7       	std	Y+44, r20	; 0x2c
    1f4e:	5d a7       	std	Y+45, r21	; 0x2d
    1f50:	6e a7       	std	Y+46, r22	; 0x2e
    1f52:	7f a7       	std	Y+47, r23	; 0x2f
    1f54:	88 ab       	std	Y+48, r24	; 0x30
    1f56:	99 ab       	std	Y+49, r25	; 0x31

		if(sH<x_high || (sH==x_high && sL<=x_low))
    1f58:	2a 8d       	ldd	r18, Y+26	; 0x1a
    1f5a:	3b 8d       	ldd	r19, Y+27	; 0x1b
    1f5c:	4c 8d       	ldd	r20, Y+28	; 0x1c
    1f5e:	5d 8d       	ldd	r21, Y+29	; 0x1d
    1f60:	6e 8d       	ldd	r22, Y+30	; 0x1e
    1f62:	7f 8d       	ldd	r23, Y+31	; 0x1f
    1f64:	88 a1       	ldd	r24, Y+32	; 0x20
    1f66:	9a a1       	ldd	r25, Y+34	; 0x22
    1f68:	ab a0       	ldd	r10, Y+35	; 0x23
    1f6a:	bc a0       	ldd	r11, Y+36	; 0x24
    1f6c:	cd a0       	ldd	r12, Y+37	; 0x25
    1f6e:	de a0       	ldd	r13, Y+38	; 0x26
    1f70:	ef a0       	ldd	r14, Y+39	; 0x27
    1f72:	f8 a4       	ldd	r15, Y+40	; 0x28
    1f74:	09 a5       	ldd	r16, Y+41	; 0x29
    1f76:	1a a5       	ldd	r17, Y+42	; 0x2a
    1f78:	0e 94 5c 40 	call	0x80b8	; 0x80b8 <__cmpdi2>
    1f7c:	70 f1       	brcs	.+92     	; 0x1fda <f_sqrt+0x3ac>
    1f7e:	0e 94 5c 40 	call	0x80b8	; 0x80b8 <__cmpdi2>
    1f82:	09 f0       	breq	.+2      	; 0x1f86 <f_sqrt+0x358>
    1f84:	d5 c0       	rjmp	.+426    	; 0x2130 <f_sqrt+0x502>
    1f86:	2c 89       	ldd	r18, Y+20	; 0x14
    1f88:	3d 89       	ldd	r19, Y+21	; 0x15
    1f8a:	4e 89       	ldd	r20, Y+22	; 0x16
    1f8c:	5f 89       	ldd	r21, Y+23	; 0x17
    1f8e:	66 2d       	mov	r22, r6
    1f90:	78 8d       	ldd	r23, Y+24	; 0x18
    1f92:	89 8d       	ldd	r24, Y+25	; 0x19
    1f94:	97 2d       	mov	r25, r7
    1f96:	aa ac       	ldd	r10, Y+58	; 0x3a
    1f98:	bb ac       	ldd	r11, Y+59	; 0x3b
    1f9a:	cc ac       	ldd	r12, Y+60	; 0x3c
    1f9c:	dd ac       	ldd	r13, Y+61	; 0x3d
    1f9e:	ee ac       	ldd	r14, Y+62	; 0x3e
    1fa0:	ff ac       	ldd	r15, Y+63	; 0x3f
    1fa2:	21 96       	adiw	r28, 0x01	; 1
    1fa4:	0f ad       	ldd	r16, Y+63	; 0x3f
    1fa6:	21 97       	sbiw	r28, 0x01	; 1
    1fa8:	22 96       	adiw	r28, 0x02	; 2
    1faa:	1f ad       	ldd	r17, Y+63	; 0x3f
    1fac:	22 97       	sbiw	r28, 0x02	; 2
    1fae:	0e 94 5c 40 	call	0x80b8	; 0x80b8 <__cmpdi2>
    1fb2:	09 f0       	breq	.+2      	; 0x1fb6 <f_sqrt+0x388>
    1fb4:	08 f4       	brcc	.+2      	; 0x1fb8 <f_sqrt+0x38a>
    1fb6:	55 c1       	rjmp	.+682    	; 0x2262 <f_sqrt+0x634>
    1fb8:	9a 8d       	ldd	r25, Y+26	; 0x1a
    1fba:	9b a3       	std	Y+35, r25	; 0x23
    1fbc:	ab 8d       	ldd	r26, Y+27	; 0x1b
    1fbe:	ac a3       	std	Y+36, r26	; 0x24
    1fc0:	2c 8d       	ldd	r18, Y+28	; 0x1c
    1fc2:	2d a3       	std	Y+37, r18	; 0x25
    1fc4:	8d 8d       	ldd	r24, Y+29	; 0x1d
    1fc6:	8e a3       	std	Y+38, r24	; 0x26
    1fc8:	9e 8d       	ldd	r25, Y+30	; 0x1e
    1fca:	9f a3       	std	Y+39, r25	; 0x27
    1fcc:	af 8d       	ldd	r26, Y+31	; 0x1f
    1fce:	a8 a7       	std	Y+40, r26	; 0x28
    1fd0:	28 a1       	ldd	r18, Y+32	; 0x20
    1fd2:	29 a7       	std	Y+41, r18	; 0x29
    1fd4:	8a a1       	ldd	r24, Y+34	; 0x22
    1fd6:	8a a7       	std	Y+42, r24	; 0x2a
    1fd8:	ab c0       	rjmp	.+342    	; 0x2130 <f_sqrt+0x502>
		{
			x_high -= sH;
    1fda:	2b a1       	ldd	r18, Y+35	; 0x23
    1fdc:	3c a1       	ldd	r19, Y+36	; 0x24
    1fde:	4d a1       	ldd	r20, Y+37	; 0x25
    1fe0:	5e a1       	ldd	r21, Y+38	; 0x26
    1fe2:	6f a1       	ldd	r22, Y+39	; 0x27
    1fe4:	78 a5       	ldd	r23, Y+40	; 0x28
    1fe6:	89 a5       	ldd	r24, Y+41	; 0x29
    1fe8:	9a a5       	ldd	r25, Y+42	; 0x2a
    1fea:	aa 8c       	ldd	r10, Y+26	; 0x1a
    1fec:	bb 8c       	ldd	r11, Y+27	; 0x1b
    1fee:	cc 8c       	ldd	r12, Y+28	; 0x1c
    1ff0:	dd 8c       	ldd	r13, Y+29	; 0x1d
    1ff2:	ee 8c       	ldd	r14, Y+30	; 0x1e
    1ff4:	ff 8c       	ldd	r15, Y+31	; 0x1f
    1ff6:	08 a1       	ldd	r16, Y+32	; 0x20
    1ff8:	1a a1       	ldd	r17, Y+34	; 0x22
    1ffa:	0e 94 53 40 	call	0x80a6	; 0x80a6 <__subdi3>
    1ffe:	2a 8f       	std	Y+26, r18	; 0x1a
    2000:	3b 8f       	std	Y+27, r19	; 0x1b
    2002:	4c 8f       	std	Y+28, r20	; 0x1c
    2004:	5d 8f       	std	Y+29, r21	; 0x1d
    2006:	6e 8f       	std	Y+30, r22	; 0x1e
    2008:	a7 2f       	mov	r26, r23
    200a:	8f 8f       	std	Y+31, r24	; 0x1f
    200c:	98 a3       	std	Y+32, r25	; 0x20
    200e:	2b a3       	std	Y+35, r18	; 0x23
    2010:	3c a3       	std	Y+36, r19	; 0x24
    2012:	4d a3       	std	Y+37, r20	; 0x25
    2014:	5e a3       	std	Y+38, r21	; 0x26
    2016:	6f a3       	std	Y+39, r22	; 0x27
    2018:	78 a7       	std	Y+40, r23	; 0x28
    201a:	89 a7       	std	Y+41, r24	; 0x29
    201c:	9a a7       	std	Y+42, r25	; 0x2a
			if(sL > x_low)
    201e:	2c 89       	ldd	r18, Y+20	; 0x14
    2020:	3d 89       	ldd	r19, Y+21	; 0x15
    2022:	4e 89       	ldd	r20, Y+22	; 0x16
    2024:	5f 89       	ldd	r21, Y+23	; 0x17
    2026:	66 2d       	mov	r22, r6
    2028:	78 8d       	ldd	r23, Y+24	; 0x18
    202a:	89 8d       	ldd	r24, Y+25	; 0x19
    202c:	97 2d       	mov	r25, r7
    202e:	aa ac       	ldd	r10, Y+58	; 0x3a
    2030:	bb ac       	ldd	r11, Y+59	; 0x3b
    2032:	cc ac       	ldd	r12, Y+60	; 0x3c
    2034:	dd ac       	ldd	r13, Y+61	; 0x3d
    2036:	ee ac       	ldd	r14, Y+62	; 0x3e
    2038:	ff ac       	ldd	r15, Y+63	; 0x3f
    203a:	21 96       	adiw	r28, 0x01	; 1
    203c:	0f ad       	ldd	r16, Y+63	; 0x3f
    203e:	21 97       	sbiw	r28, 0x01	; 1
    2040:	22 96       	adiw	r28, 0x02	; 2
    2042:	1f ad       	ldd	r17, Y+63	; 0x3f
    2044:	22 97       	sbiw	r28, 0x02	; 2
    2046:	0e 94 5c 40 	call	0x80b8	; 0x80b8 <__cmpdi2>
    204a:	a1 f0       	breq	.+40     	; 0x2074 <f_sqrt+0x446>
    204c:	98 f0       	brcs	.+38     	; 0x2074 <f_sqrt+0x446>
				--x_high;
    204e:	2a 8d       	ldd	r18, Y+26	; 0x1a
    2050:	3b 8d       	ldd	r19, Y+27	; 0x1b
    2052:	4c 8d       	ldd	r20, Y+28	; 0x1c
    2054:	5d 8d       	ldd	r21, Y+29	; 0x1d
    2056:	6e 8d       	ldd	r22, Y+30	; 0x1e
    2058:	7a 2f       	mov	r23, r26
    205a:	8f 8d       	ldd	r24, Y+31	; 0x1f
    205c:	98 a1       	ldd	r25, Y+32	; 0x20
    205e:	af ef       	ldi	r26, 0xFF	; 255
    2060:	0e 94 47 40 	call	0x808e	; 0x808e <__adddi3_s8>
    2064:	2b a3       	std	Y+35, r18	; 0x23
    2066:	3c a3       	std	Y+36, r19	; 0x24
    2068:	4d a3       	std	Y+37, r20	; 0x25
    206a:	5e a3       	std	Y+38, r21	; 0x26
    206c:	6f a3       	std	Y+39, r22	; 0x27
    206e:	78 a7       	std	Y+40, r23	; 0x28
    2070:	89 a7       	std	Y+41, r24	; 0x29
    2072:	9a a7       	std	Y+42, r25	; 0x2a
			x_low -= sL;
    2074:	2a ad       	ldd	r18, Y+58	; 0x3a
    2076:	3b ad       	ldd	r19, Y+59	; 0x3b
    2078:	4c ad       	ldd	r20, Y+60	; 0x3c
    207a:	5d ad       	ldd	r21, Y+61	; 0x3d
    207c:	6e ad       	ldd	r22, Y+62	; 0x3e
    207e:	7f ad       	ldd	r23, Y+63	; 0x3f
    2080:	21 96       	adiw	r28, 0x01	; 1
    2082:	8f ad       	ldd	r24, Y+63	; 0x3f
    2084:	21 97       	sbiw	r28, 0x01	; 1
    2086:	22 96       	adiw	r28, 0x02	; 2
    2088:	9f ad       	ldd	r25, Y+63	; 0x3f
    208a:	22 97       	sbiw	r28, 0x02	; 2
    208c:	ac 88       	ldd	r10, Y+20	; 0x14
    208e:	bd 88       	ldd	r11, Y+21	; 0x15
    2090:	ce 88       	ldd	r12, Y+22	; 0x16
    2092:	df 88       	ldd	r13, Y+23	; 0x17
    2094:	e6 2c       	mov	r14, r6
    2096:	f8 8c       	ldd	r15, Y+24	; 0x18
    2098:	09 8d       	ldd	r16, Y+25	; 0x19
    209a:	17 2d       	mov	r17, r7
    209c:	0e 94 53 40 	call	0x80a6	; 0x80a6 <__subdi3>
    20a0:	2a af       	std	Y+58, r18	; 0x3a
    20a2:	3b af       	std	Y+59, r19	; 0x3b
    20a4:	4c af       	std	Y+60, r20	; 0x3c
    20a6:	5d af       	std	Y+61, r21	; 0x3d
    20a8:	6e af       	std	Y+62, r22	; 0x3e
    20aa:	7f af       	std	Y+63, r23	; 0x3f
    20ac:	21 96       	adiw	r28, 0x01	; 1
    20ae:	8f af       	std	Y+63, r24	; 0x3f
    20b0:	21 97       	sbiw	r28, 0x01	; 1
    20b2:	22 96       	adiw	r28, 0x02	; 2
    20b4:	9f af       	std	Y+63, r25	; 0x3f
    20b6:	22 97       	sbiw	r28, 0x02	; 2
			if(i>=64)
    20b8:	e0 34       	cpi	r30, 0x40	; 64
    20ba:	38 f1       	brcs	.+78     	; 0x210a <f_sqrt+0x4dc>
				rH |= ((uint64_t)1LU) << (i-64);
    20bc:	0e 2f       	mov	r16, r30
    20be:	10 e0       	ldi	r17, 0x00	; 0
    20c0:	00 54       	subi	r16, 0x40	; 64
    20c2:	11 09       	sbc	r17, r1
    20c4:	21 e0       	ldi	r18, 0x01	; 1
    20c6:	30 e0       	ldi	r19, 0x00	; 0
    20c8:	40 e0       	ldi	r20, 0x00	; 0
    20ca:	50 e0       	ldi	r21, 0x00	; 0
    20cc:	60 e0       	ldi	r22, 0x00	; 0
    20ce:	70 e0       	ldi	r23, 0x00	; 0
    20d0:	80 e0       	ldi	r24, 0x00	; 0
    20d2:	90 e0       	ldi	r25, 0x00	; 0
    20d4:	0e 94 07 40 	call	0x800e	; 0x800e <__ashldi3>
    20d8:	aa a9       	ldd	r26, Y+50	; 0x32
    20da:	a2 2b       	or	r26, r18
    20dc:	a9 a3       	std	Y+33, r26	; 0x21
    20de:	2b a9       	ldd	r18, Y+51	; 0x33
    20e0:	23 2b       	or	r18, r19
    20e2:	2b a7       	std	Y+43, r18	; 0x2b
    20e4:	ac a9       	ldd	r26, Y+52	; 0x34
    20e6:	a4 2b       	or	r26, r20
    20e8:	ac a7       	std	Y+44, r26	; 0x2c
    20ea:	2d a9       	ldd	r18, Y+53	; 0x35
    20ec:	25 2b       	or	r18, r21
    20ee:	2d a7       	std	Y+45, r18	; 0x2d
    20f0:	ae a9       	ldd	r26, Y+54	; 0x36
    20f2:	a6 2b       	or	r26, r22
    20f4:	ae a7       	std	Y+46, r26	; 0x2e
    20f6:	2f a9       	ldd	r18, Y+55	; 0x37
    20f8:	27 2b       	or	r18, r23
    20fa:	2f a7       	std	Y+47, r18	; 0x2f
    20fc:	a8 ad       	ldd	r26, Y+56	; 0x38
    20fe:	a8 2b       	or	r26, r24
    2100:	a8 ab       	std	Y+48, r26	; 0x30
    2102:	29 ad       	ldd	r18, Y+57	; 0x39
    2104:	29 2b       	or	r18, r25
    2106:	29 ab       	std	Y+49, r18	; 0x31
    2108:	13 c0       	rjmp	.+38     	; 0x2130 <f_sqrt+0x502>
			else
				rL |= ((uint64_t)1LU) << i;
    210a:	21 e0       	ldi	r18, 0x01	; 1
    210c:	30 e0       	ldi	r19, 0x00	; 0
    210e:	40 e0       	ldi	r20, 0x00	; 0
    2110:	50 e0       	ldi	r21, 0x00	; 0
    2112:	60 e0       	ldi	r22, 0x00	; 0
    2114:	70 e0       	ldi	r23, 0x00	; 0
    2116:	80 e0       	ldi	r24, 0x00	; 0
    2118:	90 e0       	ldi	r25, 0x00	; 0
    211a:	0e 2f       	mov	r16, r30
    211c:	0e 94 07 40 	call	0x800e	; 0x800e <__ashldi3>
    2120:	52 2a       	or	r5, r18
    2122:	43 2a       	or	r4, r19
    2124:	34 2a       	or	r3, r20
    2126:	25 2a       	or	r2, r21
    2128:	f6 2b       	or	r31, r22
    212a:	b7 2b       	or	r27, r23
    212c:	98 2a       	or	r9, r24
    212e:	89 2a       	or	r8, r25
    2130:	e2 50       	subi	r30, 0x02	; 2
static uint64_t rounded_sqrt_of_integer128(uint64_t x_high, uint64_t x_low)
{	// Liefert die auf die nchste ganze Zahl gerundete Quadratwurzel aus (2 hoch 64)*x_high + x_low .
	// Falls die Wurzel nach Rundung gleich (2 hoch 64) sein msste, wird (2 hoch 64)-1 zurckgegeben.
	uint64_t rL=0, rH=0, sH, sL;
	uint8_t i;
	for(i=2*64; 0!=i; )
    2132:	ee 3f       	cpi	r30, 0xFE	; 254
    2134:	09 f0       	breq	.+2      	; 0x2138 <f_sqrt+0x50a>
    2136:	48 ce       	rjmp	.-880    	; 0x1dc8 <f_sqrt+0x19a>
    2138:	64 2c       	mov	r6, r4
    213a:	73 2c       	mov	r7, r3
    213c:	9a 8e       	std	Y+26, r9	; 0x1a
    213e:	9f 2e       	mov	r9, r31
    2140:	e8 2d       	mov	r30, r8
    2142:	82 2c       	mov	r8, r2
				rH |= ((uint64_t)1LU) << (i-64);
			else
				rL |= ((uint64_t)1LU) << i;
		}
	}
	return (0!=x_high || x_low>=rL) && 0xffffffffffffffff!=rL ? rL+1 : rL;
    2144:	2b a1       	ldd	r18, Y+35	; 0x23
    2146:	3c a1       	ldd	r19, Y+36	; 0x24
    2148:	4d a1       	ldd	r20, Y+37	; 0x25
    214a:	5e a1       	ldd	r21, Y+38	; 0x26
    214c:	6f a1       	ldd	r22, Y+39	; 0x27
    214e:	78 a5       	ldd	r23, Y+40	; 0x28
    2150:	89 a5       	ldd	r24, Y+41	; 0x29
    2152:	9a a5       	ldd	r25, Y+42	; 0x2a
    2154:	a0 e0       	ldi	r26, 0x00	; 0
    2156:	0e 94 65 40 	call	0x80ca	; 0x80ca <__cmpdi2_s8>
    215a:	c1 f4       	brne	.+48     	; 0x218c <f_sqrt+0x55e>
    215c:	25 2d       	mov	r18, r5
    215e:	34 2d       	mov	r19, r4
    2160:	43 2d       	mov	r20, r3
    2162:	52 2d       	mov	r21, r2
    2164:	6f 2f       	mov	r22, r31
    2166:	7b 2f       	mov	r23, r27
    2168:	8a 8d       	ldd	r24, Y+26	; 0x1a
    216a:	9e 2f       	mov	r25, r30
    216c:	aa ac       	ldd	r10, Y+58	; 0x3a
    216e:	bb ac       	ldd	r11, Y+59	; 0x3b
    2170:	cc ac       	ldd	r12, Y+60	; 0x3c
    2172:	dd ac       	ldd	r13, Y+61	; 0x3d
    2174:	ee ac       	ldd	r14, Y+62	; 0x3e
    2176:	ff ac       	ldd	r15, Y+63	; 0x3f
    2178:	21 96       	adiw	r28, 0x01	; 1
    217a:	0f ad       	ldd	r16, Y+63	; 0x3f
    217c:	21 97       	sbiw	r28, 0x01	; 1
    217e:	22 96       	adiw	r28, 0x02	; 2
    2180:	1f ad       	ldd	r17, Y+63	; 0x3f
    2182:	22 97       	sbiw	r28, 0x02	; 2
    2184:	0e 94 5c 40 	call	0x80b8	; 0x80b8 <__cmpdi2>
    2188:	09 f0       	breq	.+2      	; 0x218c <f_sqrt+0x55e>
    218a:	80 f4       	brcc	.+32     	; 0x21ac <f_sqrt+0x57e>
    218c:	25 2d       	mov	r18, r5
    218e:	36 2d       	mov	r19, r6
    2190:	47 2d       	mov	r20, r7
    2192:	58 2d       	mov	r21, r8
    2194:	69 2d       	mov	r22, r9
    2196:	7b 2f       	mov	r23, r27
    2198:	8a 8d       	ldd	r24, Y+26	; 0x1a
    219a:	9e 2f       	mov	r25, r30
    219c:	af ef       	ldi	r26, 0xFF	; 255
    219e:	0e 94 65 40 	call	0x80ca	; 0x80ca <__cmpdi2_s8>
    21a2:	69 f0       	breq	.+26     	; 0x21be <f_sqrt+0x590>
    21a4:	a1 e0       	ldi	r26, 0x01	; 1
    21a6:	0e 94 47 40 	call	0x808e	; 0x808e <__adddi3_s8>
    21aa:	11 c0       	rjmp	.+34     	; 0x21ce <f_sqrt+0x5a0>
    21ac:	25 2d       	mov	r18, r5
    21ae:	34 2d       	mov	r19, r4
    21b0:	43 2d       	mov	r20, r3
    21b2:	52 2d       	mov	r21, r2
    21b4:	6f 2f       	mov	r22, r31
    21b6:	7b 2f       	mov	r23, r27
    21b8:	8a 8d       	ldd	r24, Y+26	; 0x1a
    21ba:	9e 2f       	mov	r25, r30
    21bc:	08 c0       	rjmp	.+16     	; 0x21ce <f_sqrt+0x5a0>
    21be:	25 2d       	mov	r18, r5
    21c0:	36 2d       	mov	r19, r6
    21c2:	47 2d       	mov	r20, r7
    21c4:	58 2d       	mov	r21, r8
    21c6:	69 2d       	mov	r22, r9
    21c8:	7b 2f       	mov	r23, r27
    21ca:	8a 8d       	ldd	r24, Y+26	; 0x1a
    21cc:	9e 2f       	mov	r25, r30
		if(w & 1)
			wL = ((uint64_t)1LU) << 63;
		w >>= 1;
	}

	w=rounded_sqrt_of_integer128(w, wL);
    21ce:	2c 83       	std	Y+4, r18	; 0x04
    21d0:	3d 83       	std	Y+5, r19	; 0x05
    21d2:	4e 83       	std	Y+6, r20	; 0x06
    21d4:	5f 83       	std	Y+7, r21	; 0x07
    21d6:	68 87       	std	Y+8, r22	; 0x08
    21d8:	79 87       	std	Y+9, r23	; 0x09
    21da:	8a 87       	std	Y+10, r24	; 0x0a
    21dc:	9b 87       	std	Y+11, r25	; 0x0b
	f_combi_from_fixpoint(&x, 0, (xex+1)/2 + 500, &w);
    21de:	24 96       	adiw	r28, 0x04	; 4
    21e0:	8e ad       	ldd	r24, Y+62	; 0x3e
    21e2:	9f ad       	ldd	r25, Y+63	; 0x3f
    21e4:	24 97       	sbiw	r28, 0x04	; 4
    21e6:	01 96       	adiw	r24, 0x01	; 1
    21e8:	ac 01       	movw	r20, r24
    21ea:	12 f4       	brpl	.+4      	; 0x21f0 <f_sqrt+0x5c2>
    21ec:	4f 5f       	subi	r20, 0xFF	; 255
    21ee:	5f 4f       	sbci	r21, 0xFF	; 255
    21f0:	55 95       	asr	r21
    21f2:	47 95       	ror	r20
    21f4:	4c 50       	subi	r20, 0x0C	; 12
    21f6:	5e 4f       	sbci	r21, 0xFE	; 254
    21f8:	9e 01       	movw	r18, r28
    21fa:	2c 5f       	subi	r18, 0xFC	; 252
    21fc:	3f 4f       	sbci	r19, 0xFF	; 255
    21fe:	60 e0       	ldi	r22, 0x00	; 0
    2200:	ce 01       	movw	r24, r28
    2202:	0c 96       	adiw	r24, 0x0c	; 12
    2204:	0e 94 b5 02 	call	0x56a	; 0x56a <f_combi_from_fixpoint>
	return x;
    2208:	2c 85       	ldd	r18, Y+12	; 0x0c
    220a:	3d 85       	ldd	r19, Y+13	; 0x0d
    220c:	4e 85       	ldd	r20, Y+14	; 0x0e
    220e:	5f 85       	ldd	r21, Y+15	; 0x0f
    2210:	68 89       	ldd	r22, Y+16	; 0x10
    2212:	79 89       	ldd	r23, Y+17	; 0x11
    2214:	8a 89       	ldd	r24, Y+18	; 0x12
    2216:	9b 89       	ldd	r25, Y+19	; 0x13
    2218:	3f c0       	rjmp	.+126    	; 0x2298 <f_sqrt+0x66a>
	int16_t xex;
	uint64_t w, wL;

	f_split64(&x,&xsig,&xex,&w, 11);
	if(0==xex) // Null
		return float64_NUMBER_PLUS_ZERO;
    221a:	20 e0       	ldi	r18, 0x00	; 0
    221c:	30 e0       	ldi	r19, 0x00	; 0
    221e:	40 e0       	ldi	r20, 0x00	; 0
    2220:	50 e0       	ldi	r21, 0x00	; 0
    2222:	60 e0       	ldi	r22, 0x00	; 0
    2224:	70 e0       	ldi	r23, 0x00	; 0
    2226:	80 e0       	ldi	r24, 0x00	; 0
    2228:	90 e0       	ldi	r25, 0x00	; 0
    222a:	36 c0       	rjmp	.+108    	; 0x2298 <f_sqrt+0x66a>
#else
	if(2047==xex) // NaN, +INF oder -INF
	{
		if(0==w && 0==xsig) // +INF
			return x;
		return float64_ONE_POSSIBLE_NAN_REPRESENTATION;
    222c:	2f ef       	ldi	r18, 0xFF	; 255
    222e:	3f ef       	ldi	r19, 0xFF	; 255
    2230:	4f ef       	ldi	r20, 0xFF	; 255
    2232:	5f ef       	ldi	r21, 0xFF	; 255
    2234:	6f ef       	ldi	r22, 0xFF	; 255
    2236:	7f ef       	ldi	r23, 0xFF	; 255
    2238:	8f ef       	ldi	r24, 0xFF	; 255
    223a:	9f e7       	ldi	r25, 0x7F	; 127
    223c:	2d c0       	rjmp	.+90     	; 0x2298 <f_sqrt+0x66a>
    223e:	2f ef       	ldi	r18, 0xFF	; 255
    2240:	3f ef       	ldi	r19, 0xFF	; 255
    2242:	4f ef       	ldi	r20, 0xFF	; 255
    2244:	5f ef       	ldi	r21, 0xFF	; 255
    2246:	6f ef       	ldi	r22, 0xFF	; 255
    2248:	7f ef       	ldi	r23, 0xFF	; 255
    224a:	8f ef       	ldi	r24, 0xFF	; 255
    224c:	9f e7       	ldi	r25, 0x7F	; 127
    224e:	24 c0       	rjmp	.+72     	; 0x2298 <f_sqrt+0x66a>
	}
	if(xsig)
		return float64_ONE_POSSIBLE_NAN_REPRESENTATION;
    2250:	2f ef       	ldi	r18, 0xFF	; 255
    2252:	3f ef       	ldi	r19, 0xFF	; 255
    2254:	4f ef       	ldi	r20, 0xFF	; 255
    2256:	5f ef       	ldi	r21, 0xFF	; 255
    2258:	6f ef       	ldi	r22, 0xFF	; 255
    225a:	7f ef       	ldi	r23, 0xFF	; 255
    225c:	8f ef       	ldi	r24, 0xFF	; 255
    225e:	9f e7       	ldi	r25, 0x7F	; 127
    2260:	1b c0       	rjmp	.+54     	; 0x2298 <f_sqrt+0x66a>
			rL |= ((uint64_t)1LU) << 63;
		rH >>= 1;

		if(sH<x_high || (sH==x_high && sL<=x_low))
		{
			x_high -= sH;
    2262:	2b a1       	ldd	r18, Y+35	; 0x23
    2264:	3c a1       	ldd	r19, Y+36	; 0x24
    2266:	4d a1       	ldd	r20, Y+37	; 0x25
    2268:	5e a1       	ldd	r21, Y+38	; 0x26
    226a:	6f a1       	ldd	r22, Y+39	; 0x27
    226c:	78 a5       	ldd	r23, Y+40	; 0x28
    226e:	89 a5       	ldd	r24, Y+41	; 0x29
    2270:	9a a5       	ldd	r25, Y+42	; 0x2a
    2272:	aa 8c       	ldd	r10, Y+26	; 0x1a
    2274:	bb 8c       	ldd	r11, Y+27	; 0x1b
    2276:	cc 8c       	ldd	r12, Y+28	; 0x1c
    2278:	dd 8c       	ldd	r13, Y+29	; 0x1d
    227a:	ee 8c       	ldd	r14, Y+30	; 0x1e
    227c:	ff 8c       	ldd	r15, Y+31	; 0x1f
    227e:	08 a1       	ldd	r16, Y+32	; 0x20
    2280:	1a a1       	ldd	r17, Y+34	; 0x22
    2282:	0e 94 53 40 	call	0x80a6	; 0x80a6 <__subdi3>
    2286:	2b a3       	std	Y+35, r18	; 0x23
    2288:	3c a3       	std	Y+36, r19	; 0x24
    228a:	4d a3       	std	Y+37, r20	; 0x25
    228c:	5e a3       	std	Y+38, r21	; 0x26
    228e:	6f a3       	std	Y+39, r22	; 0x27
    2290:	78 a7       	std	Y+40, r23	; 0x28
    2292:	89 a7       	std	Y+41, r24	; 0x29
    2294:	9a a7       	std	Y+42, r25	; 0x2a
    2296:	ee ce       	rjmp	.-548    	; 0x2074 <f_sqrt+0x446>
	}

	w=rounded_sqrt_of_integer128(w, wL);
	f_combi_from_fixpoint(&x, 0, (xex+1)/2 + 500, &w);
	return x;
}
    2298:	cd 5b       	subi	r28, 0xBD	; 189
    229a:	df 4f       	sbci	r29, 0xFF	; 255
    229c:	cd bf       	out	0x3d, r28	; 61
    229e:	de bf       	out	0x3e, r29	; 62
    22a0:	df 91       	pop	r29
    22a2:	cf 91       	pop	r28
    22a4:	1f 91       	pop	r17
    22a6:	0f 91       	pop	r16
    22a8:	ff 90       	pop	r15
    22aa:	ef 90       	pop	r14
    22ac:	df 90       	pop	r13
    22ae:	cf 90       	pop	r12
    22b0:	bf 90       	pop	r11
    22b2:	af 90       	pop	r10
    22b4:	9f 90       	pop	r9
    22b6:	8f 90       	pop	r8
    22b8:	7f 90       	pop	r7
    22ba:	6f 90       	pop	r6
    22bc:	5f 90       	pop	r5
    22be:	4f 90       	pop	r4
    22c0:	3f 90       	pop	r3
    22c2:	2f 90       	pop	r2
    22c4:	08 95       	ret

000022c6 <f_to_decimalExp>:
#endif

#if defined(F_WITH_to_decimalExp) || defined(F_WITH_to_string)
char *f_to_decimalExp(float64_t x, uint8_t anz_dezimal_mantisse, uint8_t MantisseUndExponentGetrennt,
						int16_t *ExponentBasis10)
{	// f_to_decimalExp() converts the float64 to the decimal representation of the number x if x is
    22c6:	2f 92       	push	r2
    22c8:	3f 92       	push	r3
    22ca:	4f 92       	push	r4
    22cc:	5f 92       	push	r5
    22ce:	6f 92       	push	r6
    22d0:	7f 92       	push	r7
    22d2:	8f 92       	push	r8
    22d4:	9f 92       	push	r9
    22d6:	af 92       	push	r10
    22d8:	bf 92       	push	r11
    22da:	cf 92       	push	r12
    22dc:	df 92       	push	r13
    22de:	ef 92       	push	r14
    22e0:	ff 92       	push	r15
    22e2:	0f 93       	push	r16
    22e4:	1f 93       	push	r17
    22e6:	cf 93       	push	r28
    22e8:	df 93       	push	r29
    22ea:	cd b7       	in	r28, 0x3d	; 61
    22ec:	de b7       	in	r29, 0x3e	; 62
    22ee:	ed 97       	sbiw	r28, 0x3d	; 61
    22f0:	cd bf       	out	0x3d, r28	; 61
    22f2:	de bf       	out	0x3e, r29	; 62
    22f4:	2c a7       	std	Y+44, r18	; 0x2c
    22f6:	3d a7       	std	Y+45, r19	; 0x2d
    22f8:	4e a7       	std	Y+46, r20	; 0x2e
    22fa:	5f a7       	std	Y+47, r21	; 0x2f
    22fc:	68 ab       	std	Y+48, r22	; 0x30
    22fe:	79 ab       	std	Y+49, r23	; 0x31
    2300:	8a ab       	std	Y+50, r24	; 0x32
    2302:	9b ab       	std	Y+51, r25	; 0x33
    2304:	e9 ae       	std	Y+57, r14	; 0x39
    2306:	ce aa       	std	Y+54, r12	; 0x36
    2308:	df aa       	std	Y+55, r13	; 0x37
    230a:	50 2e       	mov	r5, r16
    230c:	21 e1       	ldi	r18, 0x11	; 17
    230e:	20 17       	cp	r18, r16
    2310:	20 f4       	brcc	.+8      	; 0x231a <f_to_decimalExp+0x54>
    2312:	0f 2e       	mov	r0, r31
    2314:	f1 e1       	ldi	r31, 0x11	; 17
    2316:	5f 2e       	mov	r5, r31
    2318:	f0 2d       	mov	r31, r0
	uint64_t w, w2;
	int16_t Exp10;

	if(anz_dezimal_mantisse>17)
		anz_dezimal_mantisse=17;
	if(anz_dezimal_mantisse<1)
    231a:	51 10       	cpse	r5, r1
    231c:	02 c0       	rjmp	.+4      	; 0x2322 <f_to_decimalExp+0x5c>
		anz_dezimal_mantisse=1;
    231e:	55 24       	eor	r5, r5
    2320:	53 94       	inc	r5
	f_split64(&x, &f_sign, &f_ex, &w, 11);
    2322:	0b e0       	ldi	r16, 0x0B	; 11
    2324:	9e 01       	movw	r18, r28
    2326:	2c 5f       	subi	r18, 0xFC	; 252
    2328:	3f 4f       	sbci	r19, 0xFF	; 255
    232a:	ae 01       	movw	r20, r28
    232c:	4e 5f       	subi	r20, 0xFE	; 254
    232e:	5f 4f       	sbci	r21, 0xFF	; 255
    2330:	be 01       	movw	r22, r28
    2332:	6f 5f       	subi	r22, 0xFF	; 255
    2334:	7f 4f       	sbci	r23, 0xFF	; 255
    2336:	ce 01       	movw	r24, r28
    2338:	8c 96       	adiw	r24, 0x2c	; 44
    233a:	0e 94 0d 02 	call	0x41a	; 0x41a <f_split64>
	if(0==f_ex) // Alle denormalisierten Zahlen werden als Null interpretiert.
    233e:	8a 81       	ldd	r24, Y+2	; 0x02
    2340:	9b 81       	ldd	r25, Y+3	; 0x03
    2342:	00 97       	sbiw	r24, 0x00	; 0
    2344:	31 f4       	brne	.+12     	; 0x2352 <f_to_decimalExp+0x8c>
		{ TemporaryMemory[0]='0'; TemporaryMemory[1]=0; return TemporaryMemory; }
    2346:	e2 ec       	ldi	r30, 0xC2	; 194
    2348:	f0 e2       	ldi	r31, 0x20	; 32
    234a:	80 e3       	ldi	r24, 0x30	; 48
    234c:	80 83       	st	Z, r24
    234e:	11 82       	std	Z+1, r1	; 0x01
    2350:	14 c3       	rjmp	.+1576   	; 0x297a <f_to_decimalExp+0x6b4>
#ifdef F_ONLY_NAN_NO_INFINITY
	if(2047==f_ex)
		{ strcpy(TemporaryMemory, "NaN"); return TemporaryMemory; }
#else
	if(2047==f_ex)
    2352:	8f 3f       	cpi	r24, 0xFF	; 255
    2354:	37 e0       	ldi	r19, 0x07	; 7
    2356:	93 07       	cpc	r25, r19
    2358:	51 f5       	brne	.+84     	; 0x23ae <f_to_decimalExp+0xe8>
	{
		if(0!=w)
    235a:	2c 81       	ldd	r18, Y+4	; 0x04
    235c:	3d 81       	ldd	r19, Y+5	; 0x05
    235e:	4e 81       	ldd	r20, Y+6	; 0x06
    2360:	5f 81       	ldd	r21, Y+7	; 0x07
    2362:	68 85       	ldd	r22, Y+8	; 0x08
    2364:	79 85       	ldd	r23, Y+9	; 0x09
    2366:	8a 85       	ldd	r24, Y+10	; 0x0a
    2368:	9b 85       	ldd	r25, Y+11	; 0x0b
    236a:	a0 e0       	ldi	r26, 0x00	; 0
    236c:	0e 94 65 40 	call	0x80ca	; 0x80ca <__cmpdi2_s8>
    2370:	59 f0       	breq	.+22     	; 0x2388 <f_to_decimalExp+0xc2>
			{ strcpy(TemporaryMemory, "NaN"); return TemporaryMemory; }
    2372:	e2 ec       	ldi	r30, 0xC2	; 194
    2374:	f0 e2       	ldi	r31, 0x20	; 32
    2376:	8e e4       	ldi	r24, 0x4E	; 78
    2378:	91 e6       	ldi	r25, 0x61	; 97
    237a:	80 83       	st	Z, r24
    237c:	91 83       	std	Z+1, r25	; 0x01
    237e:	8e e4       	ldi	r24, 0x4E	; 78
    2380:	90 e0       	ldi	r25, 0x00	; 0
    2382:	82 83       	std	Z+2, r24	; 0x02
    2384:	93 83       	std	Z+3, r25	; 0x03
    2386:	f9 c2       	rjmp	.+1522   	; 0x297a <f_to_decimalExp+0x6b4>
		TemporaryMemory[0]=f_sign ? '-' : '+';
    2388:	89 81       	ldd	r24, Y+1	; 0x01
    238a:	81 11       	cpse	r24, r1
    238c:	02 c0       	rjmp	.+4      	; 0x2392 <f_to_decimalExp+0xcc>
    238e:	8b e2       	ldi	r24, 0x2B	; 43
    2390:	01 c0       	rjmp	.+2      	; 0x2394 <f_to_decimalExp+0xce>
    2392:	8d e2       	ldi	r24, 0x2D	; 45
    2394:	80 93 c2 20 	sts	0x20C2, r24	; 0x8020c2 <__data_end>
		strcpy(TemporaryMemory+1, "INF");
    2398:	e3 ec       	ldi	r30, 0xC3	; 195
    239a:	f0 e2       	ldi	r31, 0x20	; 32
    239c:	89 e4       	ldi	r24, 0x49	; 73
    239e:	9e e4       	ldi	r25, 0x4E	; 78
    23a0:	80 83       	st	Z, r24
    23a2:	91 83       	std	Z+1, r25	; 0x01
    23a4:	86 e4       	ldi	r24, 0x46	; 70
    23a6:	90 e0       	ldi	r25, 0x00	; 0
    23a8:	82 83       	std	Z+2, r24	; 0x02
    23aa:	93 83       	std	Z+3, r25	; 0x03
		return TemporaryMemory;
    23ac:	e6 c2       	rjmp	.+1484   	; 0x297a <f_to_decimalExp+0x6b4>
	}
#endif
	f_ex-=1023; // Nach der Abfrage auf 0==f_ex und 2047==f_ex !
    23ae:	ac 01       	movw	r20, r24
    23b0:	4f 5f       	subi	r20, 0xFF	; 255
    23b2:	53 40       	sbci	r21, 0x03	; 3
    23b4:	4a 83       	std	Y+2, r20	; 0x02
    23b6:	5b 83       	std	Y+3, r21	; 0x03
	len=0;
	if(f_sign)
    23b8:	29 81       	ldd	r18, Y+1	; 0x01
    23ba:	22 23       	and	r18, r18
    23bc:	31 f0       	breq	.+12     	; 0x23ca <f_to_decimalExp+0x104>
		TemporaryMemory[len++]='-';
    23be:	2d e2       	ldi	r18, 0x2D	; 45
    23c0:	20 93 c2 20 	sts	0x20C2, r18	; 0x8020c2 <__data_end>
    23c4:	81 e0       	ldi	r24, 0x01	; 1
    23c6:	88 af       	std	Y+56, r24	; 0x38
    23c8:	01 c0       	rjmp	.+2      	; 0x23cc <f_to_decimalExp+0x106>
		strcpy(TemporaryMemory+1, "INF");
		return TemporaryMemory;
	}
#endif
	f_ex-=1023; // Nach der Abfrage auf 0==f_ex und 2047==f_ex !
	len=0;
    23ca:	18 ae       	std	Y+56, r1	; 0x38
	if(f_sign)
		TemporaryMemory[len++]='-';

	if(f_ex >= 0)
    23cc:	55 23       	and	r21, r21
    23ce:	d4 f0       	brlt	.+52     	; 0x2404 <f_to_decimalExp+0x13e>
		Exp10=(uint16_t)((((uint16_t)f_ex)*10+31)>>5);
    23d0:	1a 01       	movw	r2, r20
    23d2:	22 0c       	add	r2, r2
    23d4:	33 1c       	adc	r3, r3
    23d6:	ca 01       	movw	r24, r20
    23d8:	88 0f       	add	r24, r24
    23da:	99 1f       	adc	r25, r25
    23dc:	88 0f       	add	r24, r24
    23de:	99 1f       	adc	r25, r25
    23e0:	88 0f       	add	r24, r24
    23e2:	99 1f       	adc	r25, r25
    23e4:	28 0e       	add	r2, r24
    23e6:	39 1e       	adc	r3, r25
    23e8:	9f e1       	ldi	r25, 0x1F	; 31
    23ea:	29 0e       	add	r2, r25
    23ec:	31 1c       	adc	r3, r1
    23ee:	36 94       	lsr	r3
    23f0:	27 94       	ror	r2
    23f2:	36 94       	lsr	r3
    23f4:	27 94       	ror	r2
    23f6:	36 94       	lsr	r3
    23f8:	27 94       	ror	r2
    23fa:	36 94       	lsr	r3
    23fc:	27 94       	ror	r2
    23fe:	36 94       	lsr	r3
    2400:	27 94       	ror	r2
    2402:	13 c0       	rjmp	.+38     	; 0x242a <f_to_decimalExp+0x164>
	else
		Exp10=(int16_t)(-((((uint16_t)(-f_ex))*9)>>5));
    2404:	27 ef       	ldi	r18, 0xF7	; 247
    2406:	24 03       	mulsu	r18, r20
    2408:	10 01       	movw	r2, r0
    240a:	25 9f       	mul	r18, r21
    240c:	30 0c       	add	r3, r0
    240e:	11 24       	eor	r1, r1
    2410:	36 94       	lsr	r3
    2412:	27 94       	ror	r2
    2414:	36 94       	lsr	r3
    2416:	27 94       	ror	r2
    2418:	36 94       	lsr	r3
    241a:	27 94       	ror	r2
    241c:	36 94       	lsr	r3
    241e:	27 94       	ror	r2
    2420:	36 94       	lsr	r3
    2422:	27 94       	ror	r2
    2424:	31 94       	neg	r3
    2426:	21 94       	neg	r2
    2428:	31 08       	sbc	r3, r1

	f_ex+=f_10HochN(-Exp10, &w2);
    242a:	ee 27       	eor	r30, r30
    242c:	ff 27       	eor	r31, r31
    242e:	e2 19       	sub	r30, r2
    2430:	f3 09       	sbc	r31, r3
    2432:	0e 2f       	mov	r16, r30
    2434:	df 2e       	mov	r13, r31
    2436:	1f 2f       	mov	r17, r31
    2438:	11 0f       	add	r17, r17
    243a:	11 0b       	sbc	r17, r17
    243c:	c1 2e       	mov	r12, r17
    243e:	91 2e       	mov	r9, r17
    2440:	81 2e       	mov	r8, r17
    2442:	71 2e       	mov	r7, r17
    2444:	61 2e       	mov	r6, r17
#endif

#if defined(F_WITH_to_decimalExp) || defined(F_WITH_to_string) || defined(F_WITH_strtod) || defined(F_WITH_atof)
static int16_t f_10HochN(int64_t n, uint64_t *res)
{
	uint64_t pot=((uint64_t)10)<<60;
    2446:	1c 8a       	std	Y+20, r1	; 0x14
    2448:	1d 8a       	std	Y+21, r1	; 0x15
    244a:	1e 8a       	std	Y+22, r1	; 0x16
    244c:	1f 8a       	std	Y+23, r1	; 0x17
    244e:	18 8e       	std	Y+24, r1	; 0x18
    2450:	19 8e       	std	Y+25, r1	; 0x19
    2452:	1a 8e       	std	Y+26, r1	; 0x1a
    2454:	80 ea       	ldi	r24, 0xA0	; 160
    2456:	8b 8f       	std	Y+27, r24	; 0x1b
	int16_t exp2=0, pot_exp2=3;
	uint8_t neg=0;
	*res=((uint64_t)1)<<63;
    2458:	1c 86       	std	Y+12, r1	; 0x0c
    245a:	1d 86       	std	Y+13, r1	; 0x0d
    245c:	1e 86       	std	Y+14, r1	; 0x0e
    245e:	1f 86       	std	Y+15, r1	; 0x0f
    2460:	18 8a       	std	Y+16, r1	; 0x10
    2462:	19 8a       	std	Y+17, r1	; 0x11
    2464:	1a 8a       	std	Y+18, r1	; 0x12
    2466:	80 e8       	ldi	r24, 0x80	; 128
    2468:	8b 8b       	std	Y+19, r24	; 0x13
	if(n<0)
    246a:	2e 2f       	mov	r18, r30
    246c:	3f 2f       	mov	r19, r31
    246e:	41 2f       	mov	r20, r17
    2470:	51 2f       	mov	r21, r17
    2472:	61 2f       	mov	r22, r17
    2474:	71 2f       	mov	r23, r17
    2476:	81 2f       	mov	r24, r17
    2478:	91 2f       	mov	r25, r17
    247a:	a0 e0       	ldi	r26, 0x00	; 0
    247c:	0e 94 65 40 	call	0x80ca	; 0x80ca <__cmpdi2_s8>
    2480:	0c f0       	brlt	.+2      	; 0x2484 <f_to_decimalExp+0x1be>
    2482:	64 c2       	rjmp	.+1224   	; 0x294c <f_to_decimalExp+0x686>
		{ neg=1; n=-n; }
    2484:	0e 94 f7 3f 	call	0x7fee	; 0x7fee <__negdi2>
    2488:	02 2f       	mov	r16, r18
    248a:	d3 2e       	mov	r13, r19
    248c:	14 2f       	mov	r17, r20
    248e:	c5 2e       	mov	r12, r21
    2490:	96 2e       	mov	r9, r22
    2492:	87 2e       	mov	r8, r23
    2494:	78 2e       	mov	r7, r24
    2496:	69 2e       	mov	r6, r25
	while(0 != n)
    2498:	0e 94 65 40 	call	0x80ca	; 0x80ca <__cmpdi2_s8>
    249c:	09 f4       	brne	.+2      	; 0x24a0 <f_to_decimalExp+0x1da>
    249e:	6b c0       	rjmp	.+214    	; 0x2576 <f_to_decimalExp+0x2b0>
	uint64_t pot=((uint64_t)10)<<60;
	int16_t exp2=0, pot_exp2=3;
	uint8_t neg=0;
	*res=((uint64_t)1)<<63;
	if(n<0)
		{ neg=1; n=-n; }
    24a0:	44 24       	eor	r4, r4
    24a2:	43 94       	inc	r4
    24a4:	01 c0       	rjmp	.+2      	; 0x24a8 <f_to_decimalExp+0x1e2>
#if defined(F_WITH_to_decimalExp) || defined(F_WITH_to_string) || defined(F_WITH_strtod) || defined(F_WITH_atof)
static int16_t f_10HochN(int64_t n, uint64_t *res)
{
	uint64_t pot=((uint64_t)10)<<60;
	int16_t exp2=0, pot_exp2=3;
	uint8_t neg=0;
    24a6:	41 2c       	mov	r4, r1
	*res=((uint64_t)1)<<63;
	if(n<0)
		{ neg=1; n=-n; }
    24a8:	a1 2c       	mov	r10, r1
    24aa:	b1 2c       	mov	r11, r1
    24ac:	0f 2e       	mov	r0, r31
    24ae:	f3 e0       	ldi	r31, 0x03	; 3
    24b0:	ef 2e       	mov	r14, r31
    24b2:	f1 2c       	mov	r15, r1
    24b4:	f0 2d       	mov	r31, r0
	while(0 != n)
	{
		if(0 != (n & 1))
    24b6:	20 2f       	mov	r18, r16
    24b8:	21 70       	andi	r18, 0x01	; 1
    24ba:	30 e0       	ldi	r19, 0x00	; 0
    24bc:	40 e0       	ldi	r20, 0x00	; 0
    24be:	50 e0       	ldi	r21, 0x00	; 0
    24c0:	60 e0       	ldi	r22, 0x00	; 0
    24c2:	70 e0       	ldi	r23, 0x00	; 0
    24c4:	80 e0       	ldi	r24, 0x00	; 0
    24c6:	90 e0       	ldi	r25, 0x00	; 0
    24c8:	a0 e0       	ldi	r26, 0x00	; 0
    24ca:	0e 94 65 40 	call	0x80ca	; 0x80ca <__cmpdi2_s8>
    24ce:	e1 f0       	breq	.+56     	; 0x2508 <f_to_decimalExp+0x242>
		{
			*res = approx_high_uint64_word_of_uint64_mult_uint64(res, &pot, 0);
    24d0:	be 01       	movw	r22, r28
    24d2:	6c 5e       	subi	r22, 0xEC	; 236
    24d4:	7f 4f       	sbci	r23, 0xFF	; 255
    24d6:	ce 01       	movw	r24, r28
    24d8:	0c 96       	adiw	r24, 0x0c	; 12
    24da:	0e 94 4f 05 	call	0xa9e	; 0xa9e <approx_high_uint64_word_of_uint64_mult_uint64>
    24de:	2c 87       	std	Y+12, r18	; 0x0c
    24e0:	3d 87       	std	Y+13, r19	; 0x0d
    24e2:	4e 87       	std	Y+14, r20	; 0x0e
    24e4:	5f 87       	std	Y+15, r21	; 0x0f
    24e6:	68 8b       	std	Y+16, r22	; 0x10
    24e8:	79 8b       	std	Y+17, r23	; 0x11
    24ea:	8a 8b       	std	Y+18, r24	; 0x12
    24ec:	9b 8b       	std	Y+19, r25	; 0x13
			exp2+=pot_exp2+1-f_shift_left_until_bit63_set(res);
    24ee:	ce 01       	movw	r24, r28
    24f0:	0c 96       	adiw	r24, 0x0c	; 12
    24f2:	0e 94 97 04 	call	0x92e	; 0x92e <f_shift_left_until_bit63_set>
    24f6:	97 01       	movw	r18, r14
    24f8:	2f 5f       	subi	r18, 0xFF	; 255
    24fa:	3f 4f       	sbci	r19, 0xFF	; 255
    24fc:	28 1b       	sub	r18, r24
    24fe:	31 09       	sbc	r19, r1
    2500:	87 fd       	sbrc	r24, 7
    2502:	33 95       	inc	r19
    2504:	a2 0e       	add	r10, r18
    2506:	b3 1e       	adc	r11, r19
		}
		pot = approx_high_uint64_word_of_uint64_mult_uint64(&pot, &pot, 0);
    2508:	40 e0       	ldi	r20, 0x00	; 0
    250a:	be 01       	movw	r22, r28
    250c:	6c 5e       	subi	r22, 0xEC	; 236
    250e:	7f 4f       	sbci	r23, 0xFF	; 255
    2510:	cb 01       	movw	r24, r22
    2512:	0e 94 4f 05 	call	0xa9e	; 0xa9e <approx_high_uint64_word_of_uint64_mult_uint64>
    2516:	2c 8b       	std	Y+20, r18	; 0x14
    2518:	3d 8b       	std	Y+21, r19	; 0x15
    251a:	4e 8b       	std	Y+22, r20	; 0x16
    251c:	5f 8b       	std	Y+23, r21	; 0x17
    251e:	68 8f       	std	Y+24, r22	; 0x18
    2520:	79 8f       	std	Y+25, r23	; 0x19
    2522:	8a 8f       	std	Y+26, r24	; 0x1a
    2524:	9b 8f       	std	Y+27, r25	; 0x1b
		pot_exp2=(pot_exp2<<1)+1-f_shift_left_until_bit63_set(&pot);
    2526:	ee 0c       	add	r14, r14
    2528:	ff 1c       	adc	r15, r15
    252a:	af ef       	ldi	r26, 0xFF	; 255
    252c:	ea 1a       	sub	r14, r26
    252e:	fa 0a       	sbc	r15, r26
    2530:	ce 01       	movw	r24, r28
    2532:	44 96       	adiw	r24, 0x14	; 20
    2534:	0e 94 97 04 	call	0x92e	; 0x92e <f_shift_left_until_bit63_set>
    2538:	e8 1a       	sub	r14, r24
    253a:	f1 08       	sbc	r15, r1
    253c:	87 fd       	sbrc	r24, 7
    253e:	f3 94       	inc	r15
		n >>= 1;
    2540:	20 2f       	mov	r18, r16
    2542:	3d 2d       	mov	r19, r13
    2544:	41 2f       	mov	r20, r17
    2546:	5c 2d       	mov	r21, r12
    2548:	69 2d       	mov	r22, r9
    254a:	78 2d       	mov	r23, r8
    254c:	87 2d       	mov	r24, r7
    254e:	96 2d       	mov	r25, r6
    2550:	01 e0       	ldi	r16, 0x01	; 1
    2552:	0e 94 20 40 	call	0x8040	; 0x8040 <__ashrdi3>
    2556:	02 2f       	mov	r16, r18
    2558:	d3 2e       	mov	r13, r19
    255a:	14 2f       	mov	r17, r20
    255c:	c5 2e       	mov	r12, r21
    255e:	96 2e       	mov	r9, r22
    2560:	87 2e       	mov	r8, r23
    2562:	78 2e       	mov	r7, r24
    2564:	69 2e       	mov	r6, r25
	int16_t exp2=0, pot_exp2=3;
	uint8_t neg=0;
	*res=((uint64_t)1)<<63;
	if(n<0)
		{ neg=1; n=-n; }
	while(0 != n)
    2566:	a0 e0       	ldi	r26, 0x00	; 0
    2568:	0e 94 65 40 	call	0x80ca	; 0x80ca <__cmpdi2_s8>
    256c:	09 f0       	breq	.+2      	; 0x2570 <f_to_decimalExp+0x2aa>
    256e:	a3 cf       	rjmp	.-186    	; 0x24b6 <f_to_decimalExp+0x1f0>
		}
		pot = approx_high_uint64_word_of_uint64_mult_uint64(&pot, &pot, 0);
		pot_exp2=(pot_exp2<<1)+1-f_shift_left_until_bit63_set(&pot);
		n >>= 1;
	}
	if(neg)
    2570:	44 20       	and	r4, r4
    2572:	d1 f0       	breq	.+52     	; 0x25a8 <f_to_decimalExp+0x2e2>
    2574:	02 c0       	rjmp	.+4      	; 0x257a <f_to_decimalExp+0x2b4>
	int16_t exp2=0, pot_exp2=3;
	uint8_t neg=0;
	*res=((uint64_t)1)<<63;
	if(n<0)
		{ neg=1; n=-n; }
	while(0 != n)
    2576:	a1 2c       	mov	r10, r1
    2578:	b1 2c       	mov	r11, r1
		pot_exp2=(pot_exp2<<1)+1-f_shift_left_until_bit63_set(&pot);
		n >>= 1;
	}
	if(neg)
	{
		*res = approx_inverse_of_fixpoint_uint64(res);
    257a:	ce 01       	movw	r24, r28
    257c:	0c 96       	adiw	r24, 0x0c	; 12
    257e:	0e 94 9d 06 	call	0xd3a	; 0xd3a <approx_inverse_of_fixpoint_uint64>
    2582:	2c 87       	std	Y+12, r18	; 0x0c
    2584:	3d 87       	std	Y+13, r19	; 0x0d
    2586:	4e 87       	std	Y+14, r20	; 0x0e
    2588:	5f 87       	std	Y+15, r21	; 0x0f
    258a:	68 8b       	std	Y+16, r22	; 0x10
    258c:	79 8b       	std	Y+17, r23	; 0x11
    258e:	8a 8b       	std	Y+18, r24	; 0x12
    2590:	9b 8b       	std	Y+19, r25	; 0x13
		exp2=-exp2-f_shift_left_until_bit63_set(res);
    2592:	b1 94       	neg	r11
    2594:	a1 94       	neg	r10
    2596:	b1 08       	sbc	r11, r1
    2598:	ce 01       	movw	r24, r28
    259a:	0c 96       	adiw	r24, 0x0c	; 12
    259c:	0e 94 97 04 	call	0x92e	; 0x92e <f_shift_left_until_bit63_set>
    25a0:	a8 1a       	sub	r10, r24
    25a2:	b1 08       	sbc	r11, r1
    25a4:	87 fd       	sbrc	r24, 7
    25a6:	b3 94       	inc	r11
	if(f_ex >= 0)
		Exp10=(uint16_t)((((uint16_t)f_ex)*10+31)>>5);
	else
		Exp10=(int16_t)(-((((uint16_t)(-f_ex))*9)>>5));

	f_ex+=f_10HochN(-Exp10, &w2);
    25a8:	8a 81       	ldd	r24, Y+2	; 0x02
    25aa:	9b 81       	ldd	r25, Y+3	; 0x03
    25ac:	a8 0e       	add	r10, r24
    25ae:	b9 1e       	adc	r11, r25
    25b0:	aa 82       	std	Y+2, r10	; 0x02
    25b2:	bb 82       	std	Y+3, r11	; 0x03
	w=approx_high_uint64_word_of_uint64_mult_uint64(&w, &w2, 0);
    25b4:	40 e0       	ldi	r20, 0x00	; 0
    25b6:	be 01       	movw	r22, r28
    25b8:	64 5f       	subi	r22, 0xF4	; 244
    25ba:	7f 4f       	sbci	r23, 0xFF	; 255
    25bc:	ce 01       	movw	r24, r28
    25be:	04 96       	adiw	r24, 0x04	; 4
    25c0:	0e 94 4f 05 	call	0xa9e	; 0xa9e <approx_high_uint64_word_of_uint64_mult_uint64>
    25c4:	2c 83       	std	Y+4, r18	; 0x04
    25c6:	3d 83       	std	Y+5, r19	; 0x05
    25c8:	4e 83       	std	Y+6, r20	; 0x06
    25ca:	5f 83       	std	Y+7, r21	; 0x07
    25cc:	68 87       	std	Y+8, r22	; 0x08
    25ce:	79 87       	std	Y+9, r23	; 0x09
    25d0:	8a 87       	std	Y+10, r24	; 0x0a
    25d2:	9b 87       	std	Y+11, r25	; 0x0b
	f_ex+=1-f_shift_left_until_bit63_set(&w);
    25d4:	ce 01       	movw	r24, r28
    25d6:	04 96       	adiw	r24, 0x04	; 4
    25d8:	0e 94 97 04 	call	0x92e	; 0x92e <f_shift_left_until_bit63_set>
    25dc:	21 e0       	ldi	r18, 0x01	; 1
    25de:	30 e0       	ldi	r19, 0x00	; 0
    25e0:	f9 01       	movw	r30, r18
    25e2:	e8 1b       	sub	r30, r24
    25e4:	f1 09       	sbc	r31, r1
    25e6:	87 fd       	sbrc	r24, 7
    25e8:	f3 95       	inc	r31
    25ea:	cf 01       	movw	r24, r30
    25ec:	2a 81       	ldd	r18, Y+2	; 0x02
    25ee:	3b 81       	ldd	r19, Y+3	; 0x03
    25f0:	82 0f       	add	r24, r18
    25f2:	93 1f       	adc	r25, r19
    25f4:	8a 83       	std	Y+2, r24	; 0x02
    25f6:	9b 83       	std	Y+3, r25	; 0x03

	while(f_ex<0)
    25f8:	99 23       	and	r25, r25
    25fa:	94 f5       	brge	.+100    	; 0x2660 <f_to_decimalExp+0x39a>
    25fc:	0f 2e       	mov	r0, r31
    25fe:	f0 ea       	ldi	r31, 0xA0	; 160
    2600:	ff 2e       	mov	r15, r31
    2602:	f0 2d       	mov	r31, r0
	{
		w=approx_high_uint64_word_of_uint64_mult_uint64_pbv_y(&w, ((uint64_t)10)<<60, 0);
		f_ex+=4-f_shift_left_until_bit63_set(&w);
    2604:	04 e0       	ldi	r16, 0x04	; 4
    2606:	10 e0       	ldi	r17, 0x00	; 0
    2608:	1c a2       	std	Y+36, r1	; 0x24
    260a:	1d a2       	std	Y+37, r1	; 0x25
    260c:	1e a2       	std	Y+38, r1	; 0x26
    260e:	1f a2       	std	Y+39, r1	; 0x27
    2610:	18 a6       	std	Y+40, r1	; 0x28
    2612:	19 a6       	std	Y+41, r1	; 0x29
    2614:	1a a6       	std	Y+42, r1	; 0x2a
    2616:	fb a6       	std	Y+43, r15	; 0x2b
	return r;
}

static uint64_t approx_high_uint64_word_of_uint64_mult_uint64_pbv_y(uint64_t *x, uint64_t y, uint8_t signed_mult)
{
	return approx_high_uint64_word_of_uint64_mult_uint64(x, &y, signed_mult);
    2618:	40 e0       	ldi	r20, 0x00	; 0
    261a:	be 01       	movw	r22, r28
    261c:	6c 5d       	subi	r22, 0xDC	; 220
    261e:	7f 4f       	sbci	r23, 0xFF	; 255
    2620:	ce 01       	movw	r24, r28
    2622:	04 96       	adiw	r24, 0x04	; 4
    2624:	0e 94 4f 05 	call	0xa9e	; 0xa9e <approx_high_uint64_word_of_uint64_mult_uint64>
	w=approx_high_uint64_word_of_uint64_mult_uint64(&w, &w2, 0);
	f_ex+=1-f_shift_left_until_bit63_set(&w);

	while(f_ex<0)
	{
		w=approx_high_uint64_word_of_uint64_mult_uint64_pbv_y(&w, ((uint64_t)10)<<60, 0);
    2628:	2c 83       	std	Y+4, r18	; 0x04
    262a:	3d 83       	std	Y+5, r19	; 0x05
    262c:	4e 83       	std	Y+6, r20	; 0x06
    262e:	5f 83       	std	Y+7, r21	; 0x07
    2630:	68 87       	std	Y+8, r22	; 0x08
    2632:	79 87       	std	Y+9, r23	; 0x09
    2634:	8a 87       	std	Y+10, r24	; 0x0a
    2636:	9b 87       	std	Y+11, r25	; 0x0b
		f_ex+=4-f_shift_left_until_bit63_set(&w);
    2638:	ce 01       	movw	r24, r28
    263a:	04 96       	adiw	r24, 0x04	; 4
    263c:	0e 94 97 04 	call	0x92e	; 0x92e <f_shift_left_until_bit63_set>
    2640:	98 01       	movw	r18, r16
    2642:	28 1b       	sub	r18, r24
    2644:	31 09       	sbc	r19, r1
    2646:	87 fd       	sbrc	r24, 7
    2648:	33 95       	inc	r19
    264a:	8a 81       	ldd	r24, Y+2	; 0x02
    264c:	9b 81       	ldd	r25, Y+3	; 0x03
    264e:	82 0f       	add	r24, r18
    2650:	93 1f       	adc	r25, r19
    2652:	8a 83       	std	Y+2, r24	; 0x02
    2654:	9b 83       	std	Y+3, r25	; 0x03
		Exp10--;
    2656:	f1 e0       	ldi	r31, 0x01	; 1
    2658:	2f 1a       	sub	r2, r31
    265a:	31 08       	sbc	r3, r1

	f_ex+=f_10HochN(-Exp10, &w2);
	w=approx_high_uint64_word_of_uint64_mult_uint64(&w, &w2, 0);
	f_ex+=1-f_shift_left_until_bit63_set(&w);

	while(f_ex<0)
    265c:	99 23       	and	r25, r25
    265e:	a4 f2       	brlt	.-88     	; 0x2608 <f_to_decimalExp+0x342>
    2660:	1c ec       	ldi	r17, 0xCC	; 204
    2662:	2a c0       	rjmp	.+84     	; 0x26b8 <f_to_decimalExp+0x3f2>
    2664:	1c 8f       	std	Y+28, r17	; 0x1c
    2666:	1d 8f       	std	Y+29, r17	; 0x1d
    2668:	1e 8f       	std	Y+30, r17	; 0x1e
    266a:	1f 8f       	std	Y+31, r17	; 0x1f
    266c:	18 a3       	std	Y+32, r17	; 0x20
    266e:	19 a3       	std	Y+33, r17	; 0x21
    2670:	1a a3       	std	Y+34, r17	; 0x22
    2672:	1b a3       	std	Y+35, r17	; 0x23
	return r;
}

static uint64_t approx_high_uint64_word_of_uint64_mult_uint64_pbv_y(uint64_t *x, uint64_t y, uint8_t signed_mult)
{
	return approx_high_uint64_word_of_uint64_mult_uint64(x, &y, signed_mult);
    2674:	40 e0       	ldi	r20, 0x00	; 0
    2676:	be 01       	movw	r22, r28
    2678:	64 5e       	subi	r22, 0xE4	; 228
    267a:	7f 4f       	sbci	r23, 0xFF	; 255
    267c:	ce 01       	movw	r24, r28
    267e:	04 96       	adiw	r24, 0x04	; 4
    2680:	0e 94 4f 05 	call	0xa9e	; 0xa9e <approx_high_uint64_word_of_uint64_mult_uint64>
		f_ex+=4-f_shift_left_until_bit63_set(&w);
		Exp10--;
	}
	while(f_ex>=4 || (f_ex==3 && (w & 0xf000000000000000)>=0xa000000000000000))
	{
		w=approx_high_uint64_word_of_uint64_mult_uint64_pbv_y(&w, 0xcccccccccccccccc, 0);
    2684:	2c 83       	std	Y+4, r18	; 0x04
    2686:	3d 83       	std	Y+5, r19	; 0x05
    2688:	4e 83       	std	Y+6, r20	; 0x06
    268a:	5f 83       	std	Y+7, r21	; 0x07
    268c:	68 87       	std	Y+8, r22	; 0x08
    268e:	79 87       	std	Y+9, r23	; 0x09
    2690:	8a 87       	std	Y+10, r24	; 0x0a
    2692:	9b 87       	std	Y+11, r25	; 0x0b
		f_ex-=3+f_shift_left_until_bit63_set(&w);
    2694:	ce 01       	movw	r24, r28
    2696:	04 96       	adiw	r24, 0x04	; 4
    2698:	0e 94 97 04 	call	0x92e	; 0x92e <f_shift_left_until_bit63_set>
    269c:	08 2e       	mov	r0, r24
    269e:	00 0c       	add	r0, r0
    26a0:	99 0b       	sbc	r25, r25
    26a2:	03 96       	adiw	r24, 0x03	; 3
    26a4:	2a 81       	ldd	r18, Y+2	; 0x02
    26a6:	3b 81       	ldd	r19, Y+3	; 0x03
    26a8:	a9 01       	movw	r20, r18
    26aa:	48 1b       	sub	r20, r24
    26ac:	59 0b       	sbc	r21, r25
    26ae:	4a 83       	std	Y+2, r20	; 0x02
    26b0:	5b 83       	std	Y+3, r21	; 0x03
		Exp10++;
    26b2:	5f ef       	ldi	r21, 0xFF	; 255
    26b4:	25 1a       	sub	r2, r21
    26b6:	35 0a       	sbc	r3, r21
	{
		w=approx_high_uint64_word_of_uint64_mult_uint64_pbv_y(&w, ((uint64_t)10)<<60, 0);
		f_ex+=4-f_shift_left_until_bit63_set(&w);
		Exp10--;
	}
	while(f_ex>=4 || (f_ex==3 && (w & 0xf000000000000000)>=0xa000000000000000))
    26b8:	ea 81       	ldd	r30, Y+2	; 0x02
    26ba:	fb 81       	ldd	r31, Y+3	; 0x03
    26bc:	e4 30       	cpi	r30, 0x04	; 4
    26be:	f1 05       	cpc	r31, r1
    26c0:	8c f6       	brge	.-94     	; 0x2664 <f_to_decimalExp+0x39e>
    26c2:	e3 30       	cpi	r30, 0x03	; 3
    26c4:	f1 05       	cpc	r31, r1
    26c6:	a9 f4       	brne	.+42     	; 0x26f2 <f_to_decimalExp+0x42c>
    26c8:	9b 85       	ldd	r25, Y+11	; 0x0b
    26ca:	20 e0       	ldi	r18, 0x00	; 0
    26cc:	30 e0       	ldi	r19, 0x00	; 0
    26ce:	40 e0       	ldi	r20, 0x00	; 0
    26d0:	50 e0       	ldi	r21, 0x00	; 0
    26d2:	60 e0       	ldi	r22, 0x00	; 0
    26d4:	70 e0       	ldi	r23, 0x00	; 0
    26d6:	80 e0       	ldi	r24, 0x00	; 0
    26d8:	90 7f       	andi	r25, 0xF0	; 240
    26da:	2f 3f       	cpi	r18, 0xFF	; 255
    26dc:	3f 4f       	sbci	r19, 0xFF	; 255
    26de:	4f 4f       	sbci	r20, 0xFF	; 255
    26e0:	5f 4f       	sbci	r21, 0xFF	; 255
    26e2:	6f 4f       	sbci	r22, 0xFF	; 255
    26e4:	7f 4f       	sbci	r23, 0xFF	; 255
    26e6:	8f 4f       	sbci	r24, 0xFF	; 255
    26e8:	9f 49       	sbci	r25, 0x9F	; 159
    26ea:	11 f0       	breq	.+4      	; 0x26f0 <f_to_decimalExp+0x42a>
    26ec:	08 f0       	brcs	.+2      	; 0x26f0 <f_to_decimalExp+0x42a>
    26ee:	ba cf       	rjmp	.-140    	; 0x2664 <f_to_decimalExp+0x39e>
    26f0:	3d c1       	rjmp	.+634    	; 0x296c <f_to_decimalExp+0x6a6>
		w=approx_high_uint64_word_of_uint64_mult_uint64_pbv_y(&w, 0xcccccccccccccccc, 0);
		f_ex-=3+f_shift_left_until_bit63_set(&w);
		Exp10++;
	}
	posm=len;
	++len; // Platz fr .
    26f2:	b8 ad       	ldd	r27, Y+56	; 0x38
    26f4:	bf 5f       	subi	r27, 0xFF	; 255
	while(0!=(anz_dezimal_mantisse--))
    26f6:	8f ef       	ldi	r24, 0xFF	; 255
    26f8:	85 0d       	add	r24, r5
    26fa:	55 20       	and	r5, r5
    26fc:	09 f4       	brne	.+2      	; 0x2700 <f_to_decimalExp+0x43a>
    26fe:	87 c0       	rjmp	.+270    	; 0x280e <f_to_decimalExp+0x548>
	int16_t exp2=0, pot_exp2=3;
	uint8_t neg=0;
	*res=((uint64_t)1)<<63;
	if(n<0)
		{ neg=1; n=-n; }
	while(0 != n)
    2700:	1b 2f       	mov	r17, r27
	while(0!=(anz_dezimal_mantisse--))
	{
		TemporaryMemory[len]='0';
		if(f_ex>=0)
		{
			TemporaryMemory[len] += (w>>(63-f_ex));
    2702:	0f 2e       	mov	r0, r31
    2704:	ff e3       	ldi	r31, 0x3F	; 63
    2706:	4f 2e       	mov	r4, r31
    2708:	51 2c       	mov	r5, r1
    270a:	f0 2d       	mov	r31, r0
			w <<= 1+f_ex;
			f_ex=-1;
		}
		++len;
		w=approx_high_uint64_word_of_uint64_mult_uint64_pbv_y(&w, ((uint64_t)10)<<60, 0);
		f_ex+=4-f_shift_left_until_bit63_set(&w);
    270c:	68 94       	set
    270e:	aa 24       	eor	r10, r10
    2710:	a2 f8       	bld	r10, 2
    2712:	b1 2c       	mov	r11, r1
    2714:	8b 0f       	add	r24, r27
    2716:	99 24       	eor	r9, r9
    2718:	93 94       	inc	r9
    271a:	98 0e       	add	r9, r24
    271c:	2a ae       	std	Y+58, r2	; 0x3a
    271e:	3b ae       	std	Y+59, r3	; 0x3b
	}
	posm=len;
	++len; // Platz fr .
	while(0!=(anz_dezimal_mantisse--))
	{
		TemporaryMemory[len]='0';
    2720:	81 2f       	mov	r24, r17
    2722:	90 e0       	ldi	r25, 0x00	; 0
    2724:	fc 01       	movw	r30, r24
    2726:	ee 53       	subi	r30, 0x3E	; 62
    2728:	ff 4d       	sbci	r31, 0xDF	; 223
    272a:	20 e3       	ldi	r18, 0x30	; 48
    272c:	20 83       	st	Z, r18
		if(f_ex>=0)
    272e:	ea 81       	ldd	r30, Y+2	; 0x02
    2730:	fb 81       	ldd	r31, Y+3	; 0x03
    2732:	ec af       	std	Y+60, r30	; 0x3c
    2734:	fd af       	std	Y+61, r31	; 0x3d
    2736:	ff 23       	and	r31, r31
    2738:	dc f1       	brlt	.+118    	; 0x27b0 <f_to_decimalExp+0x4ea>
		{
			TemporaryMemory[len] += (w>>(63-f_ex));
    273a:	3c 80       	ldd	r3, Y+4	; 0x04
    273c:	6d 80       	ldd	r6, Y+5	; 0x05
    273e:	7e 80       	ldd	r7, Y+6	; 0x06
    2740:	8f 80       	ldd	r8, Y+7	; 0x07
    2742:	e8 84       	ldd	r14, Y+8	; 0x08
    2744:	f9 84       	ldd	r15, Y+9	; 0x09
    2746:	ba 85       	ldd	r27, Y+10	; 0x0a
    2748:	ab 85       	ldd	r26, Y+11	; 0x0b
    274a:	fc 01       	movw	r30, r24
    274c:	ee 53       	subi	r30, 0x3E	; 62
    274e:	ff 4d       	sbci	r31, 0xDF	; 223
    2750:	ec ab       	std	Y+52, r30	; 0x34
    2752:	fd ab       	std	Y+53, r31	; 0x35
    2754:	62 01       	movw	r12, r4
    2756:	ec ad       	ldd	r30, Y+60	; 0x3c
    2758:	fd ad       	ldd	r31, Y+61	; 0x3d
    275a:	ce 1a       	sub	r12, r30
    275c:	df 0a       	sbc	r13, r31
    275e:	23 2d       	mov	r18, r3
    2760:	36 2d       	mov	r19, r6
    2762:	47 2d       	mov	r20, r7
    2764:	58 2d       	mov	r21, r8
    2766:	6e 2d       	mov	r22, r14
    2768:	7f 2d       	mov	r23, r15
    276a:	8b 2f       	mov	r24, r27
    276c:	9a 2f       	mov	r25, r26
    276e:	0c 2d       	mov	r16, r12
    2770:	0e 94 22 40 	call	0x8044	; 0x8044 <__lshrdi3>
    2774:	20 5d       	subi	r18, 0xD0	; 208
    2776:	ec a9       	ldd	r30, Y+52	; 0x34
    2778:	fd a9       	ldd	r31, Y+53	; 0x35
    277a:	20 83       	st	Z, r18
			w <<= 1+f_ex;
    277c:	ec ad       	ldd	r30, Y+60	; 0x3c
    277e:	fd ad       	ldd	r31, Y+61	; 0x3d
    2780:	31 96       	adiw	r30, 0x01	; 1
    2782:	23 2d       	mov	r18, r3
    2784:	36 2d       	mov	r19, r6
    2786:	47 2d       	mov	r20, r7
    2788:	58 2d       	mov	r21, r8
    278a:	6e 2d       	mov	r22, r14
    278c:	7f 2d       	mov	r23, r15
    278e:	8b 2f       	mov	r24, r27
    2790:	9a 2f       	mov	r25, r26
    2792:	0e 2f       	mov	r16, r30
    2794:	0e 94 07 40 	call	0x800e	; 0x800e <__ashldi3>
    2798:	2c 83       	std	Y+4, r18	; 0x04
    279a:	3d 83       	std	Y+5, r19	; 0x05
    279c:	4e 83       	std	Y+6, r20	; 0x06
    279e:	5f 83       	std	Y+7, r21	; 0x07
    27a0:	68 87       	std	Y+8, r22	; 0x08
    27a2:	79 87       	std	Y+9, r23	; 0x09
    27a4:	8a 87       	std	Y+10, r24	; 0x0a
    27a6:	9b 87       	std	Y+11, r25	; 0x0b
			f_ex=-1;
    27a8:	2f ef       	ldi	r18, 0xFF	; 255
    27aa:	3f ef       	ldi	r19, 0xFF	; 255
    27ac:	2a 83       	std	Y+2, r18	; 0x02
    27ae:	3b 83       	std	Y+3, r19	; 0x03
		}
		++len;
    27b0:	1f 5f       	subi	r17, 0xFF	; 255
    27b2:	1c 8a       	std	Y+20, r1	; 0x14
    27b4:	1d 8a       	std	Y+21, r1	; 0x15
    27b6:	1e 8a       	std	Y+22, r1	; 0x16
    27b8:	1f 8a       	std	Y+23, r1	; 0x17
    27ba:	18 8e       	std	Y+24, r1	; 0x18
    27bc:	19 8e       	std	Y+25, r1	; 0x19
    27be:	1a 8e       	std	Y+26, r1	; 0x1a
    27c0:	30 ea       	ldi	r19, 0xA0	; 160
    27c2:	3b 8f       	std	Y+27, r19	; 0x1b
	return r;
}

static uint64_t approx_high_uint64_word_of_uint64_mult_uint64_pbv_y(uint64_t *x, uint64_t y, uint8_t signed_mult)
{
	return approx_high_uint64_word_of_uint64_mult_uint64(x, &y, signed_mult);
    27c4:	40 e0       	ldi	r20, 0x00	; 0
    27c6:	be 01       	movw	r22, r28
    27c8:	6c 5e       	subi	r22, 0xEC	; 236
    27ca:	7f 4f       	sbci	r23, 0xFF	; 255
    27cc:	ce 01       	movw	r24, r28
    27ce:	04 96       	adiw	r24, 0x04	; 4
    27d0:	0e 94 4f 05 	call	0xa9e	; 0xa9e <approx_high_uint64_word_of_uint64_mult_uint64>
			TemporaryMemory[len] += (w>>(63-f_ex));
			w <<= 1+f_ex;
			f_ex=-1;
		}
		++len;
		w=approx_high_uint64_word_of_uint64_mult_uint64_pbv_y(&w, ((uint64_t)10)<<60, 0);
    27d4:	2c 83       	std	Y+4, r18	; 0x04
    27d6:	3d 83       	std	Y+5, r19	; 0x05
    27d8:	4e 83       	std	Y+6, r20	; 0x06
    27da:	5f 83       	std	Y+7, r21	; 0x07
    27dc:	68 87       	std	Y+8, r22	; 0x08
    27de:	79 87       	std	Y+9, r23	; 0x09
    27e0:	8a 87       	std	Y+10, r24	; 0x0a
    27e2:	9b 87       	std	Y+11, r25	; 0x0b
		f_ex+=4-f_shift_left_until_bit63_set(&w);
    27e4:	ce 01       	movw	r24, r28
    27e6:	04 96       	adiw	r24, 0x04	; 4
    27e8:	0e 94 97 04 	call	0x92e	; 0x92e <f_shift_left_until_bit63_set>
    27ec:	a5 01       	movw	r20, r10
    27ee:	48 1b       	sub	r20, r24
    27f0:	51 09       	sbc	r21, r1
    27f2:	87 fd       	sbrc	r24, 7
    27f4:	53 95       	inc	r21
    27f6:	ca 01       	movw	r24, r20
    27f8:	2a 81       	ldd	r18, Y+2	; 0x02
    27fa:	3b 81       	ldd	r19, Y+3	; 0x03
    27fc:	82 0f       	add	r24, r18
    27fe:	93 1f       	adc	r25, r19
    2800:	8a 83       	std	Y+2, r24	; 0x02
    2802:	9b 83       	std	Y+3, r25	; 0x03
    2804:	b9 2d       	mov	r27, r9
		f_ex-=3+f_shift_left_until_bit63_set(&w);
		Exp10++;
	}
	posm=len;
	++len; // Platz fr .
	while(0!=(anz_dezimal_mantisse--))
    2806:	91 12       	cpse	r9, r17
    2808:	8b cf       	rjmp	.-234    	; 0x2720 <f_to_decimalExp+0x45a>
    280a:	2a ac       	ldd	r2, Y+58	; 0x3a
    280c:	3b ac       	ldd	r3, Y+59	; 0x3b
		}
		++len;
		w=approx_high_uint64_word_of_uint64_mult_uint64_pbv_y(&w, ((uint64_t)10)<<60, 0);
		f_ex+=4-f_shift_left_until_bit63_set(&w);
	}
	if(f_ex>=0 && (w>>(63-f_ex)) >= 5)
    280e:	ea 81       	ldd	r30, Y+2	; 0x02
    2810:	fb 81       	ldd	r31, Y+3	; 0x03
    2812:	ff 23       	and	r31, r31
    2814:	0c f4       	brge	.+2      	; 0x2818 <f_to_decimalExp+0x552>
    2816:	5a c0       	rjmp	.+180    	; 0x28cc <f_to_decimalExp+0x606>
    2818:	0f e3       	ldi	r16, 0x3F	; 63
    281a:	10 e0       	ldi	r17, 0x00	; 0
    281c:	0e 1b       	sub	r16, r30
    281e:	1f 0b       	sbc	r17, r31
    2820:	2c 81       	ldd	r18, Y+4	; 0x04
    2822:	3d 81       	ldd	r19, Y+5	; 0x05
    2824:	4e 81       	ldd	r20, Y+6	; 0x06
    2826:	5f 81       	ldd	r21, Y+7	; 0x07
    2828:	68 85       	ldd	r22, Y+8	; 0x08
    282a:	79 85       	ldd	r23, Y+9	; 0x09
    282c:	8a 85       	ldd	r24, Y+10	; 0x0a
    282e:	9b 85       	ldd	r25, Y+11	; 0x0b
    2830:	0e 94 22 40 	call	0x8044	; 0x8044 <__lshrdi3>
    2834:	a4 e0       	ldi	r26, 0x04	; 4
    2836:	0e 94 65 40 	call	0x80ca	; 0x80ca <__cmpdi2_s8>
    283a:	09 f0       	breq	.+2      	; 0x283e <f_to_decimalExp+0x578>
    283c:	08 f4       	brcc	.+2      	; 0x2840 <f_to_decimalExp+0x57a>
    283e:	46 c0       	rjmp	.+140    	; 0x28cc <f_to_decimalExp+0x606>
	{
		for(i=len ; --i>posm ; )
    2840:	3f ef       	ldi	r19, 0xFF	; 255
    2842:	3b 0f       	add	r19, r27
    2844:	58 ad       	ldd	r21, Y+56	; 0x38
    2846:	53 17       	cp	r21, r19
    2848:	f0 f0       	brcs	.+60     	; 0x2886 <f_to_decimalExp+0x5c0>
    284a:	23 2f       	mov	r18, r19
    284c:	3b 2f       	mov	r19, r27
    284e:	26 c0       	rjmp	.+76     	; 0x289c <f_to_decimalExp+0x5d6>
			if(TemporaryMemory[i]=='9')
    2850:	82 2f       	mov	r24, r18
    2852:	90 e0       	ldi	r25, 0x00	; 0
    2854:	fc 01       	movw	r30, r24
    2856:	ee 53       	subi	r30, 0x3E	; 62
    2858:	ff 4d       	sbci	r31, 0xDF	; 223
    285a:	40 81       	ld	r20, Z
    285c:	49 33       	cpi	r20, 0x39	; 57
    285e:	69 f4       	brne	.+26     	; 0x287a <f_to_decimalExp+0x5b4>
		w=approx_high_uint64_word_of_uint64_mult_uint64_pbv_y(&w, ((uint64_t)10)<<60, 0);
		f_ex+=4-f_shift_left_until_bit63_set(&w);
	}
	if(f_ex>=0 && (w>>(63-f_ex)) >= 5)
	{
		for(i=len ; --i>posm ; )
    2860:	32 2f       	mov	r19, r18
    2862:	02 c0       	rjmp	.+4      	; 0x2868 <f_to_decimalExp+0x5a2>
			if(TemporaryMemory[i]=='9')
				TemporaryMemory[i]='0';
    2864:	50 e3       	ldi	r21, 0x30	; 48
    2866:	68 ad       	ldd	r22, Y+56	; 0x38
    2868:	fc 01       	movw	r30, r24
    286a:	ee 53       	subi	r30, 0x3E	; 62
    286c:	ff 4d       	sbci	r31, 0xDF	; 223
    286e:	50 83       	st	Z, r21
		w=approx_high_uint64_word_of_uint64_mult_uint64_pbv_y(&w, ((uint64_t)10)<<60, 0);
		f_ex+=4-f_shift_left_until_bit63_set(&w);
	}
	if(f_ex>=0 && (w>>(63-f_ex)) >= 5)
	{
		for(i=len ; --i>posm ; )
    2870:	2f ef       	ldi	r18, 0xFF	; 255
    2872:	23 0f       	add	r18, r19
    2874:	62 17       	cp	r22, r18
    2876:	60 f3       	brcs	.-40     	; 0x2850 <f_to_decimalExp+0x58a>
    2878:	11 c0       	rjmp	.+34     	; 0x289c <f_to_decimalExp+0x5d6>
			if(TemporaryMemory[i]=='9')
				TemporaryMemory[i]='0';
			else
			{
				++TemporaryMemory[i];
    287a:	fc 01       	movw	r30, r24
    287c:	ee 53       	subi	r30, 0x3E	; 62
    287e:	ff 4d       	sbci	r31, 0xDF	; 223
    2880:	4f 5f       	subi	r20, 0xFF	; 255
    2882:	40 83       	st	Z, r20
				break;
    2884:	0b c0       	rjmp	.+22     	; 0x289c <f_to_decimalExp+0x5d6>
		f_ex+=4-f_shift_left_until_bit63_set(&w);
	}
	if(f_ex>=0 && (w>>(63-f_ex)) >= 5)
	{
		for(i=len ; --i>posm ; )
			if(TemporaryMemory[i]=='9')
    2886:	83 2f       	mov	r24, r19
    2888:	90 e0       	ldi	r25, 0x00	; 0
    288a:	fc 01       	movw	r30, r24
    288c:	ee 53       	subi	r30, 0x3E	; 62
    288e:	ff 4d       	sbci	r31, 0xDF	; 223
    2890:	40 81       	ld	r20, Z
    2892:	49 33       	cpi	r20, 0x39	; 57
    2894:	39 f3       	breq	.-50     	; 0x2864 <f_to_decimalExp+0x59e>
		w=approx_high_uint64_word_of_uint64_mult_uint64_pbv_y(&w, ((uint64_t)10)<<60, 0);
		f_ex+=4-f_shift_left_until_bit63_set(&w);
	}
	if(f_ex>=0 && (w>>(63-f_ex)) >= 5)
	{
		for(i=len ; --i>posm ; )
    2896:	23 2f       	mov	r18, r19
			if(TemporaryMemory[i]=='9')
    2898:	3b 2f       	mov	r19, r27
    289a:	ef cf       	rjmp	.-34     	; 0x287a <f_to_decimalExp+0x5b4>
			else
			{
				++TemporaryMemory[i];
				break;
			}
		if(i==posm)
    289c:	88 ad       	ldd	r24, Y+56	; 0x38
    289e:	82 13       	cpse	r24, r18
    28a0:	15 c0       	rjmp	.+42     	; 0x28cc <f_to_decimalExp+0x606>
		{
			++Exp10;
    28a2:	9f ef       	ldi	r25, 0xFF	; 255
    28a4:	29 1a       	sub	r2, r25
    28a6:	39 0a       	sbc	r3, r25
			TemporaryMemory[++i]='1';
    28a8:	e3 2f       	mov	r30, r19
    28aa:	f0 e0       	ldi	r31, 0x00	; 0
    28ac:	ee 53       	subi	r30, 0x3E	; 62
    28ae:	ff 4d       	sbci	r31, 0xDF	; 223
    28b0:	81 e3       	ldi	r24, 0x31	; 49
    28b2:	80 83       	st	Z, r24
			while(++i<len)
    28b4:	3f 5f       	subi	r19, 0xFF	; 255
    28b6:	3b 17       	cp	r19, r27
    28b8:	48 f4       	brcc	.+18     	; 0x28cc <f_to_decimalExp+0x606>
				TemporaryMemory[i]='0';
    28ba:	80 e3       	ldi	r24, 0x30	; 48
    28bc:	e3 2f       	mov	r30, r19
    28be:	f0 e0       	ldi	r31, 0x00	; 0
    28c0:	ee 53       	subi	r30, 0x3E	; 62
    28c2:	ff 4d       	sbci	r31, 0xDF	; 223
    28c4:	80 83       	st	Z, r24
			}
		if(i==posm)
		{
			++Exp10;
			TemporaryMemory[++i]='1';
			while(++i<len)
    28c6:	3f 5f       	subi	r19, 0xFF	; 255
    28c8:	3b 13       	cpse	r19, r27
    28ca:	f8 cf       	rjmp	.-16     	; 0x28bc <f_to_decimalExp+0x5f6>
				TemporaryMemory[i]='0';
		}
	}
	TemporaryMemory[posm]=TemporaryMemory[posm+1];
    28cc:	a8 ad       	ldd	r26, Y+56	; 0x38
    28ce:	8a 2f       	mov	r24, r26
    28d0:	90 e0       	ldi	r25, 0x00	; 0
    28d2:	fc 01       	movw	r30, r24
    28d4:	31 96       	adiw	r30, 0x01	; 1
    28d6:	af 01       	movw	r20, r30
    28d8:	4e 53       	subi	r20, 0x3E	; 62
    28da:	5f 4d       	sbci	r21, 0xDF	; 223
    28dc:	fa 01       	movw	r30, r20
    28de:	20 81       	ld	r18, Z
    28e0:	8e 53       	subi	r24, 0x3E	; 62
    28e2:	9f 4d       	sbci	r25, 0xDF	; 223
    28e4:	fc 01       	movw	r30, r24
    28e6:	20 83       	st	Z, r18
	TemporaryMemory[posm+1]='.';
    28e8:	8e e2       	ldi	r24, 0x2E	; 46
    28ea:	fa 01       	movw	r30, r20
    28ec:	80 83       	st	Z, r24
	if(MantisseUndExponentGetrennt)
    28ee:	f9 ad       	ldd	r31, Y+57	; 0x39
    28f0:	ff 23       	and	r31, r31
    28f2:	31 f0       	breq	.+12     	; 0x2900 <f_to_decimalExp+0x63a>
		TemporaryMemory[len++]=0;
    28f4:	eb 2f       	mov	r30, r27
    28f6:	f0 e0       	ldi	r31, 0x00	; 0
    28f8:	ee 53       	subi	r30, 0x3E	; 62
    28fa:	ff 4d       	sbci	r31, 0xDF	; 223
    28fc:	10 82       	st	Z, r1
    28fe:	bf 5f       	subi	r27, 0xFF	; 255
	TemporaryMemory[len++]='E';
    2900:	31 e0       	ldi	r19, 0x01	; 1
    2902:	3b 0f       	add	r19, r27
    2904:	8b 2f       	mov	r24, r27
    2906:	90 e0       	ldi	r25, 0x00	; 0
    2908:	8e 53       	subi	r24, 0x3E	; 62
    290a:	9f 4d       	sbci	r25, 0xDF	; 223
    290c:	25 e4       	ldi	r18, 0x45	; 69
    290e:	fc 01       	movw	r30, r24
    2910:	20 83       	st	Z, r18
	if(Exp10>0)
    2912:	12 14       	cp	r1, r2
    2914:	13 04       	cpc	r1, r3
    2916:	44 f4       	brge	.+16     	; 0x2928 <f_to_decimalExp+0x662>
		TemporaryMemory[len++]='+';
    2918:	be 5f       	subi	r27, 0xFE	; 254
    291a:	e3 2f       	mov	r30, r19
    291c:	f0 e0       	ldi	r31, 0x00	; 0
    291e:	ee 53       	subi	r30, 0x3E	; 62
    2920:	ff 4d       	sbci	r31, 0xDF	; 223
    2922:	8b e2       	ldi	r24, 0x2B	; 43
    2924:	80 83       	st	Z, r24
    2926:	01 c0       	rjmp	.+2      	; 0x292a <f_to_decimalExp+0x664>
	}
	TemporaryMemory[posm]=TemporaryMemory[posm+1];
	TemporaryMemory[posm+1]='.';
	if(MantisseUndExponentGetrennt)
		TemporaryMemory[len++]=0;
	TemporaryMemory[len++]='E';
    2928:	b3 2f       	mov	r27, r19
	if(Exp10>0)
		TemporaryMemory[len++]='+';
	itoa(Exp10, &TemporaryMemory[len], 10);
    292a:	6b 2f       	mov	r22, r27
    292c:	70 e0       	ldi	r23, 0x00	; 0
    292e:	6e 53       	subi	r22, 0x3E	; 62
    2930:	7f 4d       	sbci	r23, 0xDF	; 223
    } else if (__radix < 2 || __radix > 36) {
	*__s = 0;
	return __s;
    } else {
	extern char *__itoa_ncheck (int, char *, unsigned char);
	return __itoa_ncheck (__val, __s, __radix);
    2932:	4a e0       	ldi	r20, 0x0A	; 10
    2934:	c1 01       	movw	r24, r2
    2936:	0e 94 8e 41 	call	0x831c	; 0x831c <__itoa_ncheck>
	if(0!=ExponentBasis10)
    293a:	2e a9       	ldd	r18, Y+54	; 0x36
    293c:	3f a9       	ldd	r19, Y+55	; 0x37
    293e:	21 15       	cp	r18, r1
    2940:	31 05       	cpc	r19, r1
    2942:	d9 f0       	breq	.+54     	; 0x297a <f_to_decimalExp+0x6b4>
		*ExponentBasis10=Exp10;
    2944:	f9 01       	movw	r30, r18
    2946:	20 82       	st	Z, r2
    2948:	31 82       	std	Z+1, r3	; 0x01
    294a:	17 c0       	rjmp	.+46     	; 0x297a <f_to_decimalExp+0x6b4>
	int16_t exp2=0, pot_exp2=3;
	uint8_t neg=0;
	*res=((uint64_t)1)<<63;
	if(n<0)
		{ neg=1; n=-n; }
	while(0 != n)
    294c:	2e 2f       	mov	r18, r30
    294e:	3f 2f       	mov	r19, r31
    2950:	41 2f       	mov	r20, r17
    2952:	51 2f       	mov	r21, r17
    2954:	61 2f       	mov	r22, r17
    2956:	71 2f       	mov	r23, r17
    2958:	81 2f       	mov	r24, r17
    295a:	91 2f       	mov	r25, r17
    295c:	a0 e0       	ldi	r26, 0x00	; 0
    295e:	0e 94 65 40 	call	0x80ca	; 0x80ca <__cmpdi2_s8>
    2962:	09 f0       	breq	.+2      	; 0x2966 <f_to_decimalExp+0x6a0>
    2964:	a0 cd       	rjmp	.-1216   	; 0x24a6 <f_to_decimalExp+0x1e0>
    2966:	a1 2c       	mov	r10, r1
    2968:	b1 2c       	mov	r11, r1
    296a:	1e ce       	rjmp	.-964    	; 0x25a8 <f_to_decimalExp+0x2e2>
		w=approx_high_uint64_word_of_uint64_mult_uint64_pbv_y(&w, 0xcccccccccccccccc, 0);
		f_ex-=3+f_shift_left_until_bit63_set(&w);
		Exp10++;
	}
	posm=len;
	++len; // Platz fr .
    296c:	b8 ad       	ldd	r27, Y+56	; 0x38
    296e:	bf 5f       	subi	r27, 0xFF	; 255
	while(0!=(anz_dezimal_mantisse--))
    2970:	8f ef       	ldi	r24, 0xFF	; 255
    2972:	85 0d       	add	r24, r5
    2974:	51 10       	cpse	r5, r1
    2976:	c4 ce       	rjmp	.-632    	; 0x2700 <f_to_decimalExp+0x43a>
    2978:	4f cf       	rjmp	.-354    	; 0x2818 <f_to_decimalExp+0x552>
		TemporaryMemory[len++]='+';
	itoa(Exp10, &TemporaryMemory[len], 10);
	if(0!=ExponentBasis10)
		*ExponentBasis10=Exp10;
	return TemporaryMemory;
}
    297a:	82 ec       	ldi	r24, 0xC2	; 194
    297c:	90 e2       	ldi	r25, 0x20	; 32
    297e:	ed 96       	adiw	r28, 0x3d	; 61
    2980:	cd bf       	out	0x3d, r28	; 61
    2982:	de bf       	out	0x3e, r29	; 62
    2984:	df 91       	pop	r29
    2986:	cf 91       	pop	r28
    2988:	1f 91       	pop	r17
    298a:	0f 91       	pop	r16
    298c:	ff 90       	pop	r15
    298e:	ef 90       	pop	r14
    2990:	df 90       	pop	r13
    2992:	cf 90       	pop	r12
    2994:	bf 90       	pop	r11
    2996:	af 90       	pop	r10
    2998:	9f 90       	pop	r9
    299a:	8f 90       	pop	r8
    299c:	7f 90       	pop	r7
    299e:	6f 90       	pop	r6
    29a0:	5f 90       	pop	r5
    29a2:	4f 90       	pop	r4
    29a4:	3f 90       	pop	r3
    29a6:	2f 90       	pop	r2
    29a8:	08 95       	ret

000029aa <f_to_string>:
#endif

#ifdef F_WITH_to_string
char *f_to_string(float64_t x, uint8_t max_nr_chars, uint8_t max_leading_mantisse_zeros)
{	// f_to_decimalExp() converts the float64 to the decimal representation of the number x if x is
    29aa:	2f 92       	push	r2
    29ac:	3f 92       	push	r3
    29ae:	4f 92       	push	r4
    29b0:	5f 92       	push	r5
    29b2:	6f 92       	push	r6
    29b4:	7f 92       	push	r7
    29b6:	8f 92       	push	r8
    29b8:	9f 92       	push	r9
    29ba:	af 92       	push	r10
    29bc:	bf 92       	push	r11
    29be:	cf 92       	push	r12
    29c0:	df 92       	push	r13
    29c2:	ef 92       	push	r14
    29c4:	ff 92       	push	r15
    29c6:	0f 93       	push	r16
    29c8:	1f 93       	push	r17
    29ca:	cf 93       	push	r28
    29cc:	df 93       	push	r29
    29ce:	cd b7       	in	r28, 0x3d	; 61
    29d0:	de b7       	in	r29, 0x3e	; 62
    29d2:	65 97       	sbiw	r28, 0x15	; 21
    29d4:	cd bf       	out	0x3d, r28	; 61
    29d6:	de bf       	out	0x3e, r29	; 62
    29d8:	a2 2e       	mov	r10, r18
    29da:	73 2e       	mov	r7, r19
    29dc:	64 2e       	mov	r6, r20
    29de:	55 2e       	mov	r5, r21
    29e0:	46 2e       	mov	r4, r22
    29e2:	37 2e       	mov	r3, r23
    29e4:	f8 2e       	mov	r15, r24
    29e6:	b9 2e       	mov	r11, r25
    29e8:	80 2e       	mov	r8, r16
    29ea:	ea 8a       	std	Y+18, r14	; 0x12
	// in this memory will become invalid if one of the functions f_to_decimalExp(), f_to_string(),
	// f_exp(), f_log(), f_sin(), f_cos(), f_tan(), f_arcsin(), f_arccos(), f_arctan() is called as
	// these functions will overwrite the memory.

	int16_t exp10;
	int8_t nrd=(0!=(x & 0x8000000000000000)) ? (max_nr_chars-1) : max_nr_chars; // nrd: Zahl der zu berechnenden dezimalen Mantissestellen.
    29ec:	a0 e0       	ldi	r26, 0x00	; 0
    29ee:	0e 94 65 40 	call	0x80ca	; 0x80ca <__cmpdi2_s8>
    29f2:	24 f4       	brge	.+8      	; 0x29fc <f_to_string+0x52>
    29f4:	99 24       	eor	r9, r9
    29f6:	9a 94       	dec	r9
    29f8:	90 0e       	add	r9, r16
    29fa:	01 c0       	rjmp	.+2      	; 0x29fe <f_to_string+0x54>
    29fc:	90 2e       	mov	r9, r16
	int8_t nrd_vor=nrd+1;
    29fe:	11 e0       	ldi	r17, 0x01	; 1
    2a00:	19 0d       	add	r17, r9
	char *r=0;
	uint8_t j, k;
	for(j=0; j<3 && nrd!=nrd_vor; j++)
	{
		if(nrd>nrd_vor)
    2a02:	19 15       	cp	r17, r9
    2a04:	54 f5       	brge	.+84     	; 0x2a5a <f_to_string+0xb0>
    2a06:	04 c0       	rjmp	.+8      	; 0x2a10 <f_to_string+0x66>
    2a08:	91 16       	cp	r9, r17
    2a0a:	0c f0       	brlt	.+2      	; 0x2a0e <f_to_string+0x64>
    2a0c:	63 c0       	rjmp	.+198    	; 0x2ad4 <f_to_string+0x12a>
    2a0e:	03 c0       	rjmp	.+6      	; 0x2a16 <f_to_string+0x6c>
    2a10:	81 2f       	mov	r24, r17
	// in this memory will become invalid if one of the functions f_to_decimalExp(), f_to_string(),
	// f_exp(), f_log(), f_sin(), f_cos(), f_tan(), f_arcsin(), f_arccos(), f_arctan() is called as
	// these functions will overwrite the memory.

	int16_t exp10;
	int8_t nrd=(0!=(x & 0x8000000000000000)) ? (max_nr_chars-1) : max_nr_chars; // nrd: Zahl der zu berechnenden dezimalen Mantissestellen.
    2a12:	19 2d       	mov	r17, r9
	int8_t nrd_vor=nrd+1;
    2a14:	98 2e       	mov	r9, r24
	uint8_t j, k;
	for(j=0; j<3 && nrd!=nrd_vor; j++)
	{
		if(nrd>nrd_vor)
		{
			r=f_to_decimalExp(x, nrd_vor, 1, &exp10); // Nur exp10 berechnen
    2a16:	9e 01       	movw	r18, r28
    2a18:	2f 5f       	subi	r18, 0xFF	; 255
    2a1a:	3f 4f       	sbci	r19, 0xFF	; 255
    2a1c:	69 01       	movw	r12, r18
    2a1e:	ee 24       	eor	r14, r14
    2a20:	e3 94       	inc	r14
    2a22:	09 2d       	mov	r16, r9
    2a24:	2a 2d       	mov	r18, r10
    2a26:	37 2d       	mov	r19, r7
    2a28:	46 2d       	mov	r20, r6
    2a2a:	55 2d       	mov	r21, r5
    2a2c:	64 2d       	mov	r22, r4
    2a2e:	73 2d       	mov	r23, r3
    2a30:	8f 2d       	mov	r24, r15
    2a32:	9b 2d       	mov	r25, r11
    2a34:	0e 94 63 11 	call	0x22c6	; 0x22c6 <f_to_decimalExp>
    2a38:	fc 01       	movw	r30, r24
				// Beispiel fr den Fall exp10==max_nr_chars-2 : Es sei max_nr_chars=4, exp10=2, Zahl=683.79426
				// ==> Es wird 684 dargestellt
				// (3 statt 4 Zeichen belegt, weil 683.8 zu viele Zeichen belegen wrde).
	}

	if(0!=(x & 0x7ff0000000000000) && exp10>=-max_leading_mantisse_zeros && nrd>exp10)
    2a3a:	20 e0       	ldi	r18, 0x00	; 0
    2a3c:	30 e0       	ldi	r19, 0x00	; 0
    2a3e:	40 e0       	ldi	r20, 0x00	; 0
    2a40:	50 e0       	ldi	r21, 0x00	; 0
    2a42:	60 e0       	ldi	r22, 0x00	; 0
    2a44:	70 e0       	ldi	r23, 0x00	; 0
    2a46:	8f 2d       	mov	r24, r15
    2a48:	80 7f       	andi	r24, 0xF0	; 240
    2a4a:	9b 2d       	mov	r25, r11
    2a4c:	9f 77       	andi	r25, 0x7F	; 127
    2a4e:	a0 e0       	ldi	r26, 0x00	; 0
    2a50:	0e 94 65 40 	call	0x80ca	; 0x80ca <__cmpdi2_s8>
    2a54:	09 f4       	brne	.+2      	; 0x2a58 <f_to_string+0xae>
    2a56:	78 c1       	rjmp	.+752    	; 0x2d48 <f_to_string+0x39e>
    2a58:	88 c0       	rjmp	.+272    	; 0x2b6a <f_to_string+0x1c0>
		{
			r=f_to_decimalExp(x, nrd_vor, 1, &exp10); // Nur exp10 berechnen
			break;
		}
		r=f_to_decimalExp(x, nrd, 1, &exp10); // Nur exp10 berechnen
		if(((x>>52)&2047)==2047 || 0==(x & 0x7ff0000000000000))
    2a5a:	2a 2d       	mov	r18, r10
    2a5c:	37 2d       	mov	r19, r7
    2a5e:	46 2d       	mov	r20, r6
    2a60:	55 2d       	mov	r21, r5
    2a62:	64 2d       	mov	r22, r4
    2a64:	73 2d       	mov	r23, r3
    2a66:	8f 2d       	mov	r24, r15
    2a68:	9b 2d       	mov	r25, r11
    2a6a:	04 e3       	ldi	r16, 0x34	; 52
    2a6c:	0e 94 22 40 	call	0x8044	; 0x8044 <__lshrdi3>
    2a70:	2b 83       	std	Y+3, r18	; 0x03
    2a72:	37 70       	andi	r19, 0x07	; 7
    2a74:	3b 87       	std	Y+11, r19	; 0x0b
			return r;
		if(exp10<-max_leading_mantisse_zeros-1)
			break;
		nrd_vor=nrd;

		nrd=f_getsign(x) ? max_nr_chars-1 : max_nr_chars;
    2a76:	ef ef       	ldi	r30, 0xFF	; 255
    2a78:	e8 0d       	add	r30, r8
    2a7a:	2a 2d       	mov	r18, r10
    2a7c:	37 2d       	mov	r19, r7
    2a7e:	46 2d       	mov	r20, r6
    2a80:	55 2d       	mov	r21, r5
    2a82:	64 2d       	mov	r22, r4
    2a84:	73 2d       	mov	r23, r3
    2a86:	8f 2d       	mov	r24, r15
    2a88:	9b 2d       	mov	r25, r11
    2a8a:	0f e3       	ldi	r16, 0x3F	; 63
    2a8c:	0e 94 22 40 	call	0x8044	; 0x8044 <__lshrdi3>
    2a90:	20 ff       	sbrs	r18, 0
    2a92:	02 c0       	rjmp	.+4      	; 0x2a98 <f_to_string+0xee>
    2a94:	8e 2f       	mov	r24, r30
    2a96:	01 c0       	rjmp	.+2      	; 0x2a9a <f_to_string+0xf0>
    2a98:	88 2d       	mov	r24, r8
			// Diese Variable nrd muss sowohl hier als oben vor Beginn der Schleife initialisiert werden.
		if(exp10<0)
			nrd += exp10-1; // exp10-1 Zeichen durch 0.00 .... verbraucht.
    2a9a:	8d 8b       	std	Y+21, r24	; 0x15
		else if(exp10+1<nrd) // && exp10>=0 .
    2a9c:	48 2f       	mov	r20, r24
    2a9e:	08 2e       	mov	r0, r24
    2aa0:	00 0c       	add	r0, r0
    2aa2:	55 0b       	sbc	r21, r21
    2aa4:	48 8b       	std	Y+16, r20	; 0x10
    2aa6:	59 8b       	std	Y+17, r21	; 0x11
			--nrd; // Ein Zeichen durch Dezimalpunkt verbraucht.
    2aa8:	0f 2e       	mov	r0, r31
    2aaa:	f3 e0       	ldi	r31, 0x03	; 3
    2aac:	2f 2e       	mov	r2, r31
    2aae:	f0 2d       	mov	r31, r0
		{
			r=f_to_decimalExp(x, nrd_vor, 1, &exp10); // Nur exp10 berechnen
			break;
		}
		r=f_to_decimalExp(x, nrd, 1, &exp10); // Nur exp10 berechnen
		if(((x>>52)&2047)==2047 || 0==(x & 0x7ff0000000000000))
    2ab0:	5f 2d       	mov	r21, r15
    2ab2:	50 7f       	andi	r21, 0xF0	; 240
    2ab4:	5c 87       	std	Y+12, r21	; 0x0c
    2ab6:	9b 2d       	mov	r25, r11
    2ab8:	9f 77       	andi	r25, 0x7F	; 127
    2aba:	9d 87       	std	Y+13, r25	; 0x0d
			return r;
		if(exp10<-max_leading_mantisse_zeros-1)
    2abc:	aa 89       	ldd	r26, Y+18	; 0x12
    2abe:	2a 2f       	mov	r18, r26
    2ac0:	30 e0       	ldi	r19, 0x00	; 0
    2ac2:	a9 01       	movw	r20, r18
    2ac4:	40 95       	com	r20
    2ac6:	50 95       	com	r21
    2ac8:	4e 87       	std	Y+14, r20	; 0x0e
    2aca:	5f 87       	std	Y+15, r21	; 0x0f
			break;
		nrd_vor=nrd;

		nrd=f_getsign(x) ? max_nr_chars-1 : max_nr_chars;
    2acc:	8b 8b       	std	Y+19, r24	; 0x13
			// Diese Variable nrd muss sowohl hier als oben vor Beginn der Schleife initialisiert werden.
		if(exp10<0)
			nrd += exp10-1; // exp10-1 Zeichen durch 0.00 .... verbraucht.
		else if(exp10+1<nrd) // && exp10>=0 .
			--nrd; // Ein Zeichen durch Dezimalpunkt verbraucht.
    2ace:	81 50       	subi	r24, 0x01	; 1
    2ad0:	8c 8b       	std	Y+20, r24	; 0x14
    2ad2:	01 c0       	rjmp	.+2      	; 0x2ad6 <f_to_string+0x12c>
    2ad4:	91 2e       	mov	r9, r17
		if(nrd>nrd_vor)
		{
			r=f_to_decimalExp(x, nrd_vor, 1, &exp10); // Nur exp10 berechnen
			break;
		}
		r=f_to_decimalExp(x, nrd, 1, &exp10); // Nur exp10 berechnen
    2ad6:	ce 01       	movw	r24, r28
    2ad8:	01 96       	adiw	r24, 0x01	; 1
    2ada:	6c 01       	movw	r12, r24
    2adc:	ee 24       	eor	r14, r14
    2ade:	e3 94       	inc	r14
    2ae0:	09 2d       	mov	r16, r9
    2ae2:	2a 2d       	mov	r18, r10
    2ae4:	37 2d       	mov	r19, r7
    2ae6:	46 2d       	mov	r20, r6
    2ae8:	55 2d       	mov	r21, r5
    2aea:	64 2d       	mov	r22, r4
    2aec:	73 2d       	mov	r23, r3
    2aee:	8f 2d       	mov	r24, r15
    2af0:	9b 2d       	mov	r25, r11
    2af2:	0e 94 63 11 	call	0x22c6	; 0x22c6 <f_to_decimalExp>
    2af6:	fc 01       	movw	r30, r24
		if(((x>>52)&2047)==2047 || 0==(x & 0x7ff0000000000000))
    2af8:	2b 81       	ldd	r18, Y+3	; 0x03
    2afa:	3b 85       	ldd	r19, Y+11	; 0x0b
    2afc:	40 e0       	ldi	r20, 0x00	; 0
    2afe:	50 e0       	ldi	r21, 0x00	; 0
    2b00:	60 e0       	ldi	r22, 0x00	; 0
    2b02:	70 e0       	ldi	r23, 0x00	; 0
    2b04:	80 e0       	ldi	r24, 0x00	; 0
    2b06:	90 e0       	ldi	r25, 0x00	; 0
    2b08:	2f 3f       	cpi	r18, 0xFF	; 255
    2b0a:	a7 e0       	ldi	r26, 0x07	; 7
    2b0c:	3a 07       	cpc	r19, r26
    2b0e:	41 05       	cpc	r20, r1
    2b10:	51 05       	cpc	r21, r1
    2b12:	61 05       	cpc	r22, r1
    2b14:	71 05       	cpc	r23, r1
    2b16:	81 05       	cpc	r24, r1
    2b18:	91 05       	cpc	r25, r1
    2b1a:	09 f4       	brne	.+2      	; 0x2b1e <f_to_string+0x174>
    2b1c:	ab c1       	rjmp	.+854    	; 0x2e74 <f_to_string+0x4ca>
    2b1e:	20 e0       	ldi	r18, 0x00	; 0
    2b20:	30 e0       	ldi	r19, 0x00	; 0
    2b22:	8c 85       	ldd	r24, Y+12	; 0x0c
    2b24:	9d 85       	ldd	r25, Y+13	; 0x0d
    2b26:	a0 e0       	ldi	r26, 0x00	; 0
    2b28:	0e 94 65 40 	call	0x80ca	; 0x80ca <__cmpdi2_s8>
    2b2c:	09 f4       	brne	.+2      	; 0x2b30 <f_to_string+0x186>
    2b2e:	a2 c1       	rjmp	.+836    	; 0x2e74 <f_to_string+0x4ca>
			return r;
		if(exp10<-max_leading_mantisse_zeros-1)
    2b30:	89 81       	ldd	r24, Y+1	; 0x01
    2b32:	9a 81       	ldd	r25, Y+2	; 0x02
    2b34:	2e 85       	ldd	r18, Y+14	; 0x0e
    2b36:	3f 85       	ldd	r19, Y+15	; 0x0f
    2b38:	82 17       	cp	r24, r18
    2b3a:	93 07       	cpc	r25, r19
    2b3c:	0c f4       	brge	.+2      	; 0x2b40 <f_to_string+0x196>
    2b3e:	94 c1       	rjmp	.+808    	; 0x2e68 <f_to_string+0x4be>
			break;
		nrd_vor=nrd;

		nrd=f_getsign(x) ? max_nr_chars-1 : max_nr_chars;
			// Diese Variable nrd muss sowohl hier als oben vor Beginn der Schleife initialisiert werden.
		if(exp10<0)
    2b40:	99 23       	and	r25, r25
    2b42:	24 f4       	brge	.+8      	; 0x2b4c <f_to_string+0x1a2>
			nrd += exp10-1; // exp10-1 Zeichen durch 0.00 .... verbraucht.
    2b44:	81 50       	subi	r24, 0x01	; 1
    2b46:	1d 89       	ldd	r17, Y+21	; 0x15
    2b48:	18 0f       	add	r17, r24
    2b4a:	09 c0       	rjmp	.+18     	; 0x2b5e <f_to_string+0x1b4>
		else if(exp10+1<nrd) // && exp10>=0 .
    2b4c:	01 96       	adiw	r24, 0x01	; 1
    2b4e:	48 89       	ldd	r20, Y+16	; 0x10
    2b50:	59 89       	ldd	r21, Y+17	; 0x11
    2b52:	84 17       	cp	r24, r20
    2b54:	95 07       	cpc	r25, r21
    2b56:	14 f4       	brge	.+4      	; 0x2b5c <f_to_string+0x1b2>
			--nrd; // Ein Zeichen durch Dezimalpunkt verbraucht.
    2b58:	1c 89       	ldd	r17, Y+20	; 0x14
    2b5a:	01 c0       	rjmp	.+2      	; 0x2b5e <f_to_string+0x1b4>
			return r;
		if(exp10<-max_leading_mantisse_zeros-1)
			break;
		nrd_vor=nrd;

		nrd=f_getsign(x) ? max_nr_chars-1 : max_nr_chars;
    2b5c:	1b 89       	ldd	r17, Y+19	; 0x13
    2b5e:	2a 94       	dec	r2
	int16_t exp10;
	int8_t nrd=(0!=(x & 0x8000000000000000)) ? (max_nr_chars-1) : max_nr_chars; // nrd: Zahl der zu berechnenden dezimalen Mantissestellen.
	int8_t nrd_vor=nrd+1;
	char *r=0;
	uint8_t j, k;
	for(j=0; j<3 && nrd!=nrd_vor; j++)
    2b60:	22 20       	and	r2, r2
    2b62:	19 f0       	breq	.+6      	; 0x2b6a <f_to_string+0x1c0>
    2b64:	19 11       	cpse	r17, r9
    2b66:	50 cf       	rjmp	.-352    	; 0x2a08 <f_to_string+0x5e>
    2b68:	19 2d       	mov	r17, r9
				// Beispiel fr den Fall exp10==max_nr_chars-2 : Es sei max_nr_chars=4, exp10=2, Zahl=683.79426
				// ==> Es wird 684 dargestellt
				// (3 statt 4 Zeichen belegt, weil 683.8 zu viele Zeichen belegen wrde).
	}

	if(0!=(x & 0x7ff0000000000000) && exp10>=-max_leading_mantisse_zeros && nrd>exp10)
    2b6a:	a9 81       	ldd	r26, Y+1	; 0x01
    2b6c:	ba 81       	ldd	r27, Y+2	; 0x02
    2b6e:	5a 89       	ldd	r21, Y+18	; 0x12
    2b70:	85 2f       	mov	r24, r21
    2b72:	90 e0       	ldi	r25, 0x00	; 0
    2b74:	91 95       	neg	r25
    2b76:	81 95       	neg	r24
    2b78:	91 09       	sbc	r25, r1
    2b7a:	a8 17       	cp	r26, r24
    2b7c:	b9 07       	cpc	r27, r25
    2b7e:	0c f4       	brge	.+2      	; 0x2b82 <f_to_string+0x1d8>
    2b80:	e3 c0       	rjmp	.+454    	; 0x2d48 <f_to_string+0x39e>
    2b82:	81 2f       	mov	r24, r17
    2b84:	11 0f       	add	r17, r17
    2b86:	99 0b       	sbc	r25, r25
    2b88:	a8 17       	cp	r26, r24
    2b8a:	b9 07       	cpc	r27, r25
    2b8c:	0c f0       	brlt	.+2      	; 0x2b90 <f_to_string+0x1e6>
    2b8e:	dc c0       	rjmp	.+440    	; 0x2d48 <f_to_string+0x39e>

/***********************************************************/
static uint8_t f_getsign(float64_t x)
/***********************************************************/
{ uint64_t * px=&x;
 return ((uint8_t)(((*px)>>63)&1));
    2b90:	2a 2d       	mov	r18, r10
    2b92:	37 2d       	mov	r19, r7
    2b94:	46 2d       	mov	r20, r6
    2b96:	55 2d       	mov	r21, r5
    2b98:	64 2d       	mov	r22, r4
    2b9a:	73 2d       	mov	r23, r3
    2b9c:	8f 2d       	mov	r24, r15
    2b9e:	9b 2d       	mov	r25, r11
    2ba0:	0f e3       	ldi	r16, 0x3F	; 63
    2ba2:	0e 94 22 40 	call	0x8044	; 0x8044 <__lshrdi3>
				// (3 statt 4 Zeichen belegt, weil 683.8 zu viele Zeichen belegen wrde).
	}

	if(0!=(x & 0x7ff0000000000000) && exp10>=-max_leading_mantisse_zeros && nrd>exp10)
	{		// Darstellung ohne 10er-Exponent (E)
		if(f_getsign(x))
    2ba6:	62 2f       	mov	r22, r18
    2ba8:	61 70       	andi	r22, 0x01	; 1
    2baa:	20 fd       	sbrc	r18, 0
			++r;  // - Zeichen
    2bac:	31 96       	adiw	r30, 0x01	; 1
		if(exp10<0)
    2bae:	bb 23       	and	r27, r27
    2bb0:	5c f0       	brlt	.+22     	; 0x2bc8 <f_to_string+0x21e>
			for(j=2; ++exp10<0; )
				r[j++]='0';
		}
		else
		{
			for(j=1 ; j<=exp10 ; j++)
    2bb2:	1a 16       	cp	r1, r26
    2bb4:	1b 06       	cpc	r1, r27
    2bb6:	0c f0       	brlt	.+2      	; 0x2bba <f_to_string+0x210>
    2bb8:	84 c0       	rjmp	.+264    	; 0x2cc2 <f_to_string+0x318>
				 if(0==(r[j]=r[j+1]))
    2bba:	82 81       	ldd	r24, Z+2	; 0x02
    2bbc:	81 83       	std	Z+1, r24	; 0x01
    2bbe:	88 23       	and	r24, r24
    2bc0:	09 f4       	brne	.+2      	; 0x2bc4 <f_to_string+0x21a>
    2bc2:	57 c0       	rjmp	.+174    	; 0x2c72 <f_to_string+0x2c8>
    2bc4:	81 e0       	ldi	r24, 0x01	; 1
    2bc6:	74 c0       	rjmp	.+232    	; 0x2cb0 <f_to_string+0x306>
	{		// Darstellung ohne 10er-Exponent (E)
		if(f_getsign(x))
			++r;  // - Zeichen
		if(exp10<0)
		{
			for(j=strlen(r) ; (j--)>0 && '0'==r[j] ; )
    2bc8:	df 01       	movw	r26, r30
    2bca:	0d 90       	ld	r0, X+
    2bcc:	00 20       	and	r0, r0
    2bce:	e9 f7       	brne	.-6      	; 0x2bca <f_to_string+0x220>
    2bd0:	11 97       	sbiw	r26, 0x01	; 1
    2bd2:	9d 01       	movw	r18, r26
    2bd4:	2e 1b       	sub	r18, r30
    2bd6:	3f 0b       	sbc	r19, r31
    2bd8:	8f ef       	ldi	r24, 0xFF	; 255
    2bda:	82 0f       	add	r24, r18
    2bdc:	22 23       	and	r18, r18
    2bde:	21 f1       	breq	.+72     	; 0x2c28 <f_to_string+0x27e>
    2be0:	df 01       	movw	r26, r30
    2be2:	a8 0f       	add	r26, r24
    2be4:	b1 1d       	adc	r27, r1
    2be6:	9c 91       	ld	r25, X
    2be8:	90 33       	cpi	r25, 0x30	; 48
    2bea:	11 f0       	breq	.+4      	; 0x2bf0 <f_to_string+0x246>
    2bec:	3f c1       	rjmp	.+638    	; 0x2e6c <f_to_string+0x4c2>
    2bee:	89 2f       	mov	r24, r25
				r[j]=0;
    2bf0:	1c 92       	st	X, r1
	{		// Darstellung ohne 10er-Exponent (E)
		if(f_getsign(x))
			++r;  // - Zeichen
		if(exp10<0)
		{
			for(j=strlen(r) ; (j--)>0 && '0'==r[j] ; )
    2bf2:	9f ef       	ldi	r25, 0xFF	; 255
    2bf4:	98 0f       	add	r25, r24
    2bf6:	88 23       	and	r24, r24
    2bf8:	b9 f0       	breq	.+46     	; 0x2c28 <f_to_string+0x27e>
    2bfa:	df 01       	movw	r26, r30
    2bfc:	a9 0f       	add	r26, r25
    2bfe:	b1 1d       	adc	r27, r1
    2c00:	2c 91       	ld	r18, X
    2c02:	20 33       	cpi	r18, 0x30	; 48
    2c04:	a1 f3       	breq	.-24     	; 0x2bee <f_to_string+0x244>
    2c06:	33 c1       	rjmp	.+614    	; 0x2e6e <f_to_string+0x4c4>
				r[j]=0;
			r[1]=r[0];
			for(++j ; j>0 ; j--)
				r[j-exp10]=r[j];
    2c08:	28 2f       	mov	r18, r24
    2c0a:	30 e0       	ldi	r19, 0x00	; 0
    2c0c:	df 01       	movw	r26, r30
    2c0e:	a2 0f       	add	r26, r18
    2c10:	b3 1f       	adc	r27, r19
    2c12:	9c 91       	ld	r25, X
    2c14:	49 81       	ldd	r20, Y+1	; 0x01
    2c16:	5a 81       	ldd	r21, Y+2	; 0x02
    2c18:	24 1b       	sub	r18, r20
    2c1a:	35 0b       	sbc	r19, r21
    2c1c:	df 01       	movw	r26, r30
    2c1e:	a2 0f       	add	r26, r18
    2c20:	b3 1f       	adc	r27, r19
    2c22:	9c 93       	st	X, r25
		if(exp10<0)
		{
			for(j=strlen(r) ; (j--)>0 && '0'==r[j] ; )
				r[j]=0;
			r[1]=r[0];
			for(++j ; j>0 ; j--)
    2c24:	81 50       	subi	r24, 0x01	; 1
    2c26:	81 f7       	brne	.-32     	; 0x2c08 <f_to_string+0x25e>
				r[j-exp10]=r[j];
			r[0]='0';
    2c28:	80 e3       	ldi	r24, 0x30	; 48
    2c2a:	80 83       	st	Z, r24
			r[1]='.';
    2c2c:	8e e2       	ldi	r24, 0x2E	; 46
    2c2e:	81 83       	std	Z+1, r24	; 0x01
			for(j=2; ++exp10<0; )
    2c30:	89 81       	ldd	r24, Y+1	; 0x01
    2c32:	9a 81       	ldd	r25, Y+2	; 0x02
    2c34:	01 96       	adiw	r24, 0x01	; 1
    2c36:	89 83       	std	Y+1, r24	; 0x01
    2c38:	9a 83       	std	Y+2, r25	; 0x02
    2c3a:	99 23       	and	r25, r25
    2c3c:	0c f0       	brlt	.+2      	; 0x2c40 <f_to_string+0x296>
    2c3e:	7f c0       	rjmp	.+254    	; 0x2d3e <f_to_string+0x394>
    2c40:	22 e0       	ldi	r18, 0x02	; 2
				r[j++]='0';
    2c42:	30 e3       	ldi	r19, 0x30	; 48
    2c44:	df 01       	movw	r26, r30
    2c46:	a2 0f       	add	r26, r18
    2c48:	b1 1d       	adc	r27, r1
    2c4a:	3c 93       	st	X, r19
			r[1]=r[0];
			for(++j ; j>0 ; j--)
				r[j-exp10]=r[j];
			r[0]='0';
			r[1]='.';
			for(j=2; ++exp10<0; )
    2c4c:	89 81       	ldd	r24, Y+1	; 0x01
    2c4e:	9a 81       	ldd	r25, Y+2	; 0x02
    2c50:	01 96       	adiw	r24, 0x01	; 1
    2c52:	89 83       	std	Y+1, r24	; 0x01
    2c54:	9a 83       	std	Y+2, r25	; 0x02
				r[j++]='0';
    2c56:	2f 5f       	subi	r18, 0xFF	; 255
			r[1]=r[0];
			for(++j ; j>0 ; j--)
				r[j-exp10]=r[j];
			r[0]='0';
			r[1]='.';
			for(j=2; ++exp10<0; )
    2c58:	99 23       	and	r25, r25
    2c5a:	a4 f3       	brlt	.-24     	; 0x2c44 <f_to_string+0x29a>
    2c5c:	70 c0       	rjmp	.+224    	; 0x2d3e <f_to_string+0x394>
				r[j++]='0';
		}
		else
		{
			for(j=1 ; j<=exp10 ; j++)
				 if(0==(r[j]=r[j+1]))
    2c5e:	df 01       	movw	r26, r30
    2c60:	a8 0f       	add	r26, r24
    2c62:	b1 1d       	adc	r27, r1
    2c64:	11 96       	adiw	r26, 0x01	; 1
    2c66:	9c 91       	ld	r25, X
    2c68:	11 97       	sbiw	r26, 0x01	; 1
    2c6a:	9c 93       	st	X, r25
    2c6c:	91 11       	cpse	r25, r1
    2c6e:	20 c0       	rjmp	.+64     	; 0x2cb0 <f_to_string+0x306>
    2c70:	01 c0       	rjmp	.+2      	; 0x2c74 <f_to_string+0x2ca>
    2c72:	81 e0       	ldi	r24, 0x01	; 1
				 {
					 while(j<=exp10)
    2c74:	28 2f       	mov	r18, r24
    2c76:	30 e0       	ldi	r19, 0x00	; 0
    2c78:	49 81       	ldd	r20, Y+1	; 0x01
    2c7a:	5a 81       	ldd	r21, Y+2	; 0x02
    2c7c:	42 17       	cp	r20, r18
    2c7e:	53 07       	cpc	r21, r19
    2c80:	84 f0       	brlt	.+32     	; 0x2ca2 <f_to_string+0x2f8>
						 r[j++]='0';
    2c82:	70 e3       	ldi	r23, 0x30	; 48
    2c84:	91 e0       	ldi	r25, 0x01	; 1
    2c86:	98 0f       	add	r25, r24
    2c88:	df 01       	movw	r26, r30
    2c8a:	a8 0f       	add	r26, r24
    2c8c:	b1 1d       	adc	r27, r1
    2c8e:	7c 93       	st	X, r23
    2c90:	89 2f       	mov	r24, r25
		else
		{
			for(j=1 ; j<=exp10 ; j++)
				 if(0==(r[j]=r[j+1]))
				 {
					 while(j<=exp10)
    2c92:	49 2f       	mov	r20, r25
    2c94:	50 e0       	ldi	r21, 0x00	; 0
    2c96:	29 81       	ldd	r18, Y+1	; 0x01
    2c98:	3a 81       	ldd	r19, Y+2	; 0x02
    2c9a:	24 17       	cp	r18, r20
    2c9c:	35 07       	cpc	r19, r21
    2c9e:	94 f7       	brge	.-28     	; 0x2c84 <f_to_string+0x2da>
    2ca0:	01 c0       	rjmp	.+2      	; 0x2ca4 <f_to_string+0x2fa>
    2ca2:	98 2f       	mov	r25, r24
						 r[j++]='0';
					 r[j]=0;
    2ca4:	df 01       	movw	r26, r30
    2ca6:	a9 0f       	add	r26, r25
    2ca8:	b1 1d       	adc	r27, r1
    2caa:	1c 92       	st	X, r1
    2cac:	89 2f       	mov	r24, r25
    2cae:	43 c0       	rjmp	.+134    	; 0x2d36 <f_to_string+0x38c>
			for(j=2; ++exp10<0; )
				r[j++]='0';
		}
		else
		{
			for(j=1 ; j<=exp10 ; j++)
    2cb0:	8f 5f       	subi	r24, 0xFF	; 255
    2cb2:	48 2f       	mov	r20, r24
    2cb4:	50 e0       	ldi	r21, 0x00	; 0
    2cb6:	29 81       	ldd	r18, Y+1	; 0x01
    2cb8:	3a 81       	ldd	r19, Y+2	; 0x02
    2cba:	24 17       	cp	r18, r20
    2cbc:	35 07       	cpc	r19, r21
    2cbe:	7c f6       	brge	.-98     	; 0x2c5e <f_to_string+0x2b4>
    2cc0:	01 c0       	rjmp	.+2      	; 0x2cc4 <f_to_string+0x31a>
    2cc2:	81 e0       	ldi	r24, 0x01	; 1
					 while(j<=exp10)
						 r[j++]='0';
					 r[j]=0;
					 break;
				 }
			if(j+1<max_nr_chars && 0!=r[j])
    2cc4:	28 2f       	mov	r18, r24
    2cc6:	30 e0       	ldi	r19, 0x00	; 0
    2cc8:	2f 5f       	subi	r18, 0xFF	; 255
    2cca:	3f 4f       	sbci	r19, 0xFF	; 255
    2ccc:	91 2c       	mov	r9, r1
    2cce:	28 15       	cp	r18, r8
    2cd0:	39 05       	cpc	r19, r9
    2cd2:	8c f5       	brge	.+98     	; 0x2d36 <f_to_string+0x38c>
    2cd4:	df 01       	movw	r26, r30
    2cd6:	a8 0f       	add	r26, r24
    2cd8:	b1 1d       	adc	r27, r1
    2cda:	9c 91       	ld	r25, X
    2cdc:	99 23       	and	r25, r25
    2cde:	59 f1       	breq	.+86     	; 0x2d36 <f_to_string+0x38c>
			{
				r[j]='.';
    2ce0:	8e e2       	ldi	r24, 0x2E	; 46
    2ce2:	8c 93       	st	X, r24
				for(j=strlen(r) ; (j--)>0 && '0'==r[j] ; )
    2ce4:	df 01       	movw	r26, r30
    2ce6:	0d 90       	ld	r0, X+
    2ce8:	00 20       	and	r0, r0
    2cea:	e9 f7       	brne	.-6      	; 0x2ce6 <f_to_string+0x33c>
    2cec:	11 97       	sbiw	r26, 0x01	; 1
    2cee:	9d 01       	movw	r18, r26
    2cf0:	2e 1b       	sub	r18, r30
    2cf2:	3f 0b       	sbc	r19, r31
    2cf4:	8f ef       	ldi	r24, 0xFF	; 255
    2cf6:	82 0f       	add	r24, r18
    2cf8:	22 23       	and	r18, r18
    2cfa:	a9 f0       	breq	.+42     	; 0x2d26 <f_to_string+0x37c>
    2cfc:	df 01       	movw	r26, r30
    2cfe:	a8 0f       	add	r26, r24
    2d00:	b1 1d       	adc	r27, r1
    2d02:	9c 91       	ld	r25, X
    2d04:	90 33       	cpi	r25, 0x30	; 48
    2d06:	79 f4       	brne	.+30     	; 0x2d26 <f_to_string+0x37c>
    2d08:	8e ef       	ldi	r24, 0xFE	; 254
    2d0a:	82 0f       	add	r24, r18
    2d0c:	01 c0       	rjmp	.+2      	; 0x2d10 <f_to_string+0x366>
    2d0e:	82 2f       	mov	r24, r18
					r[j]=0;
    2d10:	1c 92       	st	X, r1
					 break;
				 }
			if(j+1<max_nr_chars && 0!=r[j])
			{
				r[j]='.';
				for(j=strlen(r) ; (j--)>0 && '0'==r[j] ; )
    2d12:	8f 3f       	cpi	r24, 0xFF	; 255
    2d14:	41 f0       	breq	.+16     	; 0x2d26 <f_to_string+0x37c>
    2d16:	df 01       	movw	r26, r30
    2d18:	a8 0f       	add	r26, r24
    2d1a:	b1 1d       	adc	r27, r1
    2d1c:	2f ef       	ldi	r18, 0xFF	; 255
    2d1e:	28 0f       	add	r18, r24
    2d20:	9c 91       	ld	r25, X
    2d22:	90 33       	cpi	r25, 0x30	; 48
    2d24:	a1 f3       	breq	.-24     	; 0x2d0e <f_to_string+0x364>
					r[j]=0;
				if('.'==r[j])
    2d26:	df 01       	movw	r26, r30
    2d28:	a8 0f       	add	r26, r24
    2d2a:	b1 1d       	adc	r27, r1
    2d2c:	8c 91       	ld	r24, X
    2d2e:	8e 32       	cpi	r24, 0x2E	; 46
    2d30:	31 f4       	brne	.+12     	; 0x2d3e <f_to_string+0x394>
					r[j]=0;
    2d32:	1c 92       	st	X, r1
    2d34:	04 c0       	rjmp	.+8      	; 0x2d3e <f_to_string+0x394>
			}
			else
				r[j]=0; // Notwendig fr den Fall j+1>=max_nr_chars
    2d36:	df 01       	movw	r26, r30
    2d38:	a8 0f       	add	r26, r24
    2d3a:	b1 1d       	adc	r27, r1
    2d3c:	1c 92       	st	X, r1
		}
		if(f_getsign(x))
    2d3e:	66 23       	and	r22, r22
    2d40:	09 f4       	brne	.+2      	; 0x2d44 <f_to_string+0x39a>
    2d42:	98 c0       	rjmp	.+304    	; 0x2e74 <f_to_string+0x4ca>
			--r;
    2d44:	31 97       	sbiw	r30, 0x01	; 1
    2d46:	96 c0       	rjmp	.+300    	; 0x2e74 <f_to_string+0x4ca>

/***********************************************************/
static uint8_t f_getsign(float64_t x)
/***********************************************************/
{ uint64_t * px=&x;
 return ((uint8_t)(((*px)>>63)&1));
    2d48:	2a 2d       	mov	r18, r10
    2d4a:	37 2d       	mov	r19, r7
    2d4c:	46 2d       	mov	r20, r6
    2d4e:	55 2d       	mov	r21, r5
    2d50:	64 2d       	mov	r22, r4
    2d52:	73 2d       	mov	r23, r3
    2d54:	8f 2d       	mov	r24, r15
    2d56:	9b 2d       	mov	r25, r11
    2d58:	0f e3       	ldi	r16, 0x3F	; 63
    2d5a:	0e 94 22 40 	call	0x8044	; 0x8044 <__lshrdi3>
			--r;
	}
	else
	{	// Darstellung mit 10er-Exponent (E)
		j=max_nr_chars-4;
		if(f_getsign(x))
    2d5e:	82 2f       	mov	r24, r18
    2d60:	81 70       	andi	r24, 0x01	; 1
    2d62:	28 2e       	mov	r2, r24
    2d64:	20 fd       	sbrc	r18, 0
    2d66:	03 c0       	rjmp	.+6      	; 0x2d6e <f_to_string+0x3c4>
		if(f_getsign(x))
			--r;
	}
	else
	{	// Darstellung mit 10er-Exponent (E)
		j=max_nr_chars-4;
    2d68:	1c ef       	ldi	r17, 0xFC	; 252
    2d6a:	18 0d       	add	r17, r8
    2d6c:	02 c0       	rjmp	.+4      	; 0x2d72 <f_to_string+0x3c8>
		if(f_getsign(x))
			--j;
    2d6e:	1b ef       	ldi	r17, 0xFB	; 251
    2d70:	18 0d       	add	r17, r8
		exp10=(x>>52)&2047; // exp10 wird hier zur Aufnahme des binren Exponenten "missbraucht"
    2d72:	2a 2d       	mov	r18, r10
    2d74:	37 2d       	mov	r19, r7
    2d76:	46 2d       	mov	r20, r6
    2d78:	55 2d       	mov	r21, r5
    2d7a:	64 2d       	mov	r22, r4
    2d7c:	73 2d       	mov	r23, r3
    2d7e:	8f 2d       	mov	r24, r15
    2d80:	9b 2d       	mov	r25, r11
    2d82:	04 e3       	ldi	r16, 0x34	; 52
    2d84:	0e 94 22 40 	call	0x8044	; 0x8044 <__lshrdi3>
    2d88:	2b 83       	std	Y+3, r18	; 0x03
    2d8a:	3c 83       	std	Y+4, r19	; 0x04
    2d8c:	4d 83       	std	Y+5, r20	; 0x05
    2d8e:	5e 83       	std	Y+6, r21	; 0x06
    2d90:	6f 83       	std	Y+7, r22	; 0x07
    2d92:	78 87       	std	Y+8, r23	; 0x08
    2d94:	89 87       	std	Y+9, r24	; 0x09
    2d96:	9a 87       	std	Y+10, r25	; 0x0a
    2d98:	8b 81       	ldd	r24, Y+3	; 0x03
    2d9a:	9c 81       	ldd	r25, Y+4	; 0x04
    2d9c:	97 70       	andi	r25, 0x07	; 7
    2d9e:	89 83       	std	Y+1, r24	; 0x01
    2da0:	9a 83       	std	Y+2, r25	; 0x02
		if(exp10<1023) --j;
    2da2:	8f 3f       	cpi	r24, 0xFF	; 255
    2da4:	a3 e0       	ldi	r26, 0x03	; 3
    2da6:	9a 07       	cpc	r25, r26
    2da8:	0c f4       	brge	.+2      	; 0x2dac <f_to_string+0x402>
    2daa:	11 50       	subi	r17, 0x01	; 1
		if(exp10>1023+34 || exp10<1023-34) --j;
    2dac:	8d 5d       	subi	r24, 0xDD	; 221
    2dae:	93 40       	sbci	r25, 0x03	; 3
    2db0:	85 34       	cpi	r24, 0x45	; 69
    2db2:	91 05       	cpc	r25, r1
    2db4:	08 f0       	brcs	.+2      	; 0x2db8 <f_to_string+0x40e>
    2db6:	11 50       	subi	r17, 0x01	; 1
		if(j<1) j=1;
    2db8:	11 11       	cpse	r17, r1
    2dba:	0c c0       	rjmp	.+24     	; 0x2dd4 <f_to_string+0x42a>
    2dbc:	11 e0       	ldi	r17, 0x01	; 1
    2dbe:	0a c0       	rjmp	.+20     	; 0x2dd4 <f_to_string+0x42a>
		while((r=f_to_decimalExp(x, j, 0, 0)), strlen(r)>(uint8_t)max_nr_chars)
			if(--j<1)
    2dc0:	11 50       	subi	r17, 0x01	; 1
    2dc2:	49 f4       	brne	.+18     	; 0x2dd6 <f_to_string+0x42c>
				break;
		for(j=2; 0!=r[j] && 'E'!=r[j] && 'e'!=r[j] ; j++)
    2dc4:	82 81       	ldd	r24, Z+2	; 0x02
    2dc6:	88 23       	and	r24, r24
    2dc8:	61 f1       	breq	.+88     	; 0x2e22 <f_to_string+0x478>
    2dca:	8f 7d       	andi	r24, 0xDF	; 223
    2dcc:	85 34       	cpi	r24, 0x45	; 69
    2dce:	e9 f4       	brne	.+58     	; 0x2e0a <f_to_string+0x460>
    2dd0:	92 e0       	ldi	r25, 0x02	; 2
    2dd2:	28 c0       	rjmp	.+80     	; 0x2e24 <f_to_string+0x47a>
			--j;
		exp10=(x>>52)&2047; // exp10 wird hier zur Aufnahme des binren Exponenten "missbraucht"
		if(exp10<1023) --j;
		if(exp10>1023+34 || exp10<1023-34) --j;
		if(j<1) j=1;
		while((r=f_to_decimalExp(x, j, 0, 0)), strlen(r)>(uint8_t)max_nr_chars)
    2dd4:	91 2c       	mov	r9, r1
    2dd6:	c1 2c       	mov	r12, r1
    2dd8:	d1 2c       	mov	r13, r1
    2dda:	e1 2c       	mov	r14, r1
    2ddc:	01 2f       	mov	r16, r17
    2dde:	2a 2d       	mov	r18, r10
    2de0:	37 2d       	mov	r19, r7
    2de2:	46 2d       	mov	r20, r6
    2de4:	55 2d       	mov	r21, r5
    2de6:	64 2d       	mov	r22, r4
    2de8:	73 2d       	mov	r23, r3
    2dea:	8f 2d       	mov	r24, r15
    2dec:	9b 2d       	mov	r25, r11
    2dee:	0e 94 63 11 	call	0x22c6	; 0x22c6 <f_to_decimalExp>
    2df2:	fc 01       	movw	r30, r24
    2df4:	dc 01       	movw	r26, r24
    2df6:	0d 90       	ld	r0, X+
    2df8:	00 20       	and	r0, r0
    2dfa:	e9 f7       	brne	.-6      	; 0x2df6 <f_to_string+0x44c>
    2dfc:	11 97       	sbiw	r26, 0x01	; 1
    2dfe:	a8 1b       	sub	r26, r24
    2e00:	b9 0b       	sbc	r27, r25
    2e02:	8a 16       	cp	r8, r26
    2e04:	9b 06       	cpc	r9, r27
    2e06:	e0 f2       	brcs	.-72     	; 0x2dc0 <f_to_string+0x416>
    2e08:	dd cf       	rjmp	.-70     	; 0x2dc4 <f_to_string+0x41a>
			if(--j<1)
				break;
		for(j=2; 0!=r[j] && 'E'!=r[j] && 'e'!=r[j] ; j++)
    2e0a:	92 e0       	ldi	r25, 0x02	; 2
    2e0c:	9f 5f       	subi	r25, 0xFF	; 255
    2e0e:	df 01       	movw	r26, r30
    2e10:	a9 0f       	add	r26, r25
    2e12:	b1 1d       	adc	r27, r1
    2e14:	8c 91       	ld	r24, X
    2e16:	88 23       	and	r24, r24
    2e18:	29 f0       	breq	.+10     	; 0x2e24 <f_to_string+0x47a>
    2e1a:	8f 7d       	andi	r24, 0xDF	; 223
    2e1c:	85 34       	cpi	r24, 0x45	; 69
    2e1e:	b1 f7       	brne	.-20     	; 0x2e0c <f_to_string+0x462>
    2e20:	01 c0       	rjmp	.+2      	; 0x2e24 <f_to_string+0x47a>
    2e22:	92 e0       	ldi	r25, 0x02	; 2
    2e24:	89 2f       	mov	r24, r25
			;
		k=j;
		while((--j>=4 || (!f_getsign(x) && j>=3)) && '0'==r[j])
    2e26:	81 50       	subi	r24, 0x01	; 1
    2e28:	84 30       	cpi	r24, 0x04	; 4
    2e2a:	20 f4       	brcc	.+8      	; 0x2e34 <f_to_string+0x48a>
    2e2c:	21 10       	cpse	r2, r1
    2e2e:	0a c0       	rjmp	.+20     	; 0x2e44 <f_to_string+0x49a>
    2e30:	83 30       	cpi	r24, 0x03	; 3
    2e32:	50 f0       	brcs	.+20     	; 0x2e48 <f_to_string+0x49e>
    2e34:	df 01       	movw	r26, r30
    2e36:	a8 0f       	add	r26, r24
    2e38:	b1 1d       	adc	r27, r1
    2e3a:	2c 91       	ld	r18, X
    2e3c:	20 33       	cpi	r18, 0x30	; 48
    2e3e:	99 f3       	breq	.-26     	; 0x2e26 <f_to_string+0x47c>
    2e40:	28 2f       	mov	r18, r24
    2e42:	03 c0       	rjmp	.+6      	; 0x2e4a <f_to_string+0x4a0>
    2e44:	28 2f       	mov	r18, r24
    2e46:	01 c0       	rjmp	.+2      	; 0x2e4a <f_to_string+0x4a0>
    2e48:	28 2f       	mov	r18, r24
    2e4a:	98 1b       	sub	r25, r24
    2e4c:	89 2f       	mov	r24, r25
    2e4e:	82 0f       	add	r24, r18
			;
		while(0!=(r[++j]=r[k++]))
    2e50:	2f 5f       	subi	r18, 0xFF	; 255
    2e52:	df 01       	movw	r26, r30
    2e54:	a8 0f       	add	r26, r24
    2e56:	b1 1d       	adc	r27, r1
    2e58:	8c 91       	ld	r24, X
    2e5a:	df 01       	movw	r26, r30
    2e5c:	a2 0f       	add	r26, r18
    2e5e:	b1 1d       	adc	r27, r1
    2e60:	8c 93       	st	X, r24
    2e62:	81 11       	cpse	r24, r1
    2e64:	f3 cf       	rjmp	.-26     	; 0x2e4c <f_to_string+0x4a2>
    2e66:	06 c0       	rjmp	.+12     	; 0x2e74 <f_to_string+0x4ca>
    2e68:	19 2d       	mov	r17, r9
    2e6a:	7f ce       	rjmp	.-770    	; 0x2b6a <f_to_string+0x1c0>
	{		// Darstellung ohne 10er-Exponent (E)
		if(f_getsign(x))
			++r;  // - Zeichen
		if(exp10<0)
		{
			for(j=strlen(r) ; (j--)>0 && '0'==r[j] ; )
    2e6c:	82 2f       	mov	r24, r18
				r[j]=0;
			r[1]=r[0];
    2e6e:	90 81       	ld	r25, Z
    2e70:	91 83       	std	Z+1, r25	; 0x01
    2e72:	ca ce       	rjmp	.-620    	; 0x2c08 <f_to_string+0x25e>
			;
		while(0!=(r[++j]=r[k++]))
			;
	}
	return r;
}
    2e74:	cf 01       	movw	r24, r30
    2e76:	65 96       	adiw	r28, 0x15	; 21
    2e78:	cd bf       	out	0x3d, r28	; 61
    2e7a:	de bf       	out	0x3e, r29	; 62
    2e7c:	df 91       	pop	r29
    2e7e:	cf 91       	pop	r28
    2e80:	1f 91       	pop	r17
    2e82:	0f 91       	pop	r16
    2e84:	ff 90       	pop	r15
    2e86:	ef 90       	pop	r14
    2e88:	df 90       	pop	r13
    2e8a:	cf 90       	pop	r12
    2e8c:	bf 90       	pop	r11
    2e8e:	af 90       	pop	r10
    2e90:	9f 90       	pop	r9
    2e92:	8f 90       	pop	r8
    2e94:	7f 90       	pop	r7
    2e96:	6f 90       	pop	r6
    2e98:	5f 90       	pop	r5
    2e9a:	4f 90       	pop	r4
    2e9c:	3f 90       	pop	r3
    2e9e:	2f 90       	pop	r2
    2ea0:	08 95       	ret

00002ea2 <updateButtons>:
 void updateButtons(void) {
	static uint16_t b1Count = 0;
	static uint16_t b2Count = 0;
	static uint16_t b3Count = 0;
	static uint16_t b4Count = 0;
	if(Button1_Value == 0) 
    2ea2:	80 91 a8 06 	lds	r24, 0x06A8	; 0x8006a8 <__TEXT_REGION_LENGTH__+0x7006a8>
    2ea6:	84 fd       	sbrc	r24, 4
    2ea8:	0e c0       	rjmp	.+28     	; 0x2ec6 <updateButtons+0x24>
	{
		if(b1Count < 60000) 
    2eaa:	80 91 48 21 	lds	r24, 0x2148	; 0x802148 <b1Count.3829>
    2eae:	90 91 49 21 	lds	r25, 0x2149	; 0x802149 <b1Count.3829+0x1>
    2eb2:	80 36       	cpi	r24, 0x60	; 96
    2eb4:	2a ee       	ldi	r18, 0xEA	; 234
    2eb6:	92 07       	cpc	r25, r18
    2eb8:	b8 f4       	brcc	.+46     	; 0x2ee8 <updateButtons+0x46>
		{
			b1Count++;
    2eba:	01 96       	adiw	r24, 0x01	; 1
    2ebc:	80 93 48 21 	sts	0x2148, r24	; 0x802148 <b1Count.3829>
    2ec0:	90 93 49 21 	sts	0x2149, r25	; 0x802149 <b1Count.3829+0x1>
    2ec4:	11 c0       	rjmp	.+34     	; 0x2ee8 <updateButtons+0x46>
		}
	} 
	else 
	{
		if(b1Count > (BUTTON_PRESS_SHORT / (1000/BUTTON_UPDATE_FREQUENCY_HZ))) 
    2ec6:	80 91 48 21 	lds	r24, 0x2148	; 0x802148 <b1Count.3829>
    2eca:	90 91 49 21 	lds	r25, 0x2149	; 0x802149 <b1Count.3829+0x1>
    2ece:	89 2b       	or	r24, r25
    2ed0:	21 f0       	breq	.+8      	; 0x2eda <updateButtons+0x38>
		{
			//Button was pressed Short	
			b1Status = SHORT_PRESSED;
    2ed2:	81 e0       	ldi	r24, 0x01	; 1
    2ed4:	80 93 08 2e 	sts	0x2E08, r24	; 0x802e08 <b1Status>
    2ed8:	03 c0       	rjmp	.+6      	; 0x2ee0 <updateButtons+0x3e>
		}
		else 
		{
			b1Status = NOT_PRESSED;
    2eda:	82 e0       	ldi	r24, 0x02	; 2
    2edc:	80 93 08 2e 	sts	0x2E08, r24	; 0x802e08 <b1Status>
		}
		b1Count = 0;
    2ee0:	10 92 48 21 	sts	0x2148, r1	; 0x802148 <b1Count.3829>
    2ee4:	10 92 49 21 	sts	0x2149, r1	; 0x802149 <b1Count.3829+0x1>
	}
	if(Button2_Value == 0) {
    2ee8:	80 91 a8 06 	lds	r24, 0x06A8	; 0x8006a8 <__TEXT_REGION_LENGTH__+0x7006a8>
    2eec:	85 fd       	sbrc	r24, 5
    2eee:	0e c0       	rjmp	.+28     	; 0x2f0c <updateButtons+0x6a>
		if(b2Count < 60000) {
    2ef0:	80 91 46 21 	lds	r24, 0x2146	; 0x802146 <b2Count.3830>
    2ef4:	90 91 47 21 	lds	r25, 0x2147	; 0x802147 <b2Count.3830+0x1>
    2ef8:	80 36       	cpi	r24, 0x60	; 96
    2efa:	2a ee       	ldi	r18, 0xEA	; 234
    2efc:	92 07       	cpc	r25, r18
    2efe:	b8 f4       	brcc	.+46     	; 0x2f2e <updateButtons+0x8c>
			b2Count++;
    2f00:	01 96       	adiw	r24, 0x01	; 1
    2f02:	80 93 46 21 	sts	0x2146, r24	; 0x802146 <b2Count.3830>
    2f06:	90 93 47 21 	sts	0x2147, r25	; 0x802147 <b2Count.3830+0x1>
    2f0a:	11 c0       	rjmp	.+34     	; 0x2f2e <updateButtons+0x8c>
		}
	} 
	else 
	{
		if(b2Count > (BUTTON_PRESS_SHORT / (1000/BUTTON_UPDATE_FREQUENCY_HZ))) 
    2f0c:	80 91 46 21 	lds	r24, 0x2146	; 0x802146 <b2Count.3830>
    2f10:	90 91 47 21 	lds	r25, 0x2147	; 0x802147 <b2Count.3830+0x1>
    2f14:	89 2b       	or	r24, r25
    2f16:	21 f0       	breq	.+8      	; 0x2f20 <updateButtons+0x7e>
		{
				//Button was pressed Short
				b2Status = SHORT_PRESSED;
    2f18:	81 e0       	ldi	r24, 0x01	; 1
    2f1a:	80 93 09 2e 	sts	0x2E09, r24	; 0x802e09 <b2Status>
    2f1e:	03 c0       	rjmp	.+6      	; 0x2f26 <updateButtons+0x84>
		
		} 
		else 
		{
			b2Status = NOT_PRESSED;			
    2f20:	82 e0       	ldi	r24, 0x02	; 2
    2f22:	80 93 09 2e 	sts	0x2E09, r24	; 0x802e09 <b2Status>
		}
		b2Count = 0;
    2f26:	10 92 46 21 	sts	0x2146, r1	; 0x802146 <b2Count.3830>
    2f2a:	10 92 47 21 	sts	0x2147, r1	; 0x802147 <b2Count.3830+0x1>
	}
	if(Button3_Value == 0) 
    2f2e:	80 91 a8 06 	lds	r24, 0x06A8	; 0x8006a8 <__TEXT_REGION_LENGTH__+0x7006a8>
    2f32:	86 fd       	sbrc	r24, 6
    2f34:	0e c0       	rjmp	.+28     	; 0x2f52 <updateButtons+0xb0>
	{
		if(b3Count < 60000)
    2f36:	80 91 44 21 	lds	r24, 0x2144	; 0x802144 <b3Count.3831>
    2f3a:	90 91 45 21 	lds	r25, 0x2145	; 0x802145 <b3Count.3831+0x1>
    2f3e:	80 36       	cpi	r24, 0x60	; 96
    2f40:	2a ee       	ldi	r18, 0xEA	; 234
    2f42:	92 07       	cpc	r25, r18
    2f44:	b8 f4       	brcc	.+46     	; 0x2f74 <updateButtons+0xd2>
		 {
			b3Count++;
    2f46:	01 96       	adiw	r24, 0x01	; 1
    2f48:	80 93 44 21 	sts	0x2144, r24	; 0x802144 <b3Count.3831>
    2f4c:	90 93 45 21 	sts	0x2145, r25	; 0x802145 <b3Count.3831+0x1>
    2f50:	11 c0       	rjmp	.+34     	; 0x2f74 <updateButtons+0xd2>
		}
	}
	else 
	{
		if(b3Count > (BUTTON_PRESS_SHORT / (1000/BUTTON_UPDATE_FREQUENCY_HZ))) 
    2f52:	80 91 44 21 	lds	r24, 0x2144	; 0x802144 <b3Count.3831>
    2f56:	90 91 45 21 	lds	r25, 0x2145	; 0x802145 <b3Count.3831+0x1>
    2f5a:	89 2b       	or	r24, r25
    2f5c:	21 f0       	breq	.+8      	; 0x2f66 <updateButtons+0xc4>
		{
			//Button was pressed Short
			b3Status = SHORT_PRESSED;
    2f5e:	81 e0       	ldi	r24, 0x01	; 1
    2f60:	80 93 0a 2e 	sts	0x2E0A, r24	; 0x802e0a <b3Status>
    2f64:	03 c0       	rjmp	.+6      	; 0x2f6c <updateButtons+0xca>
			
		} 
		else 
		{
			b3Status = NOT_PRESSED;
    2f66:	82 e0       	ldi	r24, 0x02	; 2
    2f68:	80 93 0a 2e 	sts	0x2E0A, r24	; 0x802e0a <b3Status>
		}
		b3Count = 0;
    2f6c:	10 92 44 21 	sts	0x2144, r1	; 0x802144 <b3Count.3831>
    2f70:	10 92 45 21 	sts	0x2145, r1	; 0x802145 <b3Count.3831+0x1>
	}
	if(Button4_Value == 0)
    2f74:	80 91 a8 06 	lds	r24, 0x06A8	; 0x8006a8 <__TEXT_REGION_LENGTH__+0x7006a8>
    2f78:	88 23       	and	r24, r24
    2f7a:	74 f0       	brlt	.+28     	; 0x2f98 <updateButtons+0xf6>
	 {
		if(b4Count < 60000)
    2f7c:	80 91 42 21 	lds	r24, 0x2142	; 0x802142 <b4Count.3832>
    2f80:	90 91 43 21 	lds	r25, 0x2143	; 0x802143 <b4Count.3832+0x1>
    2f84:	80 36       	cpi	r24, 0x60	; 96
    2f86:	2a ee       	ldi	r18, 0xEA	; 234
    2f88:	92 07       	cpc	r25, r18
    2f8a:	b8 f4       	brcc	.+46     	; 0x2fba <updateButtons+0x118>
		 {
			b4Count++;
    2f8c:	01 96       	adiw	r24, 0x01	; 1
    2f8e:	80 93 42 21 	sts	0x2142, r24	; 0x802142 <b4Count.3832>
    2f92:	90 93 43 21 	sts	0x2143, r25	; 0x802143 <b4Count.3832+0x1>
    2f96:	08 95       	ret
		}
	} 
	else 
	{
		if(b4Count > (BUTTON_PRESS_SHORT / (1000/BUTTON_UPDATE_FREQUENCY_HZ))) 
    2f98:	80 91 42 21 	lds	r24, 0x2142	; 0x802142 <b4Count.3832>
    2f9c:	90 91 43 21 	lds	r25, 0x2143	; 0x802143 <b4Count.3832+0x1>
    2fa0:	89 2b       	or	r24, r25
    2fa2:	21 f0       	breq	.+8      	; 0x2fac <updateButtons+0x10a>
		{
				//Button was pressed Short
				b4Status = SHORT_PRESSED;
    2fa4:	81 e0       	ldi	r24, 0x01	; 1
    2fa6:	80 93 0b 2e 	sts	0x2E0B, r24	; 0x802e0b <b4Status>
    2faa:	03 c0       	rjmp	.+6      	; 0x2fb2 <updateButtons+0x110>
	
		} 
		else
		{
			b4Status = NOT_PRESSED;
    2fac:	82 e0       	ldi	r24, 0x02	; 2
    2fae:	80 93 0b 2e 	sts	0x2E0B, r24	; 0x802e0b <b4Status>
		}
		b4Count = 0;
    2fb2:	10 92 42 21 	sts	0x2142, r1	; 0x802142 <b4Count.3832>
    2fb6:	10 92 43 21 	sts	0x2143, r1	; 0x802143 <b4Count.3832+0x1>
    2fba:	08 95       	ret

00002fbc <getButtonPress>:
	}
 }

 button_press_t getButtonPress(button_t button) {
	switch(button) {
    2fbc:	81 30       	cpi	r24, 0x01	; 1
    2fbe:	49 f0       	breq	.+18     	; 0x2fd2 <getButtonPress+0x16>
    2fc0:	28 f0       	brcs	.+10     	; 0x2fcc <getButtonPress+0x10>
    2fc2:	82 30       	cpi	r24, 0x02	; 2
    2fc4:	49 f0       	breq	.+18     	; 0x2fd8 <getButtonPress+0x1c>
    2fc6:	83 30       	cpi	r24, 0x03	; 3
    2fc8:	51 f0       	breq	.+20     	; 0x2fde <getButtonPress+0x22>
    2fca:	0c c0       	rjmp	.+24     	; 0x2fe4 <getButtonPress+0x28>
		case BUTTON1:
			return b1Status;
    2fcc:	80 91 08 2e 	lds	r24, 0x2E08	; 0x802e08 <b1Status>
    2fd0:	08 95       	ret
		break;
		case BUTTON2:
			return b2Status;
    2fd2:	80 91 09 2e 	lds	r24, 0x2E09	; 0x802e09 <b2Status>
    2fd6:	08 95       	ret
		break;
		case BUTTON3:
			return b3Status;
    2fd8:	80 91 0a 2e 	lds	r24, 0x2E0A	; 0x802e0a <b3Status>
    2fdc:	08 95       	ret
		break;
		case BUTTON4:
			return b4Status;
    2fde:	80 91 0b 2e 	lds	r24, 0x2E0B	; 0x802e0b <b4Status>
    2fe2:	08 95       	ret
		break;
	}
	return NOT_PRESSED;
    2fe4:	82 e0       	ldi	r24, 0x02	; 2
    2fe6:	08 95       	ret

00002fe8 <CCPWrite>:
 *
 *  \param address A pointer to the address to write to.
 *  \param value   The value to put in to the register.
 */
void CCPWrite( volatile uint8_t * address, uint8_t value )
{
    2fe8:	0f 93       	push	r16
    2fea:	cf 93       	push	r28
    2fec:	df 93       	push	r29
    2fee:	1f 92       	push	r1
    2ff0:	cd b7       	in	r28, 0x3d	; 61
    2ff2:	de b7       	in	r29, 0x3e	; 62

	// Restore global interrupt setting from scratch register.
        asm("out  0x3F, R1");

#elif defined __GNUC__
	AVR_ENTER_CRITICAL_REGION( );
    2ff4:	2f b7       	in	r18, 0x3f	; 63
    2ff6:	29 83       	std	Y+1, r18	; 0x01
    2ff8:	f8 94       	cli
	volatile uint8_t * tmpAddr = address;
#ifdef RAMPZ
	RAMPZ = 0;
    2ffa:	1b be       	out	0x3b, r1	; 59
#endif
	asm volatile(
    2ffc:	fc 01       	movw	r30, r24
    2ffe:	08 ed       	ldi	r16, 0xD8	; 216
    3000:	04 bf       	out	0x34, r16	; 52
    3002:	60 83       	st	Z, r22
		:
		: "r" (tmpAddr), "r" (value), "M" (CCP_IOREG_gc), "i" (&CCP)
		: "r16", "r30", "r31"
		);

	AVR_LEAVE_CRITICAL_REGION( );
    3004:	89 81       	ldd	r24, Y+1	; 0x01
    3006:	8f bf       	out	0x3f, r24	; 63
#endif
}
    3008:	0f 90       	pop	r0
    300a:	df 91       	pop	r29
    300c:	cf 91       	pop	r28
    300e:	0f 91       	pop	r16
    3010:	08 95       	ret

00003012 <CLKSYS_XOSC_Config>:
 */
void CLKSYS_XOSC_Config( OSC_FRQRANGE_t freqRange,
                         bool lowPower32kHz,
                         OSC_XOSCSEL_t xoscModeSelection )
{
	OSC.XOSCCTRL = (uint8_t) freqRange |
    3012:	61 11       	cpse	r22, r1
    3014:	02 c0       	rjmp	.+4      	; 0x301a <CLKSYS_XOSC_Config+0x8>
    3016:	90 e0       	ldi	r25, 0x00	; 0
    3018:	01 c0       	rjmp	.+2      	; 0x301c <CLKSYS_XOSC_Config+0xa>
    301a:	90 e2       	ldi	r25, 0x20	; 32
    301c:	84 2b       	or	r24, r20
    301e:	89 2b       	or	r24, r25
    3020:	80 93 52 00 	sts	0x0052, r24	; 0x800052 <__TEXT_REGION_LENGTH__+0x700052>
    3024:	08 95       	ret

00003026 <CLKSYS_PLL_Config>:
 *                      from 1 to 31, inclusive.
 */
void CLKSYS_PLL_Config( OSC_PLLSRC_t clockSource, uint8_t factor )
{
	factor &= OSC_PLLFAC_gm;
	OSC.PLLCTRL = (uint8_t) clockSource | ( factor << OSC_PLLFAC_gp );
    3026:	6f 71       	andi	r22, 0x1F	; 31
    3028:	86 2b       	or	r24, r22
    302a:	80 93 55 00 	sts	0x0055, r24	; 0x800055 <__TEXT_REGION_LENGTH__+0x700055>
    302e:	08 95       	ret

00003030 <CLKSYS_Disable>:
 *
 *  \return  Non-zero if oscillator was disabled successfully.
 */
uint8_t CLKSYS_Disable( uint8_t oscSel )
{
	OSC.CTRL &= ~oscSel;
    3030:	e0 e5       	ldi	r30, 0x50	; 80
    3032:	f0 e0       	ldi	r31, 0x00	; 0
    3034:	90 81       	ld	r25, Z
    3036:	28 2f       	mov	r18, r24
    3038:	20 95       	com	r18
    303a:	92 23       	and	r25, r18
    303c:	90 83       	st	Z, r25
	uint8_t clkEnabled = OSC.CTRL & oscSel;
    303e:	90 81       	ld	r25, Z
	return clkEnabled;
}
    3040:	89 23       	and	r24, r25
    3042:	08 95       	ret

00003044 <CLKSYS_Prescalers_Config>:
 */
void CLKSYS_Prescalers_Config( CLK_PSADIV_t PSAfactor,
                               CLK_PSBCDIV_t PSBCfactor )
{
	uint8_t PSconfig = (uint8_t) PSAfactor | PSBCfactor;
	CCPWrite( &CLK.PSCTRL, PSconfig );
    3044:	68 2b       	or	r22, r24
    3046:	81 e4       	ldi	r24, 0x41	; 65
    3048:	90 e0       	ldi	r25, 0x00	; 0
    304a:	0e 94 f4 17 	call	0x2fe8	; 0x2fe8 <CCPWrite>
    304e:	08 95       	ret

00003050 <CLKSYS_Main_ClockSource_Select>:
 *                       prescaler block.
 *
 *  \return  Non-zero if change was successful.
 */
uint8_t CLKSYS_Main_ClockSource_Select( CLK_SCLKSEL_t clockSource )
{
    3050:	0f 93       	push	r16
    3052:	1f 93       	push	r17
    3054:	cf 93       	push	r28
    3056:	c8 2f       	mov	r28, r24
	uint8_t clkCtrl = ( CLK.CTRL & ~CLK_SCLKSEL_gm ) | clockSource;
    3058:	00 e4       	ldi	r16, 0x40	; 64
    305a:	10 e0       	ldi	r17, 0x00	; 0
    305c:	f8 01       	movw	r30, r16
    305e:	60 81       	ld	r22, Z
	CCPWrite( &CLK.CTRL, clkCtrl );
    3060:	68 7f       	andi	r22, 0xF8	; 248
    3062:	68 2b       	or	r22, r24
    3064:	80 e4       	ldi	r24, 0x40	; 64
    3066:	90 e0       	ldi	r25, 0x00	; 0
    3068:	0e 94 f4 17 	call	0x2fe8	; 0x2fe8 <CCPWrite>
	clkCtrl = ( CLK.CTRL & clockSource );
    306c:	f8 01       	movw	r30, r16
    306e:	80 81       	ld	r24, Z
	return clkCtrl;
}
    3070:	8c 23       	and	r24, r28
    3072:	cf 91       	pop	r28
    3074:	1f 91       	pop	r17
    3076:	0f 91       	pop	r16
    3078:	08 95       	ret

0000307a <TC0_ConfigClockSource>:
{
	/* Make sure only CCxEN bits are set in disableMask. */
	disableMask &= ( TC1_CCAEN_bm | TC1_CCBEN_bm );

	/* Disable channels. */
	tc->CTRLB &= ~disableMask;
    307a:	fc 01       	movw	r30, r24
    307c:	90 81       	ld	r25, Z
    307e:	90 7f       	andi	r25, 0xF0	; 240
    3080:	69 2b       	or	r22, r25
    3082:	60 83       	st	Z, r22
    3084:	08 95       	ret

00003086 <TC0_ConfigWGM>:
    3086:	fc 01       	movw	r30, r24
    3088:	91 81       	ldd	r25, Z+1	; 0x01
    308a:	98 7f       	andi	r25, 0xF8	; 248
    308c:	69 2b       	or	r22, r25
    308e:	61 83       	std	Z+1, r22	; 0x01
    3090:	08 95       	ret

00003092 <TC0_SetOverflowIntLevel>:
 *
 *  \param tc               Timer/Counter module instance.
 *  \param intLevel         New overflow interrupt level.
 */
void TC0_SetOverflowIntLevel( volatile TC0_t * tc, TC_OVFINTLVL_t intLevel )
{
    3092:	fc 01       	movw	r30, r24
	tc->INTCTRLA = ( tc->INTCTRLA & ~TC0_OVFINTLVL_gm ) | intLevel;
    3094:	96 81       	ldd	r25, Z+6	; 0x06
    3096:	9c 7f       	andi	r25, 0xFC	; 252
    3098:	69 2b       	or	r22, r25
    309a:	66 83       	std	Z+6, r22	; 0x06
    309c:	08 95       	ret

0000309e <software_reset>:
	 // TODO from here:
	 //
	 // - log the occurance of any error in flash mem (inc counter)
	 // - print a message

	 software_reset();
    309e:	00 00       	nop
    30a0:	88 ed       	ldi	r24, 0xD8	; 216
    30a2:	84 bf       	out	0x34, r24	; 52
    30a4:	81 e0       	ldi	r24, 0x01	; 1
    30a6:	80 93 79 00 	sts	0x0079, r24	; 0x800079 <__TEXT_REGION_LENGTH__+0x700079>
    30aa:	08 95       	ret

000030ac <vApplicationStackOverflowHook>:
    30ac:	0e 94 4f 18 	call	0x309e	; 0x309e <software_reset>
    30b0:	08 95       	ret

000030b2 <xEventGroupCreate>:
			}
		}
		#endif /* configSUPPORT_DYNAMIC_ALLOCATION */
	}
	( void ) xTaskResumeAll();
}
    30b2:	cf 93       	push	r28
    30b4:	df 93       	push	r29
    30b6:	80 e1       	ldi	r24, 0x10	; 16
    30b8:	90 e0       	ldi	r25, 0x00	; 0
    30ba:	0e 94 05 1a 	call	0x340a	; 0x340a <pvPortMalloc>
    30be:	ec 01       	movw	r28, r24
    30c0:	00 97       	sbiw	r24, 0x00	; 0
    30c2:	41 f0       	breq	.+16     	; 0x30d4 <xEventGroupCreate+0x22>
    30c4:	fc 01       	movw	r30, r24
    30c6:	11 92       	st	Z+, r1
    30c8:	11 92       	st	Z+, r1
    30ca:	11 92       	st	Z+, r1
    30cc:	11 92       	st	Z+, r1
    30ce:	cf 01       	movw	r24, r30
    30d0:	0e 94 2c 1a 	call	0x3458	; 0x3458 <vListInitialise>
    30d4:	ce 01       	movw	r24, r28
    30d6:	df 91       	pop	r29
    30d8:	cf 91       	pop	r28
    30da:	08 95       	ret

000030dc <xEventGroupWaitBits>:
    30dc:	2f 92       	push	r2
    30de:	3f 92       	push	r3
    30e0:	4f 92       	push	r4
    30e2:	5f 92       	push	r5
    30e4:	6f 92       	push	r6
    30e6:	7f 92       	push	r7
    30e8:	8f 92       	push	r8
    30ea:	9f 92       	push	r9
    30ec:	af 92       	push	r10
    30ee:	bf 92       	push	r11
    30f0:	cf 92       	push	r12
    30f2:	df 92       	push	r13
    30f4:	ef 92       	push	r14
    30f6:	ff 92       	push	r15
    30f8:	0f 93       	push	r16
    30fa:	1f 93       	push	r17
    30fc:	cf 93       	push	r28
    30fe:	df 93       	push	r29
    3100:	ec 01       	movw	r28, r24
    3102:	4a 01       	movw	r8, r20
    3104:	5b 01       	movw	r10, r22
    3106:	62 2e       	mov	r6, r18
    3108:	70 2e       	mov	r7, r16
    310a:	0e 94 c6 21 	call	0x438c	; 0x438c <vTaskSuspendAll>
    310e:	28 80       	ld	r2, Y
    3110:	39 80       	ldd	r3, Y+1	; 0x01
    3112:	4a 80       	ldd	r4, Y+2	; 0x02
    3114:	5b 80       	ldd	r5, Y+3	; 0x03
    3116:	01 11       	cpse	r16, r1
    3118:	0d c0       	rjmp	.+26     	; 0x3134 <xEventGroupWaitBits+0x58>
    311a:	81 e0       	ldi	r24, 0x01	; 1
    311c:	b2 01       	movw	r22, r4
    311e:	a1 01       	movw	r20, r2
    3120:	48 21       	and	r20, r8
    3122:	59 21       	and	r21, r9
    3124:	6a 21       	and	r22, r10
    3126:	7b 21       	and	r23, r11
    3128:	45 2b       	or	r20, r21
    312a:	46 2b       	or	r20, r22
    312c:	47 2b       	or	r20, r23
    312e:	79 f4       	brne	.+30     	; 0x314e <xEventGroupWaitBits+0x72>
    3130:	80 e0       	ldi	r24, 0x00	; 0
    3132:	0d c0       	rjmp	.+26     	; 0x314e <xEventGroupWaitBits+0x72>
    3134:	81 e0       	ldi	r24, 0x01	; 1
    3136:	b2 01       	movw	r22, r4
    3138:	a1 01       	movw	r20, r2
    313a:	48 21       	and	r20, r8
    313c:	59 21       	and	r21, r9
    313e:	6a 21       	and	r22, r10
    3140:	7b 21       	and	r23, r11
    3142:	48 15       	cp	r20, r8
    3144:	59 05       	cpc	r21, r9
    3146:	6a 05       	cpc	r22, r10
    3148:	7b 05       	cpc	r23, r11
    314a:	09 f0       	breq	.+2      	; 0x314e <xEventGroupWaitBits+0x72>
    314c:	80 e0       	ldi	r24, 0x00	; 0
    314e:	88 23       	and	r24, r24
    3150:	81 f0       	breq	.+32     	; 0x3172 <xEventGroupWaitBits+0x96>
    3152:	66 20       	and	r6, r6
    3154:	09 f4       	brne	.+2      	; 0x3158 <xEventGroupWaitBits+0x7c>
    3156:	70 c0       	rjmp	.+224    	; 0x3238 <xEventGroupWaitBits+0x15c>
    3158:	80 94       	com	r8
    315a:	90 94       	com	r9
    315c:	a0 94       	com	r10
    315e:	b0 94       	com	r11
    3160:	82 20       	and	r8, r2
    3162:	93 20       	and	r9, r3
    3164:	a4 20       	and	r10, r4
    3166:	b5 20       	and	r11, r5
    3168:	88 82       	st	Y, r8
    316a:	99 82       	std	Y+1, r9	; 0x01
    316c:	aa 82       	std	Y+2, r10	; 0x02
    316e:	bb 82       	std	Y+3, r11	; 0x03
    3170:	63 c0       	rjmp	.+198    	; 0x3238 <xEventGroupWaitBits+0x15c>
    3172:	c1 14       	cp	r12, r1
    3174:	d1 04       	cpc	r13, r1
    3176:	e1 04       	cpc	r14, r1
    3178:	f1 04       	cpc	r15, r1
    317a:	09 f4       	brne	.+2      	; 0x317e <xEventGroupWaitBits+0xa2>
    317c:	5d c0       	rjmp	.+186    	; 0x3238 <xEventGroupWaitBits+0x15c>
    317e:	66 20       	and	r6, r6
    3180:	29 f0       	breq	.+10     	; 0x318c <xEventGroupWaitBits+0xb0>
    3182:	40 e0       	ldi	r20, 0x00	; 0
    3184:	50 e0       	ldi	r21, 0x00	; 0
    3186:	60 e0       	ldi	r22, 0x00	; 0
    3188:	71 e0       	ldi	r23, 0x01	; 1
    318a:	03 c0       	rjmp	.+6      	; 0x3192 <xEventGroupWaitBits+0xb6>
    318c:	40 e0       	ldi	r20, 0x00	; 0
    318e:	50 e0       	ldi	r21, 0x00	; 0
    3190:	ba 01       	movw	r22, r20
    3192:	71 10       	cpse	r7, r1
    3194:	74 60       	ori	r23, 0x04	; 4
    3196:	48 29       	or	r20, r8
    3198:	59 29       	or	r21, r9
    319a:	6a 29       	or	r22, r10
    319c:	7b 29       	or	r23, r11
    319e:	97 01       	movw	r18, r14
    31a0:	86 01       	movw	r16, r12
    31a2:	ce 01       	movw	r24, r28
    31a4:	04 96       	adiw	r24, 0x04	; 4
    31a6:	0e 94 4f 24 	call	0x489e	; 0x489e <vTaskPlaceOnUnorderedEventList>
    31aa:	0e 94 b1 22 	call	0x4562	; 0x4562 <xTaskResumeAll>
    31ae:	81 11       	cpse	r24, r1
    31b0:	02 c0       	rjmp	.+4      	; 0x31b6 <xEventGroupWaitBits+0xda>
    31b2:	0e 94 8a 1b 	call	0x3714	; 0x3714 <vPortYield>
    31b6:	0e 94 8c 25 	call	0x4b18	; 0x4b18 <uxTaskResetEventItemValue>
    31ba:	91 fd       	sbrc	r25, 1
    31bc:	39 c0       	rjmp	.+114    	; 0x3230 <xEventGroupWaitBits+0x154>
    31be:	f0 91 a2 00 	lds	r31, 0x00A2	; 0x8000a2 <__TEXT_REGION_LENGTH__+0x7000a2>
    31c2:	ff 93       	push	r31
    31c4:	f8 7f       	andi	r31, 0xF8	; 248
    31c6:	f0 93 a2 00 	sts	0x00A2, r31	; 0x8000a2 <__TEXT_REGION_LENGTH__+0x7000a2>
    31ca:	68 81       	ld	r22, Y
    31cc:	79 81       	ldd	r23, Y+1	; 0x01
    31ce:	8a 81       	ldd	r24, Y+2	; 0x02
    31d0:	9b 81       	ldd	r25, Y+3	; 0x03
    31d2:	71 10       	cpse	r7, r1
    31d4:	0d c0       	rjmp	.+26     	; 0x31f0 <xEventGroupWaitBits+0x114>
    31d6:	21 e0       	ldi	r18, 0x01	; 1
    31d8:	75 01       	movw	r14, r10
    31da:	64 01       	movw	r12, r8
    31dc:	c6 22       	and	r12, r22
    31de:	d7 22       	and	r13, r23
    31e0:	e8 22       	and	r14, r24
    31e2:	f9 22       	and	r15, r25
    31e4:	cd 28       	or	r12, r13
    31e6:	ce 28       	or	r12, r14
    31e8:	cf 28       	or	r12, r15
    31ea:	79 f4       	brne	.+30     	; 0x320a <xEventGroupWaitBits+0x12e>
    31ec:	20 e0       	ldi	r18, 0x00	; 0
    31ee:	0d c0       	rjmp	.+26     	; 0x320a <xEventGroupWaitBits+0x12e>
    31f0:	21 e0       	ldi	r18, 0x01	; 1
    31f2:	75 01       	movw	r14, r10
    31f4:	64 01       	movw	r12, r8
    31f6:	c6 22       	and	r12, r22
    31f8:	d7 22       	and	r13, r23
    31fa:	e8 22       	and	r14, r24
    31fc:	f9 22       	and	r15, r25
    31fe:	c8 14       	cp	r12, r8
    3200:	d9 04       	cpc	r13, r9
    3202:	ea 04       	cpc	r14, r10
    3204:	fb 04       	cpc	r15, r11
    3206:	09 f0       	breq	.+2      	; 0x320a <xEventGroupWaitBits+0x12e>
    3208:	20 e0       	ldi	r18, 0x00	; 0
    320a:	22 23       	and	r18, r18
    320c:	71 f0       	breq	.+28     	; 0x322a <xEventGroupWaitBits+0x14e>
    320e:	66 20       	and	r6, r6
    3210:	61 f0       	breq	.+24     	; 0x322a <xEventGroupWaitBits+0x14e>
    3212:	80 94       	com	r8
    3214:	90 94       	com	r9
    3216:	a0 94       	com	r10
    3218:	b0 94       	com	r11
    321a:	86 22       	and	r8, r22
    321c:	97 22       	and	r9, r23
    321e:	a8 22       	and	r10, r24
    3220:	b9 22       	and	r11, r25
    3222:	88 82       	st	Y, r8
    3224:	99 82       	std	Y+1, r9	; 0x01
    3226:	aa 82       	std	Y+2, r10	; 0x02
    3228:	bb 82       	std	Y+3, r11	; 0x03
    322a:	ff 91       	pop	r31
    322c:	f0 93 a2 00 	sts	0x00A2, r31	; 0x8000a2 <__TEXT_REGION_LENGTH__+0x7000a2>
    3230:	1b 01       	movw	r2, r22
    3232:	2c 01       	movw	r4, r24
    3234:	55 24       	eor	r5, r5
    3236:	02 c0       	rjmp	.+4      	; 0x323c <xEventGroupWaitBits+0x160>
    3238:	0e 94 b1 22 	call	0x4562	; 0x4562 <xTaskResumeAll>
    323c:	c2 01       	movw	r24, r4
    323e:	b1 01       	movw	r22, r2
    3240:	df 91       	pop	r29
    3242:	cf 91       	pop	r28
    3244:	1f 91       	pop	r17
    3246:	0f 91       	pop	r16
    3248:	ff 90       	pop	r15
    324a:	ef 90       	pop	r14
    324c:	df 90       	pop	r13
    324e:	cf 90       	pop	r12
    3250:	bf 90       	pop	r11
    3252:	af 90       	pop	r10
    3254:	9f 90       	pop	r9
    3256:	8f 90       	pop	r8
    3258:	7f 90       	pop	r7
    325a:	6f 90       	pop	r6
    325c:	5f 90       	pop	r5
    325e:	4f 90       	pop	r4
    3260:	3f 90       	pop	r3
    3262:	2f 90       	pop	r2
    3264:	08 95       	ret

00003266 <xEventGroupClearBits>:
    3266:	0f 93       	push	r16
    3268:	1f 93       	push	r17
    326a:	f0 91 a2 00 	lds	r31, 0x00A2	; 0x8000a2 <__TEXT_REGION_LENGTH__+0x7000a2>
    326e:	ff 93       	push	r31
    3270:	f8 7f       	andi	r31, 0xF8	; 248
    3272:	f0 93 a2 00 	sts	0x00A2, r31	; 0x8000a2 <__TEXT_REGION_LENGTH__+0x7000a2>
    3276:	fc 01       	movw	r30, r24
    3278:	00 81       	ld	r16, Z
    327a:	11 81       	ldd	r17, Z+1	; 0x01
    327c:	22 81       	ldd	r18, Z+2	; 0x02
    327e:	33 81       	ldd	r19, Z+3	; 0x03
    3280:	40 95       	com	r20
    3282:	50 95       	com	r21
    3284:	60 95       	com	r22
    3286:	70 95       	com	r23
    3288:	40 23       	and	r20, r16
    328a:	51 23       	and	r21, r17
    328c:	62 23       	and	r22, r18
    328e:	73 23       	and	r23, r19
    3290:	40 83       	st	Z, r20
    3292:	51 83       	std	Z+1, r21	; 0x01
    3294:	62 83       	std	Z+2, r22	; 0x02
    3296:	73 83       	std	Z+3, r23	; 0x03
    3298:	ff 91       	pop	r31
    329a:	f0 93 a2 00 	sts	0x00A2, r31	; 0x8000a2 <__TEXT_REGION_LENGTH__+0x7000a2>
    329e:	c9 01       	movw	r24, r18
    32a0:	b8 01       	movw	r22, r16
    32a2:	1f 91       	pop	r17
    32a4:	0f 91       	pop	r16
    32a6:	08 95       	ret

000032a8 <xEventGroupGetBitsFromISR>:
    32a8:	cf 93       	push	r28
    32aa:	df 93       	push	r29
    32ac:	ec 01       	movw	r28, r24
    32ae:	0e 94 c6 1a 	call	0x358c	; 0x358c <_portSetInterruptMaskFromIsr>
    32b2:	28 2f       	mov	r18, r24
    32b4:	68 81       	ld	r22, Y
    32b6:	79 81       	ldd	r23, Y+1	; 0x01
    32b8:	8a 81       	ldd	r24, Y+2	; 0x02
    32ba:	9b 81       	ldd	r25, Y+3	; 0x03
    32bc:	20 93 a2 00 	sts	0x00A2, r18	; 0x8000a2 <__TEXT_REGION_LENGTH__+0x7000a2>
    32c0:	df 91       	pop	r29
    32c2:	cf 91       	pop	r28
    32c4:	08 95       	ret

000032c6 <xEventGroupSetBits>:
    32c6:	4f 92       	push	r4
    32c8:	5f 92       	push	r5
    32ca:	6f 92       	push	r6
    32cc:	7f 92       	push	r7
    32ce:	af 92       	push	r10
    32d0:	bf 92       	push	r11
    32d2:	cf 92       	push	r12
    32d4:	df 92       	push	r13
    32d6:	ef 92       	push	r14
    32d8:	ff 92       	push	r15
    32da:	0f 93       	push	r16
    32dc:	1f 93       	push	r17
    32de:	cf 93       	push	r28
    32e0:	df 93       	push	r29
    32e2:	ec 01       	movw	r28, r24
    32e4:	6a 01       	movw	r12, r20
    32e6:	7b 01       	movw	r14, r22
    32e8:	8c 01       	movw	r16, r24
    32ea:	09 5f       	subi	r16, 0xF9	; 249
    32ec:	1f 4f       	sbci	r17, 0xFF	; 255
    32ee:	0e 94 c6 21 	call	0x438c	; 0x438c <vTaskSuspendAll>
    32f2:	eb 85       	ldd	r30, Y+11	; 0x0b
    32f4:	fc 85       	ldd	r31, Y+12	; 0x0c
    32f6:	88 81       	ld	r24, Y
    32f8:	99 81       	ldd	r25, Y+1	; 0x01
    32fa:	aa 81       	ldd	r26, Y+2	; 0x02
    32fc:	bb 81       	ldd	r27, Y+3	; 0x03
    32fe:	c8 2a       	or	r12, r24
    3300:	d9 2a       	or	r13, r25
    3302:	ea 2a       	or	r14, r26
    3304:	fb 2a       	or	r15, r27
    3306:	c8 82       	st	Y, r12
    3308:	d9 82       	std	Y+1, r13	; 0x01
    330a:	ea 82       	std	Y+2, r14	; 0x02
    330c:	fb 82       	std	Y+3, r15	; 0x03
    330e:	0e 17       	cp	r16, r30
    3310:	1f 07       	cpc	r17, r31
    3312:	09 f4       	brne	.+2      	; 0x3316 <xEventGroupSetBits+0x50>
    3314:	42 c0       	rjmp	.+132    	; 0x339a <xEventGroupSetBits+0xd4>
    3316:	c1 2c       	mov	r12, r1
    3318:	d1 2c       	mov	r13, r1
    331a:	76 01       	movw	r14, r12
    331c:	a4 80       	ldd	r10, Z+4	; 0x04
    331e:	b5 80       	ldd	r11, Z+5	; 0x05
    3320:	80 81       	ld	r24, Z
    3322:	91 81       	ldd	r25, Z+1	; 0x01
    3324:	a2 81       	ldd	r26, Z+2	; 0x02
    3326:	b3 81       	ldd	r27, Z+3	; 0x03
    3328:	ac 01       	movw	r20, r24
    332a:	bd 01       	movw	r22, r26
    332c:	77 27       	eor	r23, r23
    332e:	b2 fd       	sbrc	r27, 2
    3330:	0f c0       	rjmp	.+30     	; 0x3350 <xEventGroupSetBits+0x8a>
    3332:	48 80       	ld	r4, Y
    3334:	59 80       	ldd	r5, Y+1	; 0x01
    3336:	6a 80       	ldd	r6, Y+2	; 0x02
    3338:	7b 80       	ldd	r7, Y+3	; 0x03
    333a:	44 22       	and	r4, r20
    333c:	55 22       	and	r5, r21
    333e:	66 22       	and	r6, r22
    3340:	77 22       	and	r7, r23
    3342:	21 e0       	ldi	r18, 0x01	; 1
    3344:	45 28       	or	r4, r5
    3346:	46 28       	or	r4, r6
    3348:	47 28       	or	r4, r7
    334a:	89 f4       	brne	.+34     	; 0x336e <xEventGroupSetBits+0xa8>
    334c:	20 e0       	ldi	r18, 0x00	; 0
    334e:	0f c0       	rjmp	.+30     	; 0x336e <xEventGroupSetBits+0xa8>
    3350:	48 80       	ld	r4, Y
    3352:	59 80       	ldd	r5, Y+1	; 0x01
    3354:	6a 80       	ldd	r6, Y+2	; 0x02
    3356:	7b 80       	ldd	r7, Y+3	; 0x03
    3358:	44 22       	and	r4, r20
    335a:	55 22       	and	r5, r21
    335c:	66 22       	and	r6, r22
    335e:	77 22       	and	r7, r23
    3360:	21 e0       	ldi	r18, 0x01	; 1
    3362:	44 16       	cp	r4, r20
    3364:	55 06       	cpc	r5, r21
    3366:	66 06       	cpc	r6, r22
    3368:	77 06       	cpc	r7, r23
    336a:	09 f0       	breq	.+2      	; 0x336e <xEventGroupSetBits+0xa8>
    336c:	20 e0       	ldi	r18, 0x00	; 0
    336e:	22 23       	and	r18, r18
    3370:	71 f0       	breq	.+28     	; 0x338e <xEventGroupSetBits+0xc8>
    3372:	b0 ff       	sbrs	r27, 0
    3374:	04 c0       	rjmp	.+8      	; 0x337e <xEventGroupSetBits+0xb8>
    3376:	c4 2a       	or	r12, r20
    3378:	d5 2a       	or	r13, r21
    337a:	e6 2a       	or	r14, r22
    337c:	f7 2a       	or	r15, r23
    337e:	48 81       	ld	r20, Y
    3380:	59 81       	ldd	r21, Y+1	; 0x01
    3382:	6a 81       	ldd	r22, Y+2	; 0x02
    3384:	7b 81       	ldd	r23, Y+3	; 0x03
    3386:	72 60       	ori	r23, 0x02	; 2
    3388:	cf 01       	movw	r24, r30
    338a:	0e 94 d7 24 	call	0x49ae	; 0x49ae <vTaskRemoveFromUnorderedEventList>
    338e:	ea 2d       	mov	r30, r10
    3390:	fb 2d       	mov	r31, r11
    3392:	0e 17       	cp	r16, r30
    3394:	1f 07       	cpc	r17, r31
    3396:	11 f6       	brne	.-124    	; 0x331c <xEventGroupSetBits+0x56>
    3398:	03 c0       	rjmp	.+6      	; 0x33a0 <xEventGroupSetBits+0xda>
    339a:	c1 2c       	mov	r12, r1
    339c:	d1 2c       	mov	r13, r1
    339e:	76 01       	movw	r14, r12
    33a0:	c0 94       	com	r12
    33a2:	d0 94       	com	r13
    33a4:	e0 94       	com	r14
    33a6:	f0 94       	com	r15
    33a8:	88 81       	ld	r24, Y
    33aa:	99 81       	ldd	r25, Y+1	; 0x01
    33ac:	aa 81       	ldd	r26, Y+2	; 0x02
    33ae:	bb 81       	ldd	r27, Y+3	; 0x03
    33b0:	c8 22       	and	r12, r24
    33b2:	d9 22       	and	r13, r25
    33b4:	ea 22       	and	r14, r26
    33b6:	fb 22       	and	r15, r27
    33b8:	c8 82       	st	Y, r12
    33ba:	d9 82       	std	Y+1, r13	; 0x01
    33bc:	ea 82       	std	Y+2, r14	; 0x02
    33be:	fb 82       	std	Y+3, r15	; 0x03
    33c0:	0e 94 b1 22 	call	0x4562	; 0x4562 <xTaskResumeAll>
    33c4:	68 81       	ld	r22, Y
    33c6:	79 81       	ldd	r23, Y+1	; 0x01
    33c8:	8a 81       	ldd	r24, Y+2	; 0x02
    33ca:	9b 81       	ldd	r25, Y+3	; 0x03
    33cc:	df 91       	pop	r29
    33ce:	cf 91       	pop	r28
    33d0:	1f 91       	pop	r17
    33d2:	0f 91       	pop	r16
    33d4:	ff 90       	pop	r15
    33d6:	ef 90       	pop	r14
    33d8:	df 90       	pop	r13
    33da:	cf 90       	pop	r12
    33dc:	bf 90       	pop	r11
    33de:	af 90       	pop	r10
    33e0:	7f 90       	pop	r7
    33e2:	6f 90       	pop	r6
    33e4:	5f 90       	pop	r5
    33e6:	4f 90       	pop	r4
    33e8:	08 95       	ret

000033ea <vEventGroupSetBitsCallback>:
    33ea:	0e 94 63 19 	call	0x32c6	; 0x32c6 <xEventGroupSetBits>
    33ee:	08 95       	ret

000033f0 <xEventGroupSetBitsFromISR>:
/*-----------------------------------------------------------*/

#if ( ( configUSE_TRACE_FACILITY == 1 ) && ( INCLUDE_xTimerPendFunctionCall == 1 ) && ( configUSE_TIMERS == 1 ) )

	BaseType_t xEventGroupSetBitsFromISR( EventGroupHandle_t xEventGroup, const EventBits_t uxBitsToSet, BaseType_t *pxHigherPriorityTaskWoken )
	{
    33f0:	0f 93       	push	r16
    33f2:	1f 93       	push	r17
	BaseType_t xReturn;

		traceEVENT_GROUP_SET_BITS_FROM_ISR( xEventGroup, uxBitsToSet );
		xReturn = xTimerPendFunctionCallFromISR( vEventGroupSetBitsCallback, ( void * ) xEventGroup, ( uint32_t ) uxBitsToSet, pxHigherPriorityTaskWoken );
    33f4:	89 01       	movw	r16, r18
    33f6:	9a 01       	movw	r18, r20
    33f8:	ab 01       	movw	r20, r22
    33fa:	bc 01       	movw	r22, r24
    33fc:	85 ef       	ldi	r24, 0xF5	; 245
    33fe:	99 e1       	ldi	r25, 0x19	; 25
    3400:	0e 94 6c 28 	call	0x50d8	; 0x50d8 <xTimerPendFunctionCallFromISR>

		return xReturn;
	}
    3404:	1f 91       	pop	r17
    3406:	0f 91       	pop	r16
    3408:	08 95       	ret

0000340a <pvPortMalloc>:

static size_t xNextFreeByte = ( size_t ) 0;
/*-----------------------------------------------------------*/

void *pvPortMalloc( size_t xWantedSize )
{
    340a:	cf 93       	push	r28
    340c:	df 93       	push	r29
    340e:	ec 01       	movw	r28, r24
			/* Byte alignment required. */
			xWantedSize += ( portBYTE_ALIGNMENT - ( xWantedSize & portBYTE_ALIGNMENT_MASK ) );
		}
	#endif

	vTaskSuspendAll();
    3410:	0e 94 c6 21 	call	0x438c	; 0x438c <vTaskSuspendAll>
	{
		/* Check there is enough room left for the allocation. */
		if( ( ( xNextFreeByte + xWantedSize ) < configTOTAL_HEAP_SIZE ) &&
    3414:	20 91 4a 21 	lds	r18, 0x214A	; 0x80214a <xNextFreeByte>
    3418:	30 91 4b 21 	lds	r19, 0x214B	; 0x80214b <xNextFreeByte+0x1>
    341c:	c9 01       	movw	r24, r18
    341e:	8c 0f       	add	r24, r28
    3420:	9d 1f       	adc	r25, r29
    3422:	88 3b       	cpi	r24, 0xB8	; 184
    3424:	4b e0       	ldi	r20, 0x0B	; 11
    3426:	94 07       	cpc	r25, r20
    3428:	58 f4       	brcc	.+22     	; 0x3440 <pvPortMalloc+0x36>
    342a:	28 17       	cp	r18, r24
    342c:	39 07       	cpc	r19, r25
    342e:	58 f4       	brcc	.+22     	; 0x3446 <pvPortMalloc+0x3c>
			( ( xNextFreeByte + xWantedSize ) > xNextFreeByte )	)/* Check for overflow. */
		{
			/* Return the next free byte then increment the index past this
			block. */
			pvReturn = &( xHeap.ucHeap[ xNextFreeByte ] );
    3430:	e9 01       	movw	r28, r18
    3432:	c4 5b       	subi	r28, 0xB4	; 180
    3434:	de 4d       	sbci	r29, 0xDE	; 222
			xNextFreeByte += xWantedSize;			
    3436:	80 93 4a 21 	sts	0x214A, r24	; 0x80214a <xNextFreeByte>
    343a:	90 93 4b 21 	sts	0x214B, r25	; 0x80214b <xNextFreeByte+0x1>
    343e:	05 c0       	rjmp	.+10     	; 0x344a <pvPortMalloc+0x40>
static size_t xNextFreeByte = ( size_t ) 0;
/*-----------------------------------------------------------*/

void *pvPortMalloc( size_t xWantedSize )
{
void *pvReturn = NULL; 
    3440:	c0 e0       	ldi	r28, 0x00	; 0
    3442:	d0 e0       	ldi	r29, 0x00	; 0
    3444:	02 c0       	rjmp	.+4      	; 0x344a <pvPortMalloc+0x40>
    3446:	c0 e0       	ldi	r28, 0x00	; 0
    3448:	d0 e0       	ldi	r29, 0x00	; 0
			block. */
			pvReturn = &( xHeap.ucHeap[ xNextFreeByte ] );
			xNextFreeByte += xWantedSize;			
		}	
	}
	xTaskResumeAll();
    344a:	0e 94 b1 22 	call	0x4562	; 0x4562 <xTaskResumeAll>
		}
	}
	#endif	

	return pvReturn;
}
    344e:	ce 01       	movw	r24, r28
    3450:	df 91       	pop	r29
    3452:	cf 91       	pop	r28
    3454:	08 95       	ret

00003456 <vPortFree>:
/*-----------------------------------------------------------*/

void vPortFree( void *pv )
{
    3456:	08 95       	ret

00003458 <vListInitialise>:
/*-----------------------------------------------------------
 * PUBLIC LIST API documented in list.h
 *----------------------------------------------------------*/

void vListInitialise( List_t * const pxList )
{
    3458:	fc 01       	movw	r30, r24
	/* The list structure contains a list item which is used to mark the
	end of the list.  To initialise the list the list end is inserted
	as the only list entry. */
	pxList->pxIndex = ( ListItem_t * ) &( pxList->xListEnd );			/*lint !e826 !e740 The mini list structure is used as the list end to save RAM.  This is checked and valid. */
    345a:	03 96       	adiw	r24, 0x03	; 3
    345c:	81 83       	std	Z+1, r24	; 0x01
    345e:	92 83       	std	Z+2, r25	; 0x02

	/* The list end value is the highest possible value in the list to
	ensure it remains at the end of the list. */
	pxList->xListEnd.xItemValue = portMAX_DELAY;
    3460:	4f ef       	ldi	r20, 0xFF	; 255
    3462:	5f ef       	ldi	r21, 0xFF	; 255
    3464:	ba 01       	movw	r22, r20
    3466:	43 83       	std	Z+3, r20	; 0x03
    3468:	54 83       	std	Z+4, r21	; 0x04
    346a:	65 83       	std	Z+5, r22	; 0x05
    346c:	76 83       	std	Z+6, r23	; 0x06

	/* The list end next and previous pointers point to itself so we know
	when the list is empty. */
	pxList->xListEnd.pxNext = ( ListItem_t * ) &( pxList->xListEnd );	/*lint !e826 !e740 The mini list structure is used as the list end to save RAM.  This is checked and valid. */
    346e:	87 83       	std	Z+7, r24	; 0x07
    3470:	90 87       	std	Z+8, r25	; 0x08
	pxList->xListEnd.pxPrevious = ( ListItem_t * ) &( pxList->xListEnd );/*lint !e826 !e740 The mini list structure is used as the list end to save RAM.  This is checked and valid. */
    3472:	81 87       	std	Z+9, r24	; 0x09
    3474:	92 87       	std	Z+10, r25	; 0x0a

	pxList->uxNumberOfItems = ( UBaseType_t ) 0U;
    3476:	10 82       	st	Z, r1
    3478:	08 95       	ret

0000347a <vListInitialiseItem>:
/*-----------------------------------------------------------*/

void vListInitialiseItem( ListItem_t * const pxItem )
{
	/* Make sure the list item is not recorded as being on a list. */
	pxItem->pvContainer = NULL;
    347a:	fc 01       	movw	r30, r24
    347c:	12 86       	std	Z+10, r1	; 0x0a
    347e:	13 86       	std	Z+11, r1	; 0x0b
    3480:	08 95       	ret

00003482 <vListInsertEnd>:
	listSET_SECOND_LIST_ITEM_INTEGRITY_CHECK_VALUE( pxItem );
}
/*-----------------------------------------------------------*/

void vListInsertEnd( List_t * const pxList, ListItem_t * const pxNewListItem )
{
    3482:	cf 93       	push	r28
    3484:	df 93       	push	r29
    3486:	9c 01       	movw	r18, r24
    3488:	fb 01       	movw	r30, r22
ListItem_t * const pxIndex = pxList->pxIndex;
    348a:	dc 01       	movw	r26, r24
    348c:	11 96       	adiw	r26, 0x01	; 1
    348e:	cd 91       	ld	r28, X+
    3490:	dc 91       	ld	r29, X
    3492:	12 97       	sbiw	r26, 0x02	; 2
	listTEST_LIST_ITEM_INTEGRITY( pxNewListItem );

	/* Insert a new list item into pxList, but rather than sort the list,
	makes the new list item the last item to be removed by a call to
	listGET_OWNER_OF_NEXT_ENTRY(). */
	pxNewListItem->pxNext = pxIndex;
    3494:	c4 83       	std	Z+4, r28	; 0x04
    3496:	d5 83       	std	Z+5, r29	; 0x05
	pxNewListItem->pxPrevious = pxIndex->pxPrevious;
    3498:	8e 81       	ldd	r24, Y+6	; 0x06
    349a:	9f 81       	ldd	r25, Y+7	; 0x07
    349c:	86 83       	std	Z+6, r24	; 0x06
    349e:	97 83       	std	Z+7, r25	; 0x07

	/* Only used during decision coverage testing. */
	mtCOVERAGE_TEST_DELAY();

	pxIndex->pxPrevious->pxNext = pxNewListItem;
    34a0:	8e 81       	ldd	r24, Y+6	; 0x06
    34a2:	9f 81       	ldd	r25, Y+7	; 0x07
    34a4:	dc 01       	movw	r26, r24
    34a6:	14 96       	adiw	r26, 0x04	; 4
    34a8:	6d 93       	st	X+, r22
    34aa:	7c 93       	st	X, r23
    34ac:	15 97       	sbiw	r26, 0x05	; 5
	pxIndex->pxPrevious = pxNewListItem;
    34ae:	6e 83       	std	Y+6, r22	; 0x06
    34b0:	7f 83       	std	Y+7, r23	; 0x07

	/* Remember which list the item is in. */
	pxNewListItem->pvContainer = ( void * ) pxList;
    34b2:	22 87       	std	Z+10, r18	; 0x0a
    34b4:	33 87       	std	Z+11, r19	; 0x0b

	( pxList->uxNumberOfItems )++;
    34b6:	f9 01       	movw	r30, r18
    34b8:	80 81       	ld	r24, Z
    34ba:	8f 5f       	subi	r24, 0xFF	; 255
    34bc:	80 83       	st	Z, r24
}
    34be:	df 91       	pop	r29
    34c0:	cf 91       	pop	r28
    34c2:	08 95       	ret

000034c4 <vListInsert>:
/*-----------------------------------------------------------*/

void vListInsert( List_t * const pxList, ListItem_t * const pxNewListItem )
{
    34c4:	0f 93       	push	r16
    34c6:	1f 93       	push	r17
    34c8:	cf 93       	push	r28
    34ca:	df 93       	push	r29
    34cc:	eb 01       	movw	r28, r22
ListItem_t *pxIterator;
const TickType_t xValueOfInsertion = pxNewListItem->xItemValue;
    34ce:	08 81       	ld	r16, Y
    34d0:	19 81       	ldd	r17, Y+1	; 0x01
    34d2:	2a 81       	ldd	r18, Y+2	; 0x02
    34d4:	3b 81       	ldd	r19, Y+3	; 0x03
	new list item should be placed after it.  This ensures that TCB's which are
	stored in ready lists (all of which have the same xItemValue value) get a
	share of the CPU.  However, if the xItemValue is the same as the back marker
	the iteration loop below will not end.  Therefore the value is checked
	first, and the algorithm slightly modified if necessary. */
	if( xValueOfInsertion == portMAX_DELAY )
    34d6:	0f 3f       	cpi	r16, 0xFF	; 255
    34d8:	4f ef       	ldi	r20, 0xFF	; 255
    34da:	14 07       	cpc	r17, r20
    34dc:	24 07       	cpc	r18, r20
    34de:	34 07       	cpc	r19, r20
    34e0:	21 f4       	brne	.+8      	; 0x34ea <vListInsert+0x26>
	{
		pxIterator = pxList->xListEnd.pxPrevious;
    34e2:	fc 01       	movw	r30, r24
    34e4:	a1 85       	ldd	r26, Z+9	; 0x09
    34e6:	b2 85       	ldd	r27, Z+10	; 0x0a
    34e8:	11 c0       	rjmp	.+34     	; 0x350c <vListInsert+0x48>
			4) Using a queue or semaphore before it has been initialised or
			   before the scheduler has been started (are interrupts firing
			   before vTaskStartScheduler() has been called?).
		**********************************************************************/

		for( pxIterator = ( ListItem_t * ) &( pxList->xListEnd ); pxIterator->pxNext->xItemValue <= xValueOfInsertion; pxIterator = pxIterator->pxNext ) /*lint !e826 !e740 The mini list structure is used as the list end to save RAM.  This is checked and valid. */
    34ea:	dc 01       	movw	r26, r24
    34ec:	13 96       	adiw	r26, 0x03	; 3
    34ee:	01 c0       	rjmp	.+2      	; 0x34f2 <vListInsert+0x2e>
    34f0:	df 01       	movw	r26, r30
    34f2:	14 96       	adiw	r26, 0x04	; 4
    34f4:	ed 91       	ld	r30, X+
    34f6:	fc 91       	ld	r31, X
    34f8:	15 97       	sbiw	r26, 0x05	; 5
    34fa:	40 81       	ld	r20, Z
    34fc:	51 81       	ldd	r21, Z+1	; 0x01
    34fe:	62 81       	ldd	r22, Z+2	; 0x02
    3500:	73 81       	ldd	r23, Z+3	; 0x03
    3502:	04 17       	cp	r16, r20
    3504:	15 07       	cpc	r17, r21
    3506:	26 07       	cpc	r18, r22
    3508:	37 07       	cpc	r19, r23
    350a:	90 f7       	brcc	.-28     	; 0x34f0 <vListInsert+0x2c>
			/* There is nothing to do here, just iterating to the wanted
			insertion position. */
		}
	}

	pxNewListItem->pxNext = pxIterator->pxNext;
    350c:	14 96       	adiw	r26, 0x04	; 4
    350e:	ed 91       	ld	r30, X+
    3510:	fc 91       	ld	r31, X
    3512:	15 97       	sbiw	r26, 0x05	; 5
    3514:	ec 83       	std	Y+4, r30	; 0x04
    3516:	fd 83       	std	Y+5, r31	; 0x05
	pxNewListItem->pxNext->pxPrevious = pxNewListItem;
    3518:	c6 83       	std	Z+6, r28	; 0x06
    351a:	d7 83       	std	Z+7, r29	; 0x07
	pxNewListItem->pxPrevious = pxIterator;
    351c:	ae 83       	std	Y+6, r26	; 0x06
    351e:	bf 83       	std	Y+7, r27	; 0x07
	pxIterator->pxNext = pxNewListItem;
    3520:	14 96       	adiw	r26, 0x04	; 4
    3522:	cd 93       	st	X+, r28
    3524:	dc 93       	st	X, r29
    3526:	15 97       	sbiw	r26, 0x05	; 5

	/* Remember which list the item is in.  This allows fast removal of the
	item later. */
	pxNewListItem->pvContainer = ( void * ) pxList;
    3528:	8a 87       	std	Y+10, r24	; 0x0a
    352a:	9b 87       	std	Y+11, r25	; 0x0b

	( pxList->uxNumberOfItems )++;
    352c:	fc 01       	movw	r30, r24
    352e:	20 81       	ld	r18, Z
    3530:	2f 5f       	subi	r18, 0xFF	; 255
    3532:	20 83       	st	Z, r18
}
    3534:	df 91       	pop	r29
    3536:	cf 91       	pop	r28
    3538:	1f 91       	pop	r17
    353a:	0f 91       	pop	r16
    353c:	08 95       	ret

0000353e <uxListRemove>:
/*-----------------------------------------------------------*/

UBaseType_t uxListRemove( ListItem_t * const pxItemToRemove )
{
    353e:	cf 93       	push	r28
    3540:	df 93       	push	r29
    3542:	fc 01       	movw	r30, r24
/* The list item knows which list it is in.  Obtain the list from the list
item. */
List_t * const pxList = ( List_t * ) pxItemToRemove->pvContainer;
    3544:	a2 85       	ldd	r26, Z+10	; 0x0a
    3546:	b3 85       	ldd	r27, Z+11	; 0x0b

	pxItemToRemove->pxNext->pxPrevious = pxItemToRemove->pxPrevious;
    3548:	c4 81       	ldd	r28, Z+4	; 0x04
    354a:	d5 81       	ldd	r29, Z+5	; 0x05
    354c:	86 81       	ldd	r24, Z+6	; 0x06
    354e:	97 81       	ldd	r25, Z+7	; 0x07
    3550:	8e 83       	std	Y+6, r24	; 0x06
    3552:	9f 83       	std	Y+7, r25	; 0x07
	pxItemToRemove->pxPrevious->pxNext = pxItemToRemove->pxNext;
    3554:	c6 81       	ldd	r28, Z+6	; 0x06
    3556:	d7 81       	ldd	r29, Z+7	; 0x07
    3558:	84 81       	ldd	r24, Z+4	; 0x04
    355a:	95 81       	ldd	r25, Z+5	; 0x05
    355c:	8c 83       	std	Y+4, r24	; 0x04
    355e:	9d 83       	std	Y+5, r25	; 0x05

	/* Only used during decision coverage testing. */
	mtCOVERAGE_TEST_DELAY();

	/* Make sure the index is left pointing to a valid item. */
	if( pxList->pxIndex == pxItemToRemove )
    3560:	11 96       	adiw	r26, 0x01	; 1
    3562:	8d 91       	ld	r24, X+
    3564:	9c 91       	ld	r25, X
    3566:	12 97       	sbiw	r26, 0x02	; 2
    3568:	e8 17       	cp	r30, r24
    356a:	f9 07       	cpc	r31, r25
    356c:	31 f4       	brne	.+12     	; 0x357a <uxListRemove+0x3c>
	{
		pxList->pxIndex = pxItemToRemove->pxPrevious;
    356e:	86 81       	ldd	r24, Z+6	; 0x06
    3570:	97 81       	ldd	r25, Z+7	; 0x07
    3572:	11 96       	adiw	r26, 0x01	; 1
    3574:	8d 93       	st	X+, r24
    3576:	9c 93       	st	X, r25
    3578:	12 97       	sbiw	r26, 0x02	; 2
	else
	{
		mtCOVERAGE_TEST_MARKER();
	}

	pxItemToRemove->pvContainer = NULL;
    357a:	12 86       	std	Z+10, r1	; 0x0a
    357c:	13 86       	std	Z+11, r1	; 0x0b
	( pxList->uxNumberOfItems )--;
    357e:	8c 91       	ld	r24, X
    3580:	81 50       	subi	r24, 0x01	; 1
    3582:	8c 93       	st	X, r24

	return pxList->uxNumberOfItems;
    3584:	8c 91       	ld	r24, X
}
    3586:	df 91       	pop	r29
    3588:	cf 91       	pop	r28
    358a:	08 95       	ret

0000358c <_portSetInterruptMaskFromIsr>:
}

/*-----------------------------------------------------------*/

void vPortEndScheduler( void )
{
    358c:	e0 ea       	ldi	r30, 0xA0	; 160
    358e:	f0 e0       	ldi	r31, 0x00	; 0
    3590:	82 81       	ldd	r24, Z+2	; 0x02
    3592:	92 81       	ldd	r25, Z+2	; 0x02
    3594:	98 7f       	andi	r25, 0xF8	; 248
    3596:	92 83       	std	Z+2, r25	; 0x02
    3598:	08 95       	ret

0000359a <pxPortInitialiseStack>:
    359a:	cf 92       	push	r12
    359c:	df 92       	push	r13
    359e:	ef 92       	push	r14
    35a0:	ff 92       	push	r15
    35a2:	31 e1       	ldi	r19, 0x11	; 17
    35a4:	fc 01       	movw	r30, r24
    35a6:	30 83       	st	Z, r19
    35a8:	31 97       	sbiw	r30, 0x01	; 1
    35aa:	22 e2       	ldi	r18, 0x22	; 34
    35ac:	20 83       	st	Z, r18
    35ae:	31 97       	sbiw	r30, 0x01	; 1
    35b0:	a3 e3       	ldi	r26, 0x33	; 51
    35b2:	a0 83       	st	Z, r26
    35b4:	6b 01       	movw	r12, r22
    35b6:	e1 2c       	mov	r14, r1
    35b8:	f1 2c       	mov	r15, r1
    35ba:	31 97       	sbiw	r30, 0x01	; 1
    35bc:	60 83       	st	Z, r22
    35be:	31 97       	sbiw	r30, 0x01	; 1
    35c0:	d0 82       	st	Z, r13
    35c2:	31 97       	sbiw	r30, 0x01	; 1
    35c4:	e0 82       	st	Z, r14
    35c6:	31 97       	sbiw	r30, 0x01	; 1
    35c8:	61 e3       	ldi	r22, 0x31	; 49
    35ca:	60 83       	st	Z, r22
    35cc:	31 97       	sbiw	r30, 0x01	; 1
    35ce:	60 e8       	ldi	r22, 0x80	; 128
    35d0:	60 83       	st	Z, r22
    35d2:	31 97       	sbiw	r30, 0x01	; 1
    35d4:	67 e8       	ldi	r22, 0x87	; 135
    35d6:	60 83       	st	Z, r22
    35d8:	31 97       	sbiw	r30, 0x01	; 1
    35da:	10 82       	st	Z, r1
    35dc:	31 97       	sbiw	r30, 0x01	; 1
    35de:	10 82       	st	Z, r1
    35e0:	31 97       	sbiw	r30, 0x01	; 1
    35e2:	62 e0       	ldi	r22, 0x02	; 2
    35e4:	60 83       	st	Z, r22
    35e6:	31 97       	sbiw	r30, 0x01	; 1
    35e8:	63 e0       	ldi	r22, 0x03	; 3
    35ea:	60 83       	st	Z, r22
    35ec:	31 97       	sbiw	r30, 0x01	; 1
    35ee:	64 e0       	ldi	r22, 0x04	; 4
    35f0:	60 83       	st	Z, r22
    35f2:	31 97       	sbiw	r30, 0x01	; 1
    35f4:	65 e0       	ldi	r22, 0x05	; 5
    35f6:	60 83       	st	Z, r22
    35f8:	31 97       	sbiw	r30, 0x01	; 1
    35fa:	66 e0       	ldi	r22, 0x06	; 6
    35fc:	60 83       	st	Z, r22
    35fe:	31 97       	sbiw	r30, 0x01	; 1
    3600:	67 e0       	ldi	r22, 0x07	; 7
    3602:	60 83       	st	Z, r22
    3604:	31 97       	sbiw	r30, 0x01	; 1
    3606:	68 e0       	ldi	r22, 0x08	; 8
    3608:	60 83       	st	Z, r22
    360a:	31 97       	sbiw	r30, 0x01	; 1
    360c:	69 e0       	ldi	r22, 0x09	; 9
    360e:	60 83       	st	Z, r22
    3610:	31 97       	sbiw	r30, 0x01	; 1
    3612:	60 e1       	ldi	r22, 0x10	; 16
    3614:	60 83       	st	Z, r22
    3616:	31 97       	sbiw	r30, 0x01	; 1
    3618:	30 83       	st	Z, r19
    361a:	31 97       	sbiw	r30, 0x01	; 1
    361c:	32 e1       	ldi	r19, 0x12	; 18
    361e:	30 83       	st	Z, r19
    3620:	31 97       	sbiw	r30, 0x01	; 1
    3622:	33 e1       	ldi	r19, 0x13	; 19
    3624:	30 83       	st	Z, r19
    3626:	31 97       	sbiw	r30, 0x01	; 1
    3628:	34 e1       	ldi	r19, 0x14	; 20
    362a:	30 83       	st	Z, r19
    362c:	31 97       	sbiw	r30, 0x01	; 1
    362e:	35 e1       	ldi	r19, 0x15	; 21
    3630:	30 83       	st	Z, r19
    3632:	31 97       	sbiw	r30, 0x01	; 1
    3634:	36 e1       	ldi	r19, 0x16	; 22
    3636:	30 83       	st	Z, r19
    3638:	31 97       	sbiw	r30, 0x01	; 1
    363a:	37 e1       	ldi	r19, 0x17	; 23
    363c:	30 83       	st	Z, r19
    363e:	31 97       	sbiw	r30, 0x01	; 1
    3640:	38 e1       	ldi	r19, 0x18	; 24
    3642:	30 83       	st	Z, r19
    3644:	31 97       	sbiw	r30, 0x01	; 1
    3646:	39 e1       	ldi	r19, 0x19	; 25
    3648:	30 83       	st	Z, r19
    364a:	31 97       	sbiw	r30, 0x01	; 1
    364c:	30 e2       	ldi	r19, 0x20	; 32
    364e:	30 83       	st	Z, r19
    3650:	31 97       	sbiw	r30, 0x01	; 1
    3652:	31 e2       	ldi	r19, 0x21	; 33
    3654:	30 83       	st	Z, r19
    3656:	31 97       	sbiw	r30, 0x01	; 1
    3658:	20 83       	st	Z, r18
    365a:	31 97       	sbiw	r30, 0x01	; 1
    365c:	23 e2       	ldi	r18, 0x23	; 35
    365e:	20 83       	st	Z, r18
    3660:	6a 01       	movw	r12, r20
    3662:	31 97       	sbiw	r30, 0x01	; 1
    3664:	40 83       	st	Z, r20
    3666:	31 97       	sbiw	r30, 0x01	; 1
    3668:	d0 82       	st	Z, r13
    366a:	31 97       	sbiw	r30, 0x01	; 1
    366c:	26 e2       	ldi	r18, 0x26	; 38
    366e:	20 83       	st	Z, r18
    3670:	31 97       	sbiw	r30, 0x01	; 1
    3672:	27 e2       	ldi	r18, 0x27	; 39
    3674:	20 83       	st	Z, r18
    3676:	31 97       	sbiw	r30, 0x01	; 1
    3678:	28 e2       	ldi	r18, 0x28	; 40
    367a:	20 83       	st	Z, r18
    367c:	31 97       	sbiw	r30, 0x01	; 1
    367e:	29 e2       	ldi	r18, 0x29	; 41
    3680:	20 83       	st	Z, r18
    3682:	31 97       	sbiw	r30, 0x01	; 1
    3684:	20 e3       	ldi	r18, 0x30	; 48
    3686:	20 83       	st	Z, r18
    3688:	88 97       	sbiw	r24, 0x28	; 40
    368a:	ff 90       	pop	r15
    368c:	ef 90       	pop	r14
    368e:	df 90       	pop	r13
    3690:	cf 90       	pop	r12
    3692:	08 95       	ret

00003694 <xPortStartScheduler>:
    3694:	83 ef       	ldi	r24, 0xF3	; 243
    3696:	91 e0       	ldi	r25, 0x01	; 1
    3698:	80 93 26 08 	sts	0x0826, r24	; 0x800826 <__TEXT_REGION_LENGTH__+0x700826>
    369c:	90 93 27 08 	sts	0x0827, r25	; 0x800827 <__TEXT_REGION_LENGTH__+0x700827>
    36a0:	65 e0       	ldi	r22, 0x05	; 5
    36a2:	80 e0       	ldi	r24, 0x00	; 0
    36a4:	98 e0       	ldi	r25, 0x08	; 8
    36a6:	0e 94 3d 18 	call	0x307a	; 0x307a <TC0_ConfigClockSource>
    36aa:	61 e0       	ldi	r22, 0x01	; 1
    36ac:	80 e0       	ldi	r24, 0x00	; 0
    36ae:	98 e0       	ldi	r25, 0x08	; 8
    36b0:	0e 94 49 18 	call	0x3092	; 0x3092 <TC0_SetOverflowIntLevel>
    36b4:	a0 91 72 2d 	lds	r26, 0x2D72	; 0x802d72 <pxCurrentTCB>
    36b8:	b0 91 73 2d 	lds	r27, 0x2D73	; 0x802d73 <pxCurrentTCB+0x1>
    36bc:	0d 90       	ld	r0, X+
    36be:	0d be       	out	0x3d, r0	; 61
    36c0:	0d 90       	ld	r0, X+
    36c2:	0e be       	out	0x3e, r0	; 62
    36c4:	ef 91       	pop	r30
    36c6:	df 91       	pop	r29
    36c8:	cf 91       	pop	r28
    36ca:	bf 91       	pop	r27
    36cc:	af 91       	pop	r26
    36ce:	9f 91       	pop	r25
    36d0:	8f 91       	pop	r24
    36d2:	7f 91       	pop	r23
    36d4:	6f 91       	pop	r22
    36d6:	5f 91       	pop	r21
    36d8:	4f 91       	pop	r20
    36da:	3f 91       	pop	r19
    36dc:	2f 91       	pop	r18
    36de:	1f 91       	pop	r17
    36e0:	0f 91       	pop	r16
    36e2:	ff 90       	pop	r15
    36e4:	ef 90       	pop	r14
    36e6:	df 90       	pop	r13
    36e8:	cf 90       	pop	r12
    36ea:	bf 90       	pop	r11
    36ec:	af 90       	pop	r10
    36ee:	9f 90       	pop	r9
    36f0:	8f 90       	pop	r8
    36f2:	7f 90       	pop	r7
    36f4:	6f 90       	pop	r6
    36f6:	5f 90       	pop	r5
    36f8:	4f 90       	pop	r4
    36fa:	3f 90       	pop	r3
    36fc:	2f 90       	pop	r2
    36fe:	1f 90       	pop	r1
    3700:	0f 90       	pop	r0
    3702:	ff 91       	pop	r31
    3704:	f0 93 a2 00 	sts	0x00A2, r31	; 0x8000a2 <__TEXT_REGION_LENGTH__+0x7000a2>
    3708:	ff 91       	pop	r31
    370a:	ff bf       	out	0x3f, r31	; 63
    370c:	ff 91       	pop	r31
    370e:	08 95       	ret
    3710:	81 e0       	ldi	r24, 0x01	; 1
    3712:	08 95       	ret

00003714 <vPortYield>:
// 
//
void vPortYield( void ) __attribute__ ( ( naked ) );
void vPortYield( void )
{
	portSAVE_CONTEXT();
    3714:	ff 93       	push	r31
    3716:	ff b7       	in	r31, 0x3f	; 63
    3718:	ff 93       	push	r31
    371a:	f0 91 a2 00 	lds	r31, 0x00A2	; 0x8000a2 <__TEXT_REGION_LENGTH__+0x7000a2>
    371e:	ff 93       	push	r31
    3720:	f8 7f       	andi	r31, 0xF8	; 248
    3722:	f0 93 a2 00 	sts	0x00A2, r31	; 0x8000a2 <__TEXT_REGION_LENGTH__+0x7000a2>
    3726:	0f 92       	push	r0
    3728:	1f 92       	push	r1
    372a:	11 24       	eor	r1, r1
    372c:	2f 92       	push	r2
    372e:	3f 92       	push	r3
    3730:	4f 92       	push	r4
    3732:	5f 92       	push	r5
    3734:	6f 92       	push	r6
    3736:	7f 92       	push	r7
    3738:	8f 92       	push	r8
    373a:	9f 92       	push	r9
    373c:	af 92       	push	r10
    373e:	bf 92       	push	r11
    3740:	cf 92       	push	r12
    3742:	df 92       	push	r13
    3744:	ef 92       	push	r14
    3746:	ff 92       	push	r15
    3748:	0f 93       	push	r16
    374a:	1f 93       	push	r17
    374c:	2f 93       	push	r18
    374e:	3f 93       	push	r19
    3750:	4f 93       	push	r20
    3752:	5f 93       	push	r21
    3754:	6f 93       	push	r22
    3756:	7f 93       	push	r23
    3758:	8f 93       	push	r24
    375a:	9f 93       	push	r25
    375c:	af 93       	push	r26
    375e:	bf 93       	push	r27
    3760:	cf 93       	push	r28
    3762:	df 93       	push	r29
    3764:	ef 93       	push	r30
    3766:	a0 91 72 2d 	lds	r26, 0x2D72	; 0x802d72 <pxCurrentTCB>
    376a:	b0 91 73 2d 	lds	r27, 0x2D73	; 0x802d73 <pxCurrentTCB+0x1>
    376e:	0d b6       	in	r0, 0x3d	; 61
    3770:	0d 92       	st	X+, r0
    3772:	0e b6       	in	r0, 0x3e	; 62
    3774:	0d 92       	st	X+, r0
	vTaskSwitchContext();
    3776:	0e 94 4f 23 	call	0x469e	; 0x469e <vTaskSwitchContext>
	portRESTORE_CONTEXT();
    377a:	a0 91 72 2d 	lds	r26, 0x2D72	; 0x802d72 <pxCurrentTCB>
    377e:	b0 91 73 2d 	lds	r27, 0x2D73	; 0x802d73 <pxCurrentTCB+0x1>
    3782:	0d 90       	ld	r0, X+
    3784:	0d be       	out	0x3d, r0	; 61
    3786:	0d 90       	ld	r0, X+
    3788:	0e be       	out	0x3e, r0	; 62
    378a:	ef 91       	pop	r30
    378c:	df 91       	pop	r29
    378e:	cf 91       	pop	r28
    3790:	bf 91       	pop	r27
    3792:	af 91       	pop	r26
    3794:	9f 91       	pop	r25
    3796:	8f 91       	pop	r24
    3798:	7f 91       	pop	r23
    379a:	6f 91       	pop	r22
    379c:	5f 91       	pop	r21
    379e:	4f 91       	pop	r20
    37a0:	3f 91       	pop	r19
    37a2:	2f 91       	pop	r18
    37a4:	1f 91       	pop	r17
    37a6:	0f 91       	pop	r16
    37a8:	ff 90       	pop	r15
    37aa:	ef 90       	pop	r14
    37ac:	df 90       	pop	r13
    37ae:	cf 90       	pop	r12
    37b0:	bf 90       	pop	r11
    37b2:	af 90       	pop	r10
    37b4:	9f 90       	pop	r9
    37b6:	8f 90       	pop	r8
    37b8:	7f 90       	pop	r7
    37ba:	6f 90       	pop	r6
    37bc:	5f 90       	pop	r5
    37be:	4f 90       	pop	r4
    37c0:	3f 90       	pop	r3
    37c2:	2f 90       	pop	r2
    37c4:	1f 90       	pop	r1
    37c6:	0f 90       	pop	r0
    37c8:	ff 91       	pop	r31
    37ca:	f0 93 a2 00 	sts	0x00A2, r31	; 0x8000a2 <__TEXT_REGION_LENGTH__+0x7000a2>
    37ce:	ff 91       	pop	r31
    37d0:	ff bf       	out	0x3f, r31	; 63
    37d2:	ff 91       	pop	r31
	asm volatile ( "ret" );
    37d4:	08 95       	ret

000037d6 <portTaskSwitchContext>:
	//-----------------------------------------------------------
	//
	// The task switch is deferred until there is no more nesting.
	//
	void portTaskSwitchContext(signed portBASE_TYPE xSwitchRequired)
	{
    37d6:	cf 93       	push	r28
		intTaskSwitchPending |= xSwitchRequired;					
    37d8:	90 91 0c 2e 	lds	r25, 0x2E0C	; 0x802e0c <intTaskSwitchPending>
    37dc:	89 2b       	or	r24, r25
    37de:	80 93 0c 2e 	sts	0x2E0C, r24	; 0x802e0c <intTaskSwitchPending>
																
		if(NOT_NESTING() && intTaskSwitchPending)					
    37e2:	90 91 a0 00 	lds	r25, 0x00A0	; 0x8000a0 <__TEXT_REGION_LENGTH__+0x7000a0>
    37e6:	91 30       	cpi	r25, 0x01	; 1
    37e8:	41 f0       	breq	.+16     	; 0x37fa <portTaskSwitchContext+0x24>
    37ea:	90 91 a0 00 	lds	r25, 0x00A0	; 0x8000a0 <__TEXT_REGION_LENGTH__+0x7000a0>
    37ee:	92 30       	cpi	r25, 0x02	; 2
    37f0:	21 f0       	breq	.+8      	; 0x37fa <portTaskSwitchContext+0x24>
    37f2:	90 91 a0 00 	lds	r25, 0x00A0	; 0x8000a0 <__TEXT_REGION_LENGTH__+0x7000a0>
    37f6:	94 30       	cpi	r25, 0x04	; 4
    37f8:	59 f4       	brne	.+22     	; 0x3810 <portTaskSwitchContext+0x3a>
    37fa:	88 23       	and	r24, r24
    37fc:	49 f0       	breq	.+18     	; 0x3810 <portTaskSwitchContext+0x3a>
		{															
			register unsigned portBASE_TYPE uxSavedPmicCtrlReg; 				
			extern void vTaskSwitchContext(void);   				
																
			// Critical section used, because vTaskSwitchContext handles FreeRTOS internal data structures.
 			uxSavedPmicCtrlReg = portSET_INTERRUPT_MASK_FROM_ISR(); 
    37fe:	0e 94 c6 1a 	call	0x358c	; 0x358c <_portSetInterruptMaskFromIsr>
    3802:	c8 2f       	mov	r28, r24
			intTaskSwitchPending = 0;								
    3804:	10 92 0c 2e 	sts	0x2E0C, r1	; 0x802e0c <intTaskSwitchPending>
			vTaskSwitchContext();                   				
    3808:	0e 94 4f 23 	call	0x469e	; 0x469e <vTaskSwitchContext>
			portCLEAR_INTERRUPT_MASK_FROM_ISR(uxSavedPmicCtrlReg);
    380c:	c0 93 a2 00 	sts	0x00A2, r28	; 0x8000a2 <__TEXT_REGION_LENGTH__+0x7000a2>
		}                                          					
	}
    3810:	cf 91       	pop	r28
    3812:	08 95       	ret

00003814 <__vector_14>:
	// the context is saved at the start of vPortYieldFromTick().  The tick
	// count is incremented after the context is saved.
	//
	ISR(TCC0_OVF_vect, ISR_NAKED)
	{
		portSTART_ISR();
    3814:	ff 93       	push	r31
    3816:	ff b7       	in	r31, 0x3f	; 63
    3818:	ff 93       	push	r31
    381a:	f0 91 a2 00 	lds	r31, 0x00A2	; 0x8000a2 <__TEXT_REGION_LENGTH__+0x7000a2>
    381e:	ff 93       	push	r31
    3820:	f8 7f       	andi	r31, 0xF8	; 248
    3822:	f0 93 a2 00 	sts	0x00A2, r31	; 0x8000a2 <__TEXT_REGION_LENGTH__+0x7000a2>
    3826:	0f 92       	push	r0
    3828:	1f 92       	push	r1
    382a:	11 24       	eor	r1, r1
    382c:	2f 92       	push	r2
    382e:	3f 92       	push	r3
    3830:	4f 92       	push	r4
    3832:	5f 92       	push	r5
    3834:	6f 92       	push	r6
    3836:	7f 92       	push	r7
    3838:	8f 92       	push	r8
    383a:	9f 92       	push	r9
    383c:	af 92       	push	r10
    383e:	bf 92       	push	r11
    3840:	cf 92       	push	r12
    3842:	df 92       	push	r13
    3844:	ef 92       	push	r14
    3846:	ff 92       	push	r15
    3848:	0f 93       	push	r16
    384a:	1f 93       	push	r17
    384c:	2f 93       	push	r18
    384e:	3f 93       	push	r19
    3850:	4f 93       	push	r20
    3852:	5f 93       	push	r21
    3854:	6f 93       	push	r22
    3856:	7f 93       	push	r23
    3858:	8f 93       	push	r24
    385a:	9f 93       	push	r25
    385c:	af 93       	push	r26
    385e:	bf 93       	push	r27
    3860:	cf 93       	push	r28
    3862:	df 93       	push	r29
    3864:	ef 93       	push	r30
    3866:	a0 91 72 2d 	lds	r26, 0x2D72	; 0x802d72 <pxCurrentTCB>
    386a:	b0 91 73 2d 	lds	r27, 0x2D73	; 0x802d73 <pxCurrentTCB+0x1>
    386e:	0d b6       	in	r0, 0x3d	; 61
    3870:	0d 92       	st	X+, r0
    3872:	0e b6       	in	r0, 0x3e	; 62
    3874:	0d 92       	st	X+, r0
	//
	static void portTaskIncrementTick( void )
	{
		register unsigned portBASE_TYPE uxSavedPmicCtrlReg;

 		uxSavedPmicCtrlReg = portSET_INTERRUPT_MASK_FROM_ISR();
    3876:	0e 94 c6 1a 	call	0x358c	; 0x358c <_portSetInterruptMaskFromIsr>
    387a:	c8 2f       	mov	r28, r24
		xTaskIncrementTick();
    387c:	0e 94 de 21 	call	0x43bc	; 0x43bc <xTaskIncrementTick>
 		portCLEAR_INTERRUPT_MASK_FROM_ISR( uxSavedPmicCtrlReg );
    3880:	c0 93 a2 00 	sts	0x00A2, r28	; 0x8000a2 <__TEXT_REGION_LENGTH__+0x7000a2>
	ISR(TCC0_OVF_vect, ISR_NAKED)
	{
		portSTART_ISR();
		portTaskIncrementTick();
		//always try a task switch, but only if on kernel interrupt level
		portEND_SWITCHING_ISR(pdTRUE); 
    3884:	81 e0       	ldi	r24, 0x01	; 1
    3886:	0e 94 eb 1b 	call	0x37d6	; 0x37d6 <portTaskSwitchContext>
    388a:	a0 91 72 2d 	lds	r26, 0x2D72	; 0x802d72 <pxCurrentTCB>
    388e:	b0 91 73 2d 	lds	r27, 0x2D73	; 0x802d73 <pxCurrentTCB+0x1>
    3892:	0d 90       	ld	r0, X+
    3894:	0d be       	out	0x3d, r0	; 61
    3896:	0d 90       	ld	r0, X+
    3898:	0e be       	out	0x3e, r0	; 62
    389a:	ef 91       	pop	r30
    389c:	df 91       	pop	r29
    389e:	cf 91       	pop	r28
    38a0:	bf 91       	pop	r27
    38a2:	af 91       	pop	r26
    38a4:	9f 91       	pop	r25
    38a6:	8f 91       	pop	r24
    38a8:	7f 91       	pop	r23
    38aa:	6f 91       	pop	r22
    38ac:	5f 91       	pop	r21
    38ae:	4f 91       	pop	r20
    38b0:	3f 91       	pop	r19
    38b2:	2f 91       	pop	r18
    38b4:	1f 91       	pop	r17
    38b6:	0f 91       	pop	r16
    38b8:	ff 90       	pop	r15
    38ba:	ef 90       	pop	r14
    38bc:	df 90       	pop	r13
    38be:	cf 90       	pop	r12
    38c0:	bf 90       	pop	r11
    38c2:	af 90       	pop	r10
    38c4:	9f 90       	pop	r9
    38c6:	8f 90       	pop	r8
    38c8:	7f 90       	pop	r7
    38ca:	6f 90       	pop	r6
    38cc:	5f 90       	pop	r5
    38ce:	4f 90       	pop	r4
    38d0:	3f 90       	pop	r3
    38d2:	2f 90       	pop	r2
    38d4:	1f 90       	pop	r1
    38d6:	0f 90       	pop	r0
    38d8:	ff 91       	pop	r31
    38da:	f0 93 a2 00 	sts	0x00A2, r31	; 0x8000a2 <__TEXT_REGION_LENGTH__+0x7000a2>
    38de:	ff 91       	pop	r31
    38e0:	ff bf       	out	0x3f, r31	; 63
    38e2:	ff 91       	pop	r31
    38e4:	18 95       	reti

000038e6 <prvIsQueueEmpty>:
		{
			xReturn = pdFAIL;
		}

		return xReturn;
	}
    38e6:	f0 91 a2 00 	lds	r31, 0x00A2	; 0x8000a2 <__TEXT_REGION_LENGTH__+0x7000a2>
    38ea:	ff 93       	push	r31
    38ec:	f8 7f       	andi	r31, 0xF8	; 248
    38ee:	f0 93 a2 00 	sts	0x00A2, r31	; 0x8000a2 <__TEXT_REGION_LENGTH__+0x7000a2>
    38f2:	fc 01       	movw	r30, r24
    38f4:	96 8d       	ldd	r25, Z+30	; 0x1e
    38f6:	ff 91       	pop	r31
    38f8:	f0 93 a2 00 	sts	0x00A2, r31	; 0x8000a2 <__TEXT_REGION_LENGTH__+0x7000a2>
    38fc:	81 e0       	ldi	r24, 0x01	; 1
    38fe:	91 11       	cpse	r25, r1
    3900:	80 e0       	ldi	r24, 0x00	; 0
    3902:	08 95       	ret

00003904 <prvIsQueueFull>:
    3904:	dc 01       	movw	r26, r24
    3906:	f0 91 a2 00 	lds	r31, 0x00A2	; 0x8000a2 <__TEXT_REGION_LENGTH__+0x7000a2>
    390a:	ff 93       	push	r31
    390c:	f8 7f       	andi	r31, 0xF8	; 248
    390e:	f0 93 a2 00 	sts	0x00A2, r31	; 0x8000a2 <__TEXT_REGION_LENGTH__+0x7000a2>
    3912:	5e 96       	adiw	r26, 0x1e	; 30
    3914:	9c 91       	ld	r25, X
    3916:	5e 97       	sbiw	r26, 0x1e	; 30
    3918:	ff 91       	pop	r31
    391a:	f0 93 a2 00 	sts	0x00A2, r31	; 0x8000a2 <__TEXT_REGION_LENGTH__+0x7000a2>
    391e:	81 e0       	ldi	r24, 0x01	; 1
    3920:	5f 96       	adiw	r26, 0x1f	; 31
    3922:	2c 91       	ld	r18, X
    3924:	29 13       	cpse	r18, r25
    3926:	80 e0       	ldi	r24, 0x00	; 0
    3928:	08 95       	ret

0000392a <prvCopyDataToQueue>:
    392a:	0f 93       	push	r16
    392c:	1f 93       	push	r17
    392e:	cf 93       	push	r28
    3930:	df 93       	push	r29
    3932:	ec 01       	movw	r28, r24
    3934:	04 2f       	mov	r16, r20
    3936:	1e 8d       	ldd	r17, Y+30	; 0x1e
    3938:	48 a1       	ldd	r20, Y+32	; 0x20
    393a:	44 23       	and	r20, r20
    393c:	b9 f1       	breq	.+110    	; 0x39ac <prvCopyDataToQueue+0x82>
    393e:	01 11       	cpse	r16, r1
    3940:	16 c0       	rjmp	.+44     	; 0x396e <prvCopyDataToQueue+0x44>
    3942:	50 e0       	ldi	r21, 0x00	; 0
    3944:	8c 81       	ldd	r24, Y+4	; 0x04
    3946:	9d 81       	ldd	r25, Y+5	; 0x05
    3948:	0e 94 63 41 	call	0x82c6	; 0x82c6 <memcpy>
    394c:	28 a1       	ldd	r18, Y+32	; 0x20
    394e:	8c 81       	ldd	r24, Y+4	; 0x04
    3950:	9d 81       	ldd	r25, Y+5	; 0x05
    3952:	82 0f       	add	r24, r18
    3954:	91 1d       	adc	r25, r1
    3956:	8c 83       	std	Y+4, r24	; 0x04
    3958:	9d 83       	std	Y+5, r25	; 0x05
    395a:	2a 81       	ldd	r18, Y+2	; 0x02
    395c:	3b 81       	ldd	r19, Y+3	; 0x03
    395e:	82 17       	cp	r24, r18
    3960:	93 07       	cpc	r25, r19
    3962:	20 f1       	brcs	.+72     	; 0x39ac <prvCopyDataToQueue+0x82>
    3964:	88 81       	ld	r24, Y
    3966:	99 81       	ldd	r25, Y+1	; 0x01
    3968:	8c 83       	std	Y+4, r24	; 0x04
    396a:	9d 83       	std	Y+5, r25	; 0x05
    396c:	1f c0       	rjmp	.+62     	; 0x39ac <prvCopyDataToQueue+0x82>
    396e:	50 e0       	ldi	r21, 0x00	; 0
    3970:	8e 81       	ldd	r24, Y+6	; 0x06
    3972:	9f 81       	ldd	r25, Y+7	; 0x07
    3974:	0e 94 63 41 	call	0x82c6	; 0x82c6 <memcpy>
    3978:	88 a1       	ldd	r24, Y+32	; 0x20
    397a:	90 e0       	ldi	r25, 0x00	; 0
    397c:	91 95       	neg	r25
    397e:	81 95       	neg	r24
    3980:	91 09       	sbc	r25, r1
    3982:	2e 81       	ldd	r18, Y+6	; 0x06
    3984:	3f 81       	ldd	r19, Y+7	; 0x07
    3986:	28 0f       	add	r18, r24
    3988:	39 1f       	adc	r19, r25
    398a:	2e 83       	std	Y+6, r18	; 0x06
    398c:	3f 83       	std	Y+7, r19	; 0x07
    398e:	48 81       	ld	r20, Y
    3990:	59 81       	ldd	r21, Y+1	; 0x01
    3992:	24 17       	cp	r18, r20
    3994:	35 07       	cpc	r19, r21
    3996:	30 f4       	brcc	.+12     	; 0x39a4 <prvCopyDataToQueue+0x7a>
    3998:	2a 81       	ldd	r18, Y+2	; 0x02
    399a:	3b 81       	ldd	r19, Y+3	; 0x03
    399c:	82 0f       	add	r24, r18
    399e:	93 1f       	adc	r25, r19
    39a0:	8e 83       	std	Y+6, r24	; 0x06
    39a2:	9f 83       	std	Y+7, r25	; 0x07
    39a4:	02 30       	cpi	r16, 0x02	; 2
    39a6:	11 f4       	brne	.+4      	; 0x39ac <prvCopyDataToQueue+0x82>
    39a8:	11 11       	cpse	r17, r1
    39aa:	11 50       	subi	r17, 0x01	; 1
    39ac:	1f 5f       	subi	r17, 0xFF	; 255
    39ae:	1e 8f       	std	Y+30, r17	; 0x1e
    39b0:	80 e0       	ldi	r24, 0x00	; 0
    39b2:	df 91       	pop	r29
    39b4:	cf 91       	pop	r28
    39b6:	1f 91       	pop	r17
    39b8:	0f 91       	pop	r16
    39ba:	08 95       	ret

000039bc <prvCopyDataFromQueue>:
    39bc:	fc 01       	movw	r30, r24
    39be:	40 a1       	ldd	r20, Z+32	; 0x20
    39c0:	44 23       	and	r20, r20
    39c2:	a9 f0       	breq	.+42     	; 0x39ee <prvCopyDataFromQueue+0x32>
    39c4:	50 e0       	ldi	r21, 0x00	; 0
    39c6:	26 81       	ldd	r18, Z+6	; 0x06
    39c8:	37 81       	ldd	r19, Z+7	; 0x07
    39ca:	24 0f       	add	r18, r20
    39cc:	35 1f       	adc	r19, r21
    39ce:	26 83       	std	Z+6, r18	; 0x06
    39d0:	37 83       	std	Z+7, r19	; 0x07
    39d2:	82 81       	ldd	r24, Z+2	; 0x02
    39d4:	93 81       	ldd	r25, Z+3	; 0x03
    39d6:	28 17       	cp	r18, r24
    39d8:	39 07       	cpc	r19, r25
    39da:	20 f0       	brcs	.+8      	; 0x39e4 <prvCopyDataFromQueue+0x28>
    39dc:	80 81       	ld	r24, Z
    39de:	91 81       	ldd	r25, Z+1	; 0x01
    39e0:	86 83       	std	Z+6, r24	; 0x06
    39e2:	97 83       	std	Z+7, r25	; 0x07
    39e4:	cb 01       	movw	r24, r22
    39e6:	66 81       	ldd	r22, Z+6	; 0x06
    39e8:	77 81       	ldd	r23, Z+7	; 0x07
    39ea:	0e 94 63 41 	call	0x82c6	; 0x82c6 <memcpy>
    39ee:	08 95       	ret

000039f0 <prvUnlockQueue>:
    39f0:	ef 92       	push	r14
    39f2:	ff 92       	push	r15
    39f4:	0f 93       	push	r16
    39f6:	1f 93       	push	r17
    39f8:	cf 93       	push	r28
    39fa:	8c 01       	movw	r16, r24
    39fc:	f0 91 a2 00 	lds	r31, 0x00A2	; 0x8000a2 <__TEXT_REGION_LENGTH__+0x7000a2>
    3a00:	ff 93       	push	r31
    3a02:	f8 7f       	andi	r31, 0xF8	; 248
    3a04:	f0 93 a2 00 	sts	0x00A2, r31	; 0x8000a2 <__TEXT_REGION_LENGTH__+0x7000a2>
    3a08:	fc 01       	movw	r30, r24
    3a0a:	c2 a1       	ldd	r28, Z+34	; 0x22
    3a0c:	1c 16       	cp	r1, r28
    3a0e:	ac f4       	brge	.+42     	; 0x3a3a <prvUnlockQueue+0x4a>
    3a10:	83 89       	ldd	r24, Z+19	; 0x13
    3a12:	81 11       	cpse	r24, r1
    3a14:	06 c0       	rjmp	.+12     	; 0x3a22 <prvUnlockQueue+0x32>
    3a16:	11 c0       	rjmp	.+34     	; 0x3a3a <prvUnlockQueue+0x4a>
    3a18:	f8 01       	movw	r30, r16
    3a1a:	83 89       	ldd	r24, Z+19	; 0x13
    3a1c:	81 11       	cpse	r24, r1
    3a1e:	05 c0       	rjmp	.+10     	; 0x3a2a <prvUnlockQueue+0x3a>
    3a20:	0c c0       	rjmp	.+24     	; 0x3a3a <prvUnlockQueue+0x4a>
    3a22:	78 01       	movw	r14, r16
    3a24:	f3 e1       	ldi	r31, 0x13	; 19
    3a26:	ef 0e       	add	r14, r31
    3a28:	f1 1c       	adc	r15, r1
    3a2a:	c7 01       	movw	r24, r14
    3a2c:	0e 94 95 24 	call	0x492a	; 0x492a <xTaskRemoveFromEventList>
    3a30:	81 11       	cpse	r24, r1
    3a32:	0e 94 7a 25 	call	0x4af4	; 0x4af4 <vTaskMissedYield>
    3a36:	c1 50       	subi	r28, 0x01	; 1
    3a38:	79 f7       	brne	.-34     	; 0x3a18 <prvUnlockQueue+0x28>
    3a3a:	8f ef       	ldi	r24, 0xFF	; 255
    3a3c:	f8 01       	movw	r30, r16
    3a3e:	82 a3       	std	Z+34, r24	; 0x22
    3a40:	ff 91       	pop	r31
    3a42:	f0 93 a2 00 	sts	0x00A2, r31	; 0x8000a2 <__TEXT_REGION_LENGTH__+0x7000a2>
    3a46:	f0 91 a2 00 	lds	r31, 0x00A2	; 0x8000a2 <__TEXT_REGION_LENGTH__+0x7000a2>
    3a4a:	ff 93       	push	r31
    3a4c:	f8 7f       	andi	r31, 0xF8	; 248
    3a4e:	f0 93 a2 00 	sts	0x00A2, r31	; 0x8000a2 <__TEXT_REGION_LENGTH__+0x7000a2>
    3a52:	f8 01       	movw	r30, r16
    3a54:	c1 a1       	ldd	r28, Z+33	; 0x21
    3a56:	1c 16       	cp	r1, r28
    3a58:	ac f4       	brge	.+42     	; 0x3a84 <prvUnlockQueue+0x94>
    3a5a:	80 85       	ldd	r24, Z+8	; 0x08
    3a5c:	81 11       	cpse	r24, r1
    3a5e:	06 c0       	rjmp	.+12     	; 0x3a6c <prvUnlockQueue+0x7c>
    3a60:	11 c0       	rjmp	.+34     	; 0x3a84 <prvUnlockQueue+0x94>
    3a62:	f8 01       	movw	r30, r16
    3a64:	80 85       	ldd	r24, Z+8	; 0x08
    3a66:	81 11       	cpse	r24, r1
    3a68:	05 c0       	rjmp	.+10     	; 0x3a74 <prvUnlockQueue+0x84>
    3a6a:	0c c0       	rjmp	.+24     	; 0x3a84 <prvUnlockQueue+0x94>
    3a6c:	78 01       	movw	r14, r16
    3a6e:	f8 e0       	ldi	r31, 0x08	; 8
    3a70:	ef 0e       	add	r14, r31
    3a72:	f1 1c       	adc	r15, r1
    3a74:	c7 01       	movw	r24, r14
    3a76:	0e 94 95 24 	call	0x492a	; 0x492a <xTaskRemoveFromEventList>
    3a7a:	81 11       	cpse	r24, r1
    3a7c:	0e 94 7a 25 	call	0x4af4	; 0x4af4 <vTaskMissedYield>
    3a80:	c1 50       	subi	r28, 0x01	; 1
    3a82:	79 f7       	brne	.-34     	; 0x3a62 <prvUnlockQueue+0x72>
    3a84:	8f ef       	ldi	r24, 0xFF	; 255
    3a86:	f8 01       	movw	r30, r16
    3a88:	81 a3       	std	Z+33, r24	; 0x21
    3a8a:	ff 91       	pop	r31
    3a8c:	f0 93 a2 00 	sts	0x00A2, r31	; 0x8000a2 <__TEXT_REGION_LENGTH__+0x7000a2>
    3a90:	cf 91       	pop	r28
    3a92:	1f 91       	pop	r17
    3a94:	0f 91       	pop	r16
    3a96:	ff 90       	pop	r15
    3a98:	ef 90       	pop	r14
    3a9a:	08 95       	ret

00003a9c <xQueueGenericReset>:
    3a9c:	cf 93       	push	r28
    3a9e:	df 93       	push	r29
    3aa0:	ec 01       	movw	r28, r24
    3aa2:	f0 91 a2 00 	lds	r31, 0x00A2	; 0x8000a2 <__TEXT_REGION_LENGTH__+0x7000a2>
    3aa6:	ff 93       	push	r31
    3aa8:	f8 7f       	andi	r31, 0xF8	; 248
    3aaa:	f0 93 a2 00 	sts	0x00A2, r31	; 0x8000a2 <__TEXT_REGION_LENGTH__+0x7000a2>
    3aae:	48 81       	ld	r20, Y
    3ab0:	59 81       	ldd	r21, Y+1	; 0x01
    3ab2:	28 a1       	ldd	r18, Y+32	; 0x20
    3ab4:	30 e0       	ldi	r19, 0x00	; 0
    3ab6:	7f 8d       	ldd	r23, Y+31	; 0x1f
    3ab8:	72 9f       	mul	r23, r18
    3aba:	c0 01       	movw	r24, r0
    3abc:	73 9f       	mul	r23, r19
    3abe:	90 0d       	add	r25, r0
    3ac0:	11 24       	eor	r1, r1
    3ac2:	fa 01       	movw	r30, r20
    3ac4:	e8 0f       	add	r30, r24
    3ac6:	f9 1f       	adc	r31, r25
    3ac8:	ea 83       	std	Y+2, r30	; 0x02
    3aca:	fb 83       	std	Y+3, r31	; 0x03
    3acc:	1e 8e       	std	Y+30, r1	; 0x1e
    3ace:	4c 83       	std	Y+4, r20	; 0x04
    3ad0:	5d 83       	std	Y+5, r21	; 0x05
    3ad2:	82 1b       	sub	r24, r18
    3ad4:	93 0b       	sbc	r25, r19
    3ad6:	84 0f       	add	r24, r20
    3ad8:	95 1f       	adc	r25, r21
    3ada:	8e 83       	std	Y+6, r24	; 0x06
    3adc:	9f 83       	std	Y+7, r25	; 0x07
    3ade:	8f ef       	ldi	r24, 0xFF	; 255
    3ae0:	89 a3       	std	Y+33, r24	; 0x21
    3ae2:	8a a3       	std	Y+34, r24	; 0x22
    3ae4:	61 11       	cpse	r22, r1
    3ae6:	0c c0       	rjmp	.+24     	; 0x3b00 <xQueueGenericReset+0x64>
    3ae8:	88 85       	ldd	r24, Y+8	; 0x08
    3aea:	88 23       	and	r24, r24
    3aec:	89 f0       	breq	.+34     	; 0x3b10 <xQueueGenericReset+0x74>
    3aee:	ce 01       	movw	r24, r28
    3af0:	08 96       	adiw	r24, 0x08	; 8
    3af2:	0e 94 95 24 	call	0x492a	; 0x492a <xTaskRemoveFromEventList>
    3af6:	88 23       	and	r24, r24
    3af8:	59 f0       	breq	.+22     	; 0x3b10 <xQueueGenericReset+0x74>
    3afa:	0e 94 8a 1b 	call	0x3714	; 0x3714 <vPortYield>
    3afe:	08 c0       	rjmp	.+16     	; 0x3b10 <xQueueGenericReset+0x74>
    3b00:	ce 01       	movw	r24, r28
    3b02:	08 96       	adiw	r24, 0x08	; 8
    3b04:	0e 94 2c 1a 	call	0x3458	; 0x3458 <vListInitialise>
    3b08:	ce 01       	movw	r24, r28
    3b0a:	43 96       	adiw	r24, 0x13	; 19
    3b0c:	0e 94 2c 1a 	call	0x3458	; 0x3458 <vListInitialise>
    3b10:	ff 91       	pop	r31
    3b12:	f0 93 a2 00 	sts	0x00A2, r31	; 0x8000a2 <__TEXT_REGION_LENGTH__+0x7000a2>
    3b16:	81 e0       	ldi	r24, 0x01	; 1
    3b18:	df 91       	pop	r29
    3b1a:	cf 91       	pop	r28
    3b1c:	08 95       	ret

00003b1e <xQueueGenericCreate>:
    3b1e:	ff 92       	push	r15
    3b20:	0f 93       	push	r16
    3b22:	1f 93       	push	r17
    3b24:	cf 93       	push	r28
    3b26:	df 93       	push	r29
    3b28:	08 2f       	mov	r16, r24
    3b2a:	16 2f       	mov	r17, r22
    3b2c:	f4 2e       	mov	r15, r20
    3b2e:	66 23       	and	r22, r22
    3b30:	c9 f0       	breq	.+50     	; 0x3b64 <xQueueGenericCreate+0x46>
    3b32:	86 9f       	mul	r24, r22
    3b34:	c0 01       	movw	r24, r0
    3b36:	11 24       	eor	r1, r1
    3b38:	85 96       	adiw	r24, 0x25	; 37
    3b3a:	0e 94 05 1a 	call	0x340a	; 0x340a <pvPortMalloc>
    3b3e:	ec 01       	movw	r28, r24
    3b40:	00 97       	sbiw	r24, 0x00	; 0
    3b42:	49 f4       	brne	.+18     	; 0x3b56 <xQueueGenericCreate+0x38>
    3b44:	16 c0       	rjmp	.+44     	; 0x3b72 <xQueueGenericCreate+0x54>
    3b46:	0f 8f       	std	Y+31, r16	; 0x1f
    3b48:	18 a3       	std	Y+32, r17	; 0x20
    3b4a:	61 e0       	ldi	r22, 0x01	; 1
    3b4c:	ce 01       	movw	r24, r28
    3b4e:	0e 94 4e 1d 	call	0x3a9c	; 0x3a9c <xQueueGenericReset>
    3b52:	fc a2       	std	Y+36, r15	; 0x24
    3b54:	0e c0       	rjmp	.+28     	; 0x3b72 <xQueueGenericCreate+0x54>
    3b56:	85 96       	adiw	r24, 0x25	; 37
    3b58:	88 83       	st	Y, r24
    3b5a:	99 83       	std	Y+1, r25	; 0x01
    3b5c:	f4 cf       	rjmp	.-24     	; 0x3b46 <xQueueGenericCreate+0x28>
    3b5e:	c8 83       	st	Y, r28
    3b60:	d9 83       	std	Y+1, r29	; 0x01
    3b62:	f1 cf       	rjmp	.-30     	; 0x3b46 <xQueueGenericCreate+0x28>
    3b64:	85 e2       	ldi	r24, 0x25	; 37
    3b66:	90 e0       	ldi	r25, 0x00	; 0
    3b68:	0e 94 05 1a 	call	0x340a	; 0x340a <pvPortMalloc>
    3b6c:	ec 01       	movw	r28, r24
    3b6e:	89 2b       	or	r24, r25
    3b70:	b1 f7       	brne	.-20     	; 0x3b5e <xQueueGenericCreate+0x40>
    3b72:	ce 01       	movw	r24, r28
    3b74:	df 91       	pop	r29
    3b76:	cf 91       	pop	r28
    3b78:	1f 91       	pop	r17
    3b7a:	0f 91       	pop	r16
    3b7c:	ff 90       	pop	r15
    3b7e:	08 95       	ret

00003b80 <xQueueGenericSend>:
    3b80:	af 92       	push	r10
    3b82:	bf 92       	push	r11
    3b84:	cf 92       	push	r12
    3b86:	df 92       	push	r13
    3b88:	ef 92       	push	r14
    3b8a:	ff 92       	push	r15
    3b8c:	0f 93       	push	r16
    3b8e:	1f 93       	push	r17
    3b90:	cf 93       	push	r28
    3b92:	df 93       	push	r29
    3b94:	cd b7       	in	r28, 0x3d	; 61
    3b96:	de b7       	in	r29, 0x3e	; 62
    3b98:	29 97       	sbiw	r28, 0x09	; 9
    3b9a:	cd bf       	out	0x3d, r28	; 61
    3b9c:	de bf       	out	0x3e, r29	; 62
    3b9e:	7c 01       	movw	r14, r24
    3ba0:	5b 01       	movw	r10, r22
    3ba2:	2e 83       	std	Y+6, r18	; 0x06
    3ba4:	3f 83       	std	Y+7, r19	; 0x07
    3ba6:	48 87       	std	Y+8, r20	; 0x08
    3ba8:	59 87       	std	Y+9, r21	; 0x09
    3baa:	10 e0       	ldi	r17, 0x00	; 0
    3bac:	6c 01       	movw	r12, r24
    3bae:	88 e0       	ldi	r24, 0x08	; 8
    3bb0:	c8 0e       	add	r12, r24
    3bb2:	d1 1c       	adc	r13, r1
    3bb4:	f0 91 a2 00 	lds	r31, 0x00A2	; 0x8000a2 <__TEXT_REGION_LENGTH__+0x7000a2>
    3bb8:	ff 93       	push	r31
    3bba:	f8 7f       	andi	r31, 0xF8	; 248
    3bbc:	f0 93 a2 00 	sts	0x00A2, r31	; 0x8000a2 <__TEXT_REGION_LENGTH__+0x7000a2>
    3bc0:	f7 01       	movw	r30, r14
    3bc2:	96 8d       	ldd	r25, Z+30	; 0x1e
    3bc4:	87 8d       	ldd	r24, Z+31	; 0x1f
    3bc6:	98 17       	cp	r25, r24
    3bc8:	10 f0       	brcs	.+4      	; 0x3bce <xQueueGenericSend+0x4e>
    3bca:	02 30       	cpi	r16, 0x02	; 2
    3bcc:	d1 f4       	brne	.+52     	; 0x3c02 <xQueueGenericSend+0x82>
    3bce:	40 2f       	mov	r20, r16
    3bd0:	b5 01       	movw	r22, r10
    3bd2:	c7 01       	movw	r24, r14
    3bd4:	0e 94 95 1c 	call	0x392a	; 0x392a <prvCopyDataToQueue>
    3bd8:	f7 01       	movw	r30, r14
    3bda:	93 89       	ldd	r25, Z+19	; 0x13
    3bdc:	99 23       	and	r25, r25
    3bde:	49 f0       	breq	.+18     	; 0x3bf2 <xQueueGenericSend+0x72>
    3be0:	c7 01       	movw	r24, r14
    3be2:	43 96       	adiw	r24, 0x13	; 19
    3be4:	0e 94 95 24 	call	0x492a	; 0x492a <xTaskRemoveFromEventList>
    3be8:	88 23       	and	r24, r24
    3bea:	31 f0       	breq	.+12     	; 0x3bf8 <xQueueGenericSend+0x78>
    3bec:	0e 94 8a 1b 	call	0x3714	; 0x3714 <vPortYield>
    3bf0:	03 c0       	rjmp	.+6      	; 0x3bf8 <xQueueGenericSend+0x78>
    3bf2:	81 11       	cpse	r24, r1
    3bf4:	0e 94 8a 1b 	call	0x3714	; 0x3714 <vPortYield>
    3bf8:	ff 91       	pop	r31
    3bfa:	f0 93 a2 00 	sts	0x00A2, r31	; 0x8000a2 <__TEXT_REGION_LENGTH__+0x7000a2>
    3bfe:	81 e0       	ldi	r24, 0x01	; 1
    3c00:	57 c0       	rjmp	.+174    	; 0x3cb0 <xQueueGenericSend+0x130>
    3c02:	8e 81       	ldd	r24, Y+6	; 0x06
    3c04:	9f 81       	ldd	r25, Y+7	; 0x07
    3c06:	a8 85       	ldd	r26, Y+8	; 0x08
    3c08:	b9 85       	ldd	r27, Y+9	; 0x09
    3c0a:	89 2b       	or	r24, r25
    3c0c:	8a 2b       	or	r24, r26
    3c0e:	8b 2b       	or	r24, r27
    3c10:	29 f4       	brne	.+10     	; 0x3c1c <xQueueGenericSend+0x9c>
    3c12:	ff 91       	pop	r31
    3c14:	f0 93 a2 00 	sts	0x00A2, r31	; 0x8000a2 <__TEXT_REGION_LENGTH__+0x7000a2>
    3c18:	80 e0       	ldi	r24, 0x00	; 0
    3c1a:	4a c0       	rjmp	.+148    	; 0x3cb0 <xQueueGenericSend+0x130>
    3c1c:	11 11       	cpse	r17, r1
    3c1e:	05 c0       	rjmp	.+10     	; 0x3c2a <xQueueGenericSend+0xaa>
    3c20:	ce 01       	movw	r24, r28
    3c22:	01 96       	adiw	r24, 0x01	; 1
    3c24:	0e 94 0b 25 	call	0x4a16	; 0x4a16 <vTaskInternalSetTimeOutState>
    3c28:	11 e0       	ldi	r17, 0x01	; 1
    3c2a:	ff 91       	pop	r31
    3c2c:	f0 93 a2 00 	sts	0x00A2, r31	; 0x8000a2 <__TEXT_REGION_LENGTH__+0x7000a2>
    3c30:	0e 94 c6 21 	call	0x438c	; 0x438c <vTaskSuspendAll>
    3c34:	f0 91 a2 00 	lds	r31, 0x00A2	; 0x8000a2 <__TEXT_REGION_LENGTH__+0x7000a2>
    3c38:	ff 93       	push	r31
    3c3a:	f8 7f       	andi	r31, 0xF8	; 248
    3c3c:	f0 93 a2 00 	sts	0x00A2, r31	; 0x8000a2 <__TEXT_REGION_LENGTH__+0x7000a2>
    3c40:	f7 01       	movw	r30, r14
    3c42:	81 a1       	ldd	r24, Z+33	; 0x21
    3c44:	8f 3f       	cpi	r24, 0xFF	; 255
    3c46:	09 f4       	brne	.+2      	; 0x3c4a <xQueueGenericSend+0xca>
    3c48:	11 a2       	std	Z+33, r1	; 0x21
    3c4a:	f7 01       	movw	r30, r14
    3c4c:	82 a1       	ldd	r24, Z+34	; 0x22
    3c4e:	8f 3f       	cpi	r24, 0xFF	; 255
    3c50:	09 f4       	brne	.+2      	; 0x3c54 <xQueueGenericSend+0xd4>
    3c52:	12 a2       	std	Z+34, r1	; 0x22
    3c54:	ff 91       	pop	r31
    3c56:	f0 93 a2 00 	sts	0x00A2, r31	; 0x8000a2 <__TEXT_REGION_LENGTH__+0x7000a2>
    3c5a:	be 01       	movw	r22, r28
    3c5c:	6a 5f       	subi	r22, 0xFA	; 250
    3c5e:	7f 4f       	sbci	r23, 0xFF	; 255
    3c60:	ce 01       	movw	r24, r28
    3c62:	01 96       	adiw	r24, 0x01	; 1
    3c64:	0e 94 1c 25 	call	0x4a38	; 0x4a38 <xTaskCheckForTimeOut>
    3c68:	81 11       	cpse	r24, r1
    3c6a:	1c c0       	rjmp	.+56     	; 0x3ca4 <xQueueGenericSend+0x124>
    3c6c:	c7 01       	movw	r24, r14
    3c6e:	0e 94 82 1c 	call	0x3904	; 0x3904 <prvIsQueueFull>
    3c72:	88 23       	and	r24, r24
    3c74:	89 f0       	breq	.+34     	; 0x3c98 <xQueueGenericSend+0x118>
    3c76:	4e 81       	ldd	r20, Y+6	; 0x06
    3c78:	5f 81       	ldd	r21, Y+7	; 0x07
    3c7a:	68 85       	ldd	r22, Y+8	; 0x08
    3c7c:	79 85       	ldd	r23, Y+9	; 0x09
    3c7e:	c6 01       	movw	r24, r12
    3c80:	0e 94 37 24 	call	0x486e	; 0x486e <vTaskPlaceOnEventList>
    3c84:	c7 01       	movw	r24, r14
    3c86:	0e 94 f8 1c 	call	0x39f0	; 0x39f0 <prvUnlockQueue>
    3c8a:	0e 94 b1 22 	call	0x4562	; 0x4562 <xTaskResumeAll>
    3c8e:	81 11       	cpse	r24, r1
    3c90:	91 cf       	rjmp	.-222    	; 0x3bb4 <xQueueGenericSend+0x34>
    3c92:	0e 94 8a 1b 	call	0x3714	; 0x3714 <vPortYield>
    3c96:	8e cf       	rjmp	.-228    	; 0x3bb4 <xQueueGenericSend+0x34>
    3c98:	c7 01       	movw	r24, r14
    3c9a:	0e 94 f8 1c 	call	0x39f0	; 0x39f0 <prvUnlockQueue>
    3c9e:	0e 94 b1 22 	call	0x4562	; 0x4562 <xTaskResumeAll>
    3ca2:	88 cf       	rjmp	.-240    	; 0x3bb4 <xQueueGenericSend+0x34>
    3ca4:	c7 01       	movw	r24, r14
    3ca6:	0e 94 f8 1c 	call	0x39f0	; 0x39f0 <prvUnlockQueue>
    3caa:	0e 94 b1 22 	call	0x4562	; 0x4562 <xTaskResumeAll>
    3cae:	80 e0       	ldi	r24, 0x00	; 0
    3cb0:	29 96       	adiw	r28, 0x09	; 9
    3cb2:	cd bf       	out	0x3d, r28	; 61
    3cb4:	de bf       	out	0x3e, r29	; 62
    3cb6:	df 91       	pop	r29
    3cb8:	cf 91       	pop	r28
    3cba:	1f 91       	pop	r17
    3cbc:	0f 91       	pop	r16
    3cbe:	ff 90       	pop	r15
    3cc0:	ef 90       	pop	r14
    3cc2:	df 90       	pop	r13
    3cc4:	cf 90       	pop	r12
    3cc6:	bf 90       	pop	r11
    3cc8:	af 90       	pop	r10
    3cca:	08 95       	ret

00003ccc <xQueueGenericSendFromISR>:
    3ccc:	af 92       	push	r10
    3cce:	bf 92       	push	r11
    3cd0:	cf 92       	push	r12
    3cd2:	df 92       	push	r13
    3cd4:	ff 92       	push	r15
    3cd6:	0f 93       	push	r16
    3cd8:	1f 93       	push	r17
    3cda:	cf 93       	push	r28
    3cdc:	df 93       	push	r29
    3cde:	ec 01       	movw	r28, r24
    3ce0:	6b 01       	movw	r12, r22
    3ce2:	5a 01       	movw	r10, r20
    3ce4:	02 2f       	mov	r16, r18
    3ce6:	0e 94 c6 1a 	call	0x358c	; 0x358c <_portSetInterruptMaskFromIsr>
    3cea:	f8 2e       	mov	r15, r24
    3cec:	9e 8d       	ldd	r25, Y+30	; 0x1e
    3cee:	8f 8d       	ldd	r24, Y+31	; 0x1f
    3cf0:	98 17       	cp	r25, r24
    3cf2:	10 f0       	brcs	.+4      	; 0x3cf8 <xQueueGenericSendFromISR+0x2c>
    3cf4:	02 30       	cpi	r16, 0x02	; 2
    3cf6:	e1 f4       	brne	.+56     	; 0x3d30 <xQueueGenericSendFromISR+0x64>
    3cf8:	1a a1       	ldd	r17, Y+34	; 0x22
    3cfa:	40 2f       	mov	r20, r16
    3cfc:	b6 01       	movw	r22, r12
    3cfe:	ce 01       	movw	r24, r28
    3d00:	0e 94 95 1c 	call	0x392a	; 0x392a <prvCopyDataToQueue>
    3d04:	1f 3f       	cpi	r17, 0xFF	; 255
    3d06:	81 f4       	brne	.+32     	; 0x3d28 <xQueueGenericSendFromISR+0x5c>
    3d08:	8b 89       	ldd	r24, Y+19	; 0x13
    3d0a:	88 23       	and	r24, r24
    3d0c:	99 f0       	breq	.+38     	; 0x3d34 <xQueueGenericSendFromISR+0x68>
    3d0e:	ce 01       	movw	r24, r28
    3d10:	43 96       	adiw	r24, 0x13	; 19
    3d12:	0e 94 95 24 	call	0x492a	; 0x492a <xTaskRemoveFromEventList>
    3d16:	88 23       	and	r24, r24
    3d18:	79 f0       	breq	.+30     	; 0x3d38 <xQueueGenericSendFromISR+0x6c>
    3d1a:	a1 14       	cp	r10, r1
    3d1c:	b1 04       	cpc	r11, r1
    3d1e:	71 f0       	breq	.+28     	; 0x3d3c <xQueueGenericSendFromISR+0x70>
    3d20:	81 e0       	ldi	r24, 0x01	; 1
    3d22:	f5 01       	movw	r30, r10
    3d24:	80 83       	st	Z, r24
    3d26:	0b c0       	rjmp	.+22     	; 0x3d3e <xQueueGenericSendFromISR+0x72>
    3d28:	1f 5f       	subi	r17, 0xFF	; 255
    3d2a:	1a a3       	std	Y+34, r17	; 0x22
    3d2c:	81 e0       	ldi	r24, 0x01	; 1
    3d2e:	07 c0       	rjmp	.+14     	; 0x3d3e <xQueueGenericSendFromISR+0x72>
    3d30:	80 e0       	ldi	r24, 0x00	; 0
    3d32:	05 c0       	rjmp	.+10     	; 0x3d3e <xQueueGenericSendFromISR+0x72>
    3d34:	81 e0       	ldi	r24, 0x01	; 1
    3d36:	03 c0       	rjmp	.+6      	; 0x3d3e <xQueueGenericSendFromISR+0x72>
    3d38:	81 e0       	ldi	r24, 0x01	; 1
    3d3a:	01 c0       	rjmp	.+2      	; 0x3d3e <xQueueGenericSendFromISR+0x72>
    3d3c:	81 e0       	ldi	r24, 0x01	; 1
    3d3e:	f0 92 a2 00 	sts	0x00A2, r15	; 0x8000a2 <__TEXT_REGION_LENGTH__+0x7000a2>
    3d42:	df 91       	pop	r29
    3d44:	cf 91       	pop	r28
    3d46:	1f 91       	pop	r17
    3d48:	0f 91       	pop	r16
    3d4a:	ff 90       	pop	r15
    3d4c:	df 90       	pop	r13
    3d4e:	cf 90       	pop	r12
    3d50:	bf 90       	pop	r11
    3d52:	af 90       	pop	r10
    3d54:	08 95       	ret

00003d56 <xQueueReceive>:
    3d56:	af 92       	push	r10
    3d58:	bf 92       	push	r11
    3d5a:	cf 92       	push	r12
    3d5c:	df 92       	push	r13
    3d5e:	ef 92       	push	r14
    3d60:	ff 92       	push	r15
    3d62:	0f 93       	push	r16
    3d64:	1f 93       	push	r17
    3d66:	cf 93       	push	r28
    3d68:	df 93       	push	r29
    3d6a:	cd b7       	in	r28, 0x3d	; 61
    3d6c:	de b7       	in	r29, 0x3e	; 62
    3d6e:	29 97       	sbiw	r28, 0x09	; 9
    3d70:	cd bf       	out	0x3d, r28	; 61
    3d72:	de bf       	out	0x3e, r29	; 62
    3d74:	8c 01       	movw	r16, r24
    3d76:	5b 01       	movw	r10, r22
    3d78:	2e 83       	std	Y+6, r18	; 0x06
    3d7a:	3f 83       	std	Y+7, r19	; 0x07
    3d7c:	48 87       	std	Y+8, r20	; 0x08
    3d7e:	59 87       	std	Y+9, r21	; 0x09
    3d80:	e1 2c       	mov	r14, r1
    3d82:	6c 01       	movw	r12, r24
    3d84:	83 e1       	ldi	r24, 0x13	; 19
    3d86:	c8 0e       	add	r12, r24
    3d88:	d1 1c       	adc	r13, r1
    3d8a:	f0 91 a2 00 	lds	r31, 0x00A2	; 0x8000a2 <__TEXT_REGION_LENGTH__+0x7000a2>
    3d8e:	ff 93       	push	r31
    3d90:	f8 7f       	andi	r31, 0xF8	; 248
    3d92:	f0 93 a2 00 	sts	0x00A2, r31	; 0x8000a2 <__TEXT_REGION_LENGTH__+0x7000a2>
    3d96:	f8 01       	movw	r30, r16
    3d98:	f6 8c       	ldd	r15, Z+30	; 0x1e
    3d9a:	ff 20       	and	r15, r15
    3d9c:	b1 f0       	breq	.+44     	; 0x3dca <xQueueReceive+0x74>
    3d9e:	b5 01       	movw	r22, r10
    3da0:	c8 01       	movw	r24, r16
    3da2:	0e 94 de 1c 	call	0x39bc	; 0x39bc <prvCopyDataFromQueue>
    3da6:	fa 94       	dec	r15
    3da8:	f8 01       	movw	r30, r16
    3daa:	f6 8e       	std	Z+30, r15	; 0x1e
    3dac:	80 85       	ldd	r24, Z+8	; 0x08
    3dae:	88 23       	and	r24, r24
    3db0:	39 f0       	breq	.+14     	; 0x3dc0 <xQueueReceive+0x6a>
    3db2:	c8 01       	movw	r24, r16
    3db4:	08 96       	adiw	r24, 0x08	; 8
    3db6:	0e 94 95 24 	call	0x492a	; 0x492a <xTaskRemoveFromEventList>
    3dba:	81 11       	cpse	r24, r1
    3dbc:	0e 94 8a 1b 	call	0x3714	; 0x3714 <vPortYield>
    3dc0:	ff 91       	pop	r31
    3dc2:	f0 93 a2 00 	sts	0x00A2, r31	; 0x8000a2 <__TEXT_REGION_LENGTH__+0x7000a2>
    3dc6:	81 e0       	ldi	r24, 0x01	; 1
    3dc8:	5e c0       	rjmp	.+188    	; 0x3e86 <xQueueReceive+0x130>
    3dca:	8e 81       	ldd	r24, Y+6	; 0x06
    3dcc:	9f 81       	ldd	r25, Y+7	; 0x07
    3dce:	a8 85       	ldd	r26, Y+8	; 0x08
    3dd0:	b9 85       	ldd	r27, Y+9	; 0x09
    3dd2:	89 2b       	or	r24, r25
    3dd4:	8a 2b       	or	r24, r26
    3dd6:	8b 2b       	or	r24, r27
    3dd8:	29 f4       	brne	.+10     	; 0x3de4 <xQueueReceive+0x8e>
    3dda:	ff 91       	pop	r31
    3ddc:	f0 93 a2 00 	sts	0x00A2, r31	; 0x8000a2 <__TEXT_REGION_LENGTH__+0x7000a2>
    3de0:	80 e0       	ldi	r24, 0x00	; 0
    3de2:	51 c0       	rjmp	.+162    	; 0x3e86 <xQueueReceive+0x130>
    3de4:	e1 10       	cpse	r14, r1
    3de6:	06 c0       	rjmp	.+12     	; 0x3df4 <xQueueReceive+0x9e>
    3de8:	ce 01       	movw	r24, r28
    3dea:	01 96       	adiw	r24, 0x01	; 1
    3dec:	0e 94 0b 25 	call	0x4a16	; 0x4a16 <vTaskInternalSetTimeOutState>
    3df0:	ee 24       	eor	r14, r14
    3df2:	e3 94       	inc	r14
    3df4:	ff 91       	pop	r31
    3df6:	f0 93 a2 00 	sts	0x00A2, r31	; 0x8000a2 <__TEXT_REGION_LENGTH__+0x7000a2>
    3dfa:	0e 94 c6 21 	call	0x438c	; 0x438c <vTaskSuspendAll>
    3dfe:	f0 91 a2 00 	lds	r31, 0x00A2	; 0x8000a2 <__TEXT_REGION_LENGTH__+0x7000a2>
    3e02:	ff 93       	push	r31
    3e04:	f8 7f       	andi	r31, 0xF8	; 248
    3e06:	f0 93 a2 00 	sts	0x00A2, r31	; 0x8000a2 <__TEXT_REGION_LENGTH__+0x7000a2>
    3e0a:	f8 01       	movw	r30, r16
    3e0c:	81 a1       	ldd	r24, Z+33	; 0x21
    3e0e:	8f 3f       	cpi	r24, 0xFF	; 255
    3e10:	09 f4       	brne	.+2      	; 0x3e14 <xQueueReceive+0xbe>
    3e12:	11 a2       	std	Z+33, r1	; 0x21
    3e14:	f8 01       	movw	r30, r16
    3e16:	82 a1       	ldd	r24, Z+34	; 0x22
    3e18:	8f 3f       	cpi	r24, 0xFF	; 255
    3e1a:	09 f4       	brne	.+2      	; 0x3e1e <xQueueReceive+0xc8>
    3e1c:	12 a2       	std	Z+34, r1	; 0x22
    3e1e:	ff 91       	pop	r31
    3e20:	f0 93 a2 00 	sts	0x00A2, r31	; 0x8000a2 <__TEXT_REGION_LENGTH__+0x7000a2>
    3e24:	be 01       	movw	r22, r28
    3e26:	6a 5f       	subi	r22, 0xFA	; 250
    3e28:	7f 4f       	sbci	r23, 0xFF	; 255
    3e2a:	ce 01       	movw	r24, r28
    3e2c:	01 96       	adiw	r24, 0x01	; 1
    3e2e:	0e 94 1c 25 	call	0x4a38	; 0x4a38 <xTaskCheckForTimeOut>
    3e32:	81 11       	cpse	r24, r1
    3e34:	1c c0       	rjmp	.+56     	; 0x3e6e <xQueueReceive+0x118>
    3e36:	c8 01       	movw	r24, r16
    3e38:	0e 94 73 1c 	call	0x38e6	; 0x38e6 <prvIsQueueEmpty>
    3e3c:	88 23       	and	r24, r24
    3e3e:	89 f0       	breq	.+34     	; 0x3e62 <xQueueReceive+0x10c>
    3e40:	4e 81       	ldd	r20, Y+6	; 0x06
    3e42:	5f 81       	ldd	r21, Y+7	; 0x07
    3e44:	68 85       	ldd	r22, Y+8	; 0x08
    3e46:	79 85       	ldd	r23, Y+9	; 0x09
    3e48:	c6 01       	movw	r24, r12
    3e4a:	0e 94 37 24 	call	0x486e	; 0x486e <vTaskPlaceOnEventList>
    3e4e:	c8 01       	movw	r24, r16
    3e50:	0e 94 f8 1c 	call	0x39f0	; 0x39f0 <prvUnlockQueue>
    3e54:	0e 94 b1 22 	call	0x4562	; 0x4562 <xTaskResumeAll>
    3e58:	81 11       	cpse	r24, r1
    3e5a:	97 cf       	rjmp	.-210    	; 0x3d8a <xQueueReceive+0x34>
    3e5c:	0e 94 8a 1b 	call	0x3714	; 0x3714 <vPortYield>
    3e60:	94 cf       	rjmp	.-216    	; 0x3d8a <xQueueReceive+0x34>
    3e62:	c8 01       	movw	r24, r16
    3e64:	0e 94 f8 1c 	call	0x39f0	; 0x39f0 <prvUnlockQueue>
    3e68:	0e 94 b1 22 	call	0x4562	; 0x4562 <xTaskResumeAll>
    3e6c:	8e cf       	rjmp	.-228    	; 0x3d8a <xQueueReceive+0x34>
    3e6e:	c8 01       	movw	r24, r16
    3e70:	0e 94 f8 1c 	call	0x39f0	; 0x39f0 <prvUnlockQueue>
    3e74:	0e 94 b1 22 	call	0x4562	; 0x4562 <xTaskResumeAll>
    3e78:	c8 01       	movw	r24, r16
    3e7a:	0e 94 73 1c 	call	0x38e6	; 0x38e6 <prvIsQueueEmpty>
    3e7e:	88 23       	and	r24, r24
    3e80:	09 f4       	brne	.+2      	; 0x3e84 <xQueueReceive+0x12e>
    3e82:	83 cf       	rjmp	.-250    	; 0x3d8a <xQueueReceive+0x34>
    3e84:	80 e0       	ldi	r24, 0x00	; 0
    3e86:	29 96       	adiw	r28, 0x09	; 9
    3e88:	cd bf       	out	0x3d, r28	; 61
    3e8a:	de bf       	out	0x3e, r29	; 62
    3e8c:	df 91       	pop	r29
    3e8e:	cf 91       	pop	r28
    3e90:	1f 91       	pop	r17
    3e92:	0f 91       	pop	r16
    3e94:	ff 90       	pop	r15
    3e96:	ef 90       	pop	r14
    3e98:	df 90       	pop	r13
    3e9a:	cf 90       	pop	r12
    3e9c:	bf 90       	pop	r11
    3e9e:	af 90       	pop	r10
    3ea0:	08 95       	ret

00003ea2 <uxQueueMessagesWaiting>:
    3ea2:	f0 91 a2 00 	lds	r31, 0x00A2	; 0x8000a2 <__TEXT_REGION_LENGTH__+0x7000a2>
    3ea6:	ff 93       	push	r31
    3ea8:	f8 7f       	andi	r31, 0xF8	; 248
    3eaa:	f0 93 a2 00 	sts	0x00A2, r31	; 0x8000a2 <__TEXT_REGION_LENGTH__+0x7000a2>
    3eae:	fc 01       	movw	r30, r24
    3eb0:	86 8d       	ldd	r24, Z+30	; 0x1e
    3eb2:	ff 91       	pop	r31
    3eb4:	f0 93 a2 00 	sts	0x00A2, r31	; 0x8000a2 <__TEXT_REGION_LENGTH__+0x7000a2>
    3eb8:	08 95       	ret

00003eba <vQueueWaitForMessageRestricted>:
/*-----------------------------------------------------------*/

#if ( configUSE_TIMERS == 1 )

	void vQueueWaitForMessageRestricted( QueueHandle_t xQueue, TickType_t xTicksToWait, const BaseType_t xWaitIndefinitely )
	{
    3eba:	cf 93       	push	r28
    3ebc:	df 93       	push	r29
    3ebe:	ec 01       	movw	r28, r24
		will not actually cause the task to block, just place it on a blocked
		list.  It will not block until the scheduler is unlocked - at which
		time a yield will be performed.  If an item is added to the queue while
		the queue is locked, and the calling task blocks on the queue, then the
		calling task will be immediately unblocked when the queue is unlocked. */
		prvLockQueue( pxQueue );
    3ec0:	f0 91 a2 00 	lds	r31, 0x00A2	; 0x8000a2 <__TEXT_REGION_LENGTH__+0x7000a2>
    3ec4:	ff 93       	push	r31
    3ec6:	f8 7f       	andi	r31, 0xF8	; 248
    3ec8:	f0 93 a2 00 	sts	0x00A2, r31	; 0x8000a2 <__TEXT_REGION_LENGTH__+0x7000a2>
    3ecc:	89 a1       	ldd	r24, Y+33	; 0x21
    3ece:	8f 3f       	cpi	r24, 0xFF	; 255
    3ed0:	09 f4       	brne	.+2      	; 0x3ed4 <vQueueWaitForMessageRestricted+0x1a>
    3ed2:	19 a2       	std	Y+33, r1	; 0x21
    3ed4:	8a a1       	ldd	r24, Y+34	; 0x22
    3ed6:	8f 3f       	cpi	r24, 0xFF	; 255
    3ed8:	09 f4       	brne	.+2      	; 0x3edc <vQueueWaitForMessageRestricted+0x22>
    3eda:	1a a2       	std	Y+34, r1	; 0x22
    3edc:	ff 91       	pop	r31
    3ede:	f0 93 a2 00 	sts	0x00A2, r31	; 0x8000a2 <__TEXT_REGION_LENGTH__+0x7000a2>
		if( pxQueue->uxMessagesWaiting == ( UBaseType_t ) 0U )
    3ee2:	8e 8d       	ldd	r24, Y+30	; 0x1e
    3ee4:	81 11       	cpse	r24, r1
    3ee6:	04 c0       	rjmp	.+8      	; 0x3ef0 <vQueueWaitForMessageRestricted+0x36>
		{
			/* There is nothing in the queue, block for the specified period. */
			vTaskPlaceOnEventListRestricted( &( pxQueue->xTasksWaitingToReceive ), xTicksToWait, xWaitIndefinitely );
    3ee8:	ce 01       	movw	r24, r28
    3eea:	43 96       	adiw	r24, 0x13	; 19
    3eec:	0e 94 74 24 	call	0x48e8	; 0x48e8 <vTaskPlaceOnEventListRestricted>
		}
		else
		{
			mtCOVERAGE_TEST_MARKER();
		}
		prvUnlockQueue( pxQueue );
    3ef0:	ce 01       	movw	r24, r28
    3ef2:	0e 94 f8 1c 	call	0x39f0	; 0x39f0 <prvUnlockQueue>
	}
    3ef6:	df 91       	pop	r29
    3ef8:	cf 91       	pop	r28
    3efa:	08 95       	ret

00003efc <prvResetNextTaskUnblockTime>:
		an interrupt and the current TCB will always be the same for any
		individual execution thread. */
		xReturn = pxCurrentTCB;

		return xReturn;
	}
    3efc:	e0 91 2e 2d 	lds	r30, 0x2D2E	; 0x802d2e <pxDelayedTaskList>
    3f00:	f0 91 2f 2d 	lds	r31, 0x2D2F	; 0x802d2f <pxDelayedTaskList+0x1>
    3f04:	80 81       	ld	r24, Z
    3f06:	81 11       	cpse	r24, r1
    3f08:	0c c0       	rjmp	.+24     	; 0x3f22 <prvResetNextTaskUnblockTime+0x26>
    3f0a:	8f ef       	ldi	r24, 0xFF	; 255
    3f0c:	9f ef       	ldi	r25, 0xFF	; 255
    3f0e:	dc 01       	movw	r26, r24
    3f10:	80 93 07 2d 	sts	0x2D07, r24	; 0x802d07 <xNextTaskUnblockTime>
    3f14:	90 93 08 2d 	sts	0x2D08, r25	; 0x802d08 <xNextTaskUnblockTime+0x1>
    3f18:	a0 93 09 2d 	sts	0x2D09, r26	; 0x802d09 <xNextTaskUnblockTime+0x2>
    3f1c:	b0 93 0a 2d 	sts	0x2D0A, r27	; 0x802d0a <xNextTaskUnblockTime+0x3>
    3f20:	08 95       	ret
    3f22:	e0 91 2e 2d 	lds	r30, 0x2D2E	; 0x802d2e <pxDelayedTaskList>
    3f26:	f0 91 2f 2d 	lds	r31, 0x2D2F	; 0x802d2f <pxDelayedTaskList+0x1>
    3f2a:	07 80       	ldd	r0, Z+7	; 0x07
    3f2c:	f0 85       	ldd	r31, Z+8	; 0x08
    3f2e:	e0 2d       	mov	r30, r0
    3f30:	00 84       	ldd	r0, Z+8	; 0x08
    3f32:	f1 85       	ldd	r31, Z+9	; 0x09
    3f34:	e0 2d       	mov	r30, r0
    3f36:	82 81       	ldd	r24, Z+2	; 0x02
    3f38:	93 81       	ldd	r25, Z+3	; 0x03
    3f3a:	a4 81       	ldd	r26, Z+4	; 0x04
    3f3c:	b5 81       	ldd	r27, Z+5	; 0x05
    3f3e:	80 93 07 2d 	sts	0x2D07, r24	; 0x802d07 <xNextTaskUnblockTime>
    3f42:	90 93 08 2d 	sts	0x2D08, r25	; 0x802d08 <xNextTaskUnblockTime+0x1>
    3f46:	a0 93 09 2d 	sts	0x2D09, r26	; 0x802d09 <xNextTaskUnblockTime+0x2>
    3f4a:	b0 93 0a 2d 	sts	0x2D0A, r27	; 0x802d0a <xNextTaskUnblockTime+0x3>
    3f4e:	08 95       	ret

00003f50 <prvAddCurrentTaskToDelayedList>:
    3f50:	8f 92       	push	r8
    3f52:	9f 92       	push	r9
    3f54:	af 92       	push	r10
    3f56:	bf 92       	push	r11
    3f58:	cf 92       	push	r12
    3f5a:	df 92       	push	r13
    3f5c:	ef 92       	push	r14
    3f5e:	ff 92       	push	r15
    3f60:	cf 93       	push	r28
    3f62:	6b 01       	movw	r12, r22
    3f64:	7c 01       	movw	r14, r24
    3f66:	c4 2f       	mov	r28, r20
    3f68:	80 90 11 2d 	lds	r8, 0x2D11	; 0x802d11 <xTickCount>
    3f6c:	90 90 12 2d 	lds	r9, 0x2D12	; 0x802d12 <xTickCount+0x1>
    3f70:	a0 90 13 2d 	lds	r10, 0x2D13	; 0x802d13 <xTickCount+0x2>
    3f74:	b0 90 14 2d 	lds	r11, 0x2D14	; 0x802d14 <xTickCount+0x3>
    3f78:	80 91 72 2d 	lds	r24, 0x2D72	; 0x802d72 <pxCurrentTCB>
    3f7c:	90 91 73 2d 	lds	r25, 0x2D73	; 0x802d73 <pxCurrentTCB+0x1>
    3f80:	02 96       	adiw	r24, 0x02	; 2
    3f82:	0e 94 9f 1a 	call	0x353e	; 0x353e <uxListRemove>
    3f86:	8f ef       	ldi	r24, 0xFF	; 255
    3f88:	c8 16       	cp	r12, r24
    3f8a:	d8 06       	cpc	r13, r24
    3f8c:	e8 06       	cpc	r14, r24
    3f8e:	f8 06       	cpc	r15, r24
    3f90:	69 f4       	brne	.+26     	; 0x3fac <prvAddCurrentTaskToDelayedList+0x5c>
    3f92:	cc 23       	and	r28, r28
    3f94:	59 f0       	breq	.+22     	; 0x3fac <prvAddCurrentTaskToDelayedList+0x5c>
    3f96:	60 91 72 2d 	lds	r22, 0x2D72	; 0x802d72 <pxCurrentTCB>
    3f9a:	70 91 73 2d 	lds	r23, 0x2D73	; 0x802d73 <pxCurrentTCB+0x1>
    3f9e:	6e 5f       	subi	r22, 0xFE	; 254
    3fa0:	7f 4f       	sbci	r23, 0xFF	; 255
    3fa2:	86 e1       	ldi	r24, 0x16	; 22
    3fa4:	9d e2       	ldi	r25, 0x2D	; 45
    3fa6:	0e 94 41 1a 	call	0x3482	; 0x3482 <vListInsertEnd>
    3faa:	3f c0       	rjmp	.+126    	; 0x402a <__stack+0x2b>
    3fac:	c8 0c       	add	r12, r8
    3fae:	d9 1c       	adc	r13, r9
    3fb0:	ea 1c       	adc	r14, r10
    3fb2:	fb 1c       	adc	r15, r11
    3fb4:	e0 91 72 2d 	lds	r30, 0x2D72	; 0x802d72 <pxCurrentTCB>
    3fb8:	f0 91 73 2d 	lds	r31, 0x2D73	; 0x802d73 <pxCurrentTCB+0x1>
    3fbc:	c2 82       	std	Z+2, r12	; 0x02
    3fbe:	d3 82       	std	Z+3, r13	; 0x03
    3fc0:	e4 82       	std	Z+4, r14	; 0x04
    3fc2:	f5 82       	std	Z+5, r15	; 0x05
    3fc4:	c8 14       	cp	r12, r8
    3fc6:	d9 04       	cpc	r13, r9
    3fc8:	ea 04       	cpc	r14, r10
    3fca:	fb 04       	cpc	r15, r11
    3fcc:	68 f4       	brcc	.+26     	; 0x3fe8 <prvAddCurrentTaskToDelayedList+0x98>
    3fce:	60 91 72 2d 	lds	r22, 0x2D72	; 0x802d72 <pxCurrentTCB>
    3fd2:	70 91 73 2d 	lds	r23, 0x2D73	; 0x802d73 <pxCurrentTCB+0x1>
    3fd6:	80 91 2c 2d 	lds	r24, 0x2D2C	; 0x802d2c <pxOverflowDelayedTaskList>
    3fda:	90 91 2d 2d 	lds	r25, 0x2D2D	; 0x802d2d <pxOverflowDelayedTaskList+0x1>
    3fde:	6e 5f       	subi	r22, 0xFE	; 254
    3fe0:	7f 4f       	sbci	r23, 0xFF	; 255
    3fe2:	0e 94 62 1a 	call	0x34c4	; 0x34c4 <vListInsert>
    3fe6:	21 c0       	rjmp	.+66     	; 0x402a <__stack+0x2b>
    3fe8:	60 91 72 2d 	lds	r22, 0x2D72	; 0x802d72 <pxCurrentTCB>
    3fec:	70 91 73 2d 	lds	r23, 0x2D73	; 0x802d73 <pxCurrentTCB+0x1>
    3ff0:	80 91 2e 2d 	lds	r24, 0x2D2E	; 0x802d2e <pxDelayedTaskList>
    3ff4:	90 91 2f 2d 	lds	r25, 0x2D2F	; 0x802d2f <pxDelayedTaskList+0x1>
    3ff8:	6e 5f       	subi	r22, 0xFE	; 254
    3ffa:	7f 4f       	sbci	r23, 0xFF	; 255
    3ffc:	0e 94 62 1a 	call	0x34c4	; 0x34c4 <vListInsert>
    4000:	80 91 07 2d 	lds	r24, 0x2D07	; 0x802d07 <xNextTaskUnblockTime>
    4004:	90 91 08 2d 	lds	r25, 0x2D08	; 0x802d08 <xNextTaskUnblockTime+0x1>
    4008:	a0 91 09 2d 	lds	r26, 0x2D09	; 0x802d09 <xNextTaskUnblockTime+0x2>
    400c:	b0 91 0a 2d 	lds	r27, 0x2D0A	; 0x802d0a <xNextTaskUnblockTime+0x3>
    4010:	c8 16       	cp	r12, r24
    4012:	d9 06       	cpc	r13, r25
    4014:	ea 06       	cpc	r14, r26
    4016:	fb 06       	cpc	r15, r27
    4018:	40 f4       	brcc	.+16     	; 0x402a <__stack+0x2b>
    401a:	c0 92 07 2d 	sts	0x2D07, r12	; 0x802d07 <xNextTaskUnblockTime>
    401e:	d0 92 08 2d 	sts	0x2D08, r13	; 0x802d08 <xNextTaskUnblockTime+0x1>
    4022:	e0 92 09 2d 	sts	0x2D09, r14	; 0x802d09 <xNextTaskUnblockTime+0x2>
    4026:	f0 92 0a 2d 	sts	0x2D0A, r15	; 0x802d0a <xNextTaskUnblockTime+0x3>
    402a:	cf 91       	pop	r28
    402c:	ff 90       	pop	r15
    402e:	ef 90       	pop	r14
    4030:	df 90       	pop	r13
    4032:	cf 90       	pop	r12
    4034:	bf 90       	pop	r11
    4036:	af 90       	pop	r10
    4038:	9f 90       	pop	r9
    403a:	8f 90       	pop	r8
    403c:	08 95       	ret

0000403e <prvIdleTask>:
    403e:	c6 e4       	ldi	r28, 0x46	; 70
    4040:	dd e2       	ldi	r29, 0x2D	; 45
    4042:	88 81       	ld	r24, Y
    4044:	82 30       	cpi	r24, 0x02	; 2
    4046:	10 f0       	brcs	.+4      	; 0x404c <prvIdleTask+0xe>
    4048:	0e 94 8a 1b 	call	0x3714	; 0x3714 <vPortYield>
    404c:	0e 94 31 30 	call	0x6062	; 0x6062 <vApplicationIdleHook>
    4050:	f8 cf       	rjmp	.-16     	; 0x4042 <prvIdleTask+0x4>

00004052 <xTaskCreate>:
    4052:	4f 92       	push	r4
    4054:	5f 92       	push	r5
    4056:	6f 92       	push	r6
    4058:	7f 92       	push	r7
    405a:	8f 92       	push	r8
    405c:	9f 92       	push	r9
    405e:	af 92       	push	r10
    4060:	bf 92       	push	r11
    4062:	cf 92       	push	r12
    4064:	df 92       	push	r13
    4066:	ef 92       	push	r14
    4068:	ff 92       	push	r15
    406a:	0f 93       	push	r16
    406c:	cf 93       	push	r28
    406e:	df 93       	push	r29
    4070:	4c 01       	movw	r8, r24
    4072:	6b 01       	movw	r12, r22
    4074:	5a 01       	movw	r10, r20
    4076:	29 01       	movw	r4, r18
    4078:	ca 01       	movw	r24, r20
    407a:	0e 94 05 1a 	call	0x340a	; 0x340a <pvPortMalloc>
    407e:	3c 01       	movw	r6, r24
    4080:	89 2b       	or	r24, r25
    4082:	09 f4       	brne	.+2      	; 0x4086 <xTaskCreate+0x34>
    4084:	ea c0       	rjmp	.+468    	; 0x425a <xTaskCreate+0x208>
    4086:	8c e2       	ldi	r24, 0x2C	; 44
    4088:	90 e0       	ldi	r25, 0x00	; 0
    408a:	0e 94 05 1a 	call	0x340a	; 0x340a <pvPortMalloc>
    408e:	ec 01       	movw	r28, r24
    4090:	89 2b       	or	r24, r25
    4092:	b1 f0       	breq	.+44     	; 0x40c0 <xTaskCreate+0x6e>
    4094:	6b 8e       	std	Y+27, r6	; 0x1b
    4096:	7c 8e       	std	Y+28, r7	; 0x1c
    4098:	a5 01       	movw	r20, r10
    409a:	65 ea       	ldi	r22, 0xA5	; 165
    409c:	70 e0       	ldi	r23, 0x00	; 0
    409e:	c3 01       	movw	r24, r6
    40a0:	0e 94 6c 41 	call	0x82d8	; 0x82d8 <memset>
    40a4:	21 e0       	ldi	r18, 0x01	; 1
    40a6:	a2 1a       	sub	r10, r18
    40a8:	b1 08       	sbc	r11, r1
    40aa:	8b 8d       	ldd	r24, Y+27	; 0x1b
    40ac:	9c 8d       	ldd	r25, Y+28	; 0x1c
    40ae:	a8 0e       	add	r10, r24
    40b0:	b9 1e       	adc	r11, r25
    40b2:	d6 01       	movw	r26, r12
    40b4:	8c 91       	ld	r24, X
    40b6:	8d 8f       	std	Y+29, r24	; 0x1d
    40b8:	8c 91       	ld	r24, X
    40ba:	81 11       	cpse	r24, r1
    40bc:	05 c0       	rjmp	.+10     	; 0x40c8 <xTaskCreate+0x76>
    40be:	18 c0       	rjmp	.+48     	; 0x40f0 <xTaskCreate+0x9e>
    40c0:	c3 01       	movw	r24, r6
    40c2:	0e 94 2b 1a 	call	0x3456	; 0x3456 <vPortFree>
    40c6:	c9 c0       	rjmp	.+402    	; 0x425a <xTaskCreate+0x208>
    40c8:	ae 01       	movw	r20, r28
    40ca:	42 5e       	subi	r20, 0xE2	; 226
    40cc:	5f 4f       	sbci	r21, 0xFF	; 255
    40ce:	f6 01       	movw	r30, r12
    40d0:	31 96       	adiw	r30, 0x01	; 1
    40d2:	b8 e0       	ldi	r27, 0x08	; 8
    40d4:	cb 0e       	add	r12, r27
    40d6:	d1 1c       	adc	r13, r1
    40d8:	cf 01       	movw	r24, r30
    40da:	21 91       	ld	r18, Z+
    40dc:	da 01       	movw	r26, r20
    40de:	2d 93       	st	X+, r18
    40e0:	ad 01       	movw	r20, r26
    40e2:	dc 01       	movw	r26, r24
    40e4:	8c 91       	ld	r24, X
    40e6:	88 23       	and	r24, r24
    40e8:	19 f0       	breq	.+6      	; 0x40f0 <xTaskCreate+0x9e>
    40ea:	ec 15       	cp	r30, r12
    40ec:	fd 05       	cpc	r31, r13
    40ee:	a1 f7       	brne	.-24     	; 0x40d8 <xTaskCreate+0x86>
    40f0:	1c a2       	std	Y+36, r1	; 0x24
    40f2:	04 30       	cpi	r16, 0x04	; 4
    40f4:	08 f0       	brcs	.+2      	; 0x40f8 <xTaskCreate+0xa6>
    40f6:	03 e0       	ldi	r16, 0x03	; 3
    40f8:	0a 8f       	std	Y+26, r16	; 0x1a
    40fa:	6e 01       	movw	r12, r28
    40fc:	b2 e0       	ldi	r27, 0x02	; 2
    40fe:	cb 0e       	add	r12, r27
    4100:	d1 1c       	adc	r13, r1
    4102:	c6 01       	movw	r24, r12
    4104:	0e 94 3d 1a 	call	0x347a	; 0x347a <vListInitialiseItem>
    4108:	ce 01       	movw	r24, r28
    410a:	0e 96       	adiw	r24, 0x0e	; 14
    410c:	0e 94 3d 1a 	call	0x347a	; 0x347a <vListInitialiseItem>
    4110:	ca 87       	std	Y+10, r28	; 0x0a
    4112:	db 87       	std	Y+11, r29	; 0x0b
    4114:	84 e0       	ldi	r24, 0x04	; 4
    4116:	90 e0       	ldi	r25, 0x00	; 0
    4118:	a0 e0       	ldi	r26, 0x00	; 0
    411a:	b0 e0       	ldi	r27, 0x00	; 0
    411c:	80 1b       	sub	r24, r16
    411e:	91 09       	sbc	r25, r1
    4120:	a1 09       	sbc	r26, r1
    4122:	b1 09       	sbc	r27, r1
    4124:	8e 87       	std	Y+14, r24	; 0x0e
    4126:	9f 87       	std	Y+15, r25	; 0x0f
    4128:	a8 8b       	std	Y+16, r26	; 0x10
    412a:	b9 8b       	std	Y+17, r27	; 0x11
    412c:	ce 8b       	std	Y+22, r28	; 0x16
    412e:	df 8b       	std	Y+23, r29	; 0x17
    4130:	1f a2       	std	Y+39, r1	; 0x27
    4132:	18 a6       	std	Y+40, r1	; 0x28
    4134:	19 a6       	std	Y+41, r1	; 0x29
    4136:	1a a6       	std	Y+42, r1	; 0x2a
    4138:	1b a6       	std	Y+43, r1	; 0x2b
    413a:	a2 01       	movw	r20, r4
    413c:	b4 01       	movw	r22, r8
    413e:	c5 01       	movw	r24, r10
    4140:	0e 94 cd 1a 	call	0x359a	; 0x359a <pxPortInitialiseStack>
    4144:	88 83       	st	Y, r24
    4146:	99 83       	std	Y+1, r25	; 0x01
    4148:	e1 14       	cp	r14, r1
    414a:	f1 04       	cpc	r15, r1
    414c:	19 f0       	breq	.+6      	; 0x4154 <xTaskCreate+0x102>
    414e:	f7 01       	movw	r30, r14
    4150:	c0 83       	st	Z, r28
    4152:	d1 83       	std	Z+1, r29	; 0x01
    4154:	f0 91 a2 00 	lds	r31, 0x00A2	; 0x8000a2 <__TEXT_REGION_LENGTH__+0x7000a2>
    4158:	ff 93       	push	r31
    415a:	f8 7f       	andi	r31, 0xF8	; 248
    415c:	f0 93 a2 00 	sts	0x00A2, r31	; 0x8000a2 <__TEXT_REGION_LENGTH__+0x7000a2>
    4160:	80 91 15 2d 	lds	r24, 0x2D15	; 0x802d15 <uxCurrentNumberOfTasks>
    4164:	8f 5f       	subi	r24, 0xFF	; 255
    4166:	80 93 15 2d 	sts	0x2D15, r24	; 0x802d15 <uxCurrentNumberOfTasks>
    416a:	80 91 72 2d 	lds	r24, 0x2D72	; 0x802d72 <pxCurrentTCB>
    416e:	90 91 73 2d 	lds	r25, 0x2D73	; 0x802d73 <pxCurrentTCB+0x1>
    4172:	89 2b       	or	r24, r25
    4174:	a9 f5       	brne	.+106    	; 0x41e0 <xTaskCreate+0x18e>
    4176:	c0 93 72 2d 	sts	0x2D72, r28	; 0x802d72 <pxCurrentTCB>
    417a:	d0 93 73 2d 	sts	0x2D73, r29	; 0x802d73 <pxCurrentTCB+0x1>
    417e:	80 91 15 2d 	lds	r24, 0x2D15	; 0x802d15 <uxCurrentNumberOfTasks>
    4182:	81 30       	cpi	r24, 0x01	; 1
    4184:	e9 f5       	brne	.+122    	; 0x4200 <xTaskCreate+0x1ae>
    4186:	86 e4       	ldi	r24, 0x46	; 70
    4188:	9d e2       	ldi	r25, 0x2D	; 45
    418a:	0e 94 2c 1a 	call	0x3458	; 0x3458 <vListInitialise>
    418e:	81 e5       	ldi	r24, 0x51	; 81
    4190:	9d e2       	ldi	r25, 0x2D	; 45
    4192:	0e 94 2c 1a 	call	0x3458	; 0x3458 <vListInitialise>
    4196:	8c e5       	ldi	r24, 0x5C	; 92
    4198:	9d e2       	ldi	r25, 0x2D	; 45
    419a:	0e 94 2c 1a 	call	0x3458	; 0x3458 <vListInitialise>
    419e:	87 e6       	ldi	r24, 0x67	; 103
    41a0:	9d e2       	ldi	r25, 0x2D	; 45
    41a2:	0e 94 2c 1a 	call	0x3458	; 0x3458 <vListInitialise>
    41a6:	8b e3       	ldi	r24, 0x3B	; 59
    41a8:	9d e2       	ldi	r25, 0x2D	; 45
    41aa:	0e 94 2c 1a 	call	0x3458	; 0x3458 <vListInitialise>
    41ae:	80 e3       	ldi	r24, 0x30	; 48
    41b0:	9d e2       	ldi	r25, 0x2D	; 45
    41b2:	0e 94 2c 1a 	call	0x3458	; 0x3458 <vListInitialise>
    41b6:	81 e2       	ldi	r24, 0x21	; 33
    41b8:	9d e2       	ldi	r25, 0x2D	; 45
    41ba:	0e 94 2c 1a 	call	0x3458	; 0x3458 <vListInitialise>
    41be:	86 e1       	ldi	r24, 0x16	; 22
    41c0:	9d e2       	ldi	r25, 0x2D	; 45
    41c2:	0e 94 2c 1a 	call	0x3458	; 0x3458 <vListInitialise>
    41c6:	8b e3       	ldi	r24, 0x3B	; 59
    41c8:	9d e2       	ldi	r25, 0x2D	; 45
    41ca:	80 93 2e 2d 	sts	0x2D2E, r24	; 0x802d2e <pxDelayedTaskList>
    41ce:	90 93 2f 2d 	sts	0x2D2F, r25	; 0x802d2f <pxDelayedTaskList+0x1>
    41d2:	80 e3       	ldi	r24, 0x30	; 48
    41d4:	9d e2       	ldi	r25, 0x2D	; 45
    41d6:	80 93 2c 2d 	sts	0x2D2C, r24	; 0x802d2c <pxOverflowDelayedTaskList>
    41da:	90 93 2d 2d 	sts	0x2D2D, r25	; 0x802d2d <pxOverflowDelayedTaskList+0x1>
    41de:	10 c0       	rjmp	.+32     	; 0x4200 <xTaskCreate+0x1ae>
    41e0:	80 91 0f 2d 	lds	r24, 0x2D0F	; 0x802d0f <xSchedulerRunning>
    41e4:	81 11       	cpse	r24, r1
    41e6:	0c c0       	rjmp	.+24     	; 0x4200 <xTaskCreate+0x1ae>
    41e8:	e0 91 72 2d 	lds	r30, 0x2D72	; 0x802d72 <pxCurrentTCB>
    41ec:	f0 91 73 2d 	lds	r31, 0x2D73	; 0x802d73 <pxCurrentTCB+0x1>
    41f0:	92 8d       	ldd	r25, Z+26	; 0x1a
    41f2:	8a 8d       	ldd	r24, Y+26	; 0x1a
    41f4:	89 17       	cp	r24, r25
    41f6:	20 f0       	brcs	.+8      	; 0x4200 <xTaskCreate+0x1ae>
    41f8:	c0 93 72 2d 	sts	0x2D72, r28	; 0x802d72 <pxCurrentTCB>
    41fc:	d0 93 73 2d 	sts	0x2D73, r29	; 0x802d73 <pxCurrentTCB+0x1>
    4200:	80 91 0b 2d 	lds	r24, 0x2D0B	; 0x802d0b <uxTaskNumber>
    4204:	8f 5f       	subi	r24, 0xFF	; 255
    4206:	80 93 0b 2d 	sts	0x2D0B, r24	; 0x802d0b <uxTaskNumber>
    420a:	8d a3       	std	Y+37, r24	; 0x25
    420c:	8a 8d       	ldd	r24, Y+26	; 0x1a
    420e:	90 91 10 2d 	lds	r25, 0x2D10	; 0x802d10 <uxTopReadyPriority>
    4212:	98 17       	cp	r25, r24
    4214:	10 f4       	brcc	.+4      	; 0x421a <xTaskCreate+0x1c8>
    4216:	80 93 10 2d 	sts	0x2D10, r24	; 0x802d10 <uxTopReadyPriority>
    421a:	fb e0       	ldi	r31, 0x0B	; 11
    421c:	8f 9f       	mul	r24, r31
    421e:	c0 01       	movw	r24, r0
    4220:	11 24       	eor	r1, r1
    4222:	b6 01       	movw	r22, r12
    4224:	8a 5b       	subi	r24, 0xBA	; 186
    4226:	92 4d       	sbci	r25, 0xD2	; 210
    4228:	0e 94 41 1a 	call	0x3482	; 0x3482 <vListInsertEnd>
    422c:	ff 91       	pop	r31
    422e:	f0 93 a2 00 	sts	0x00A2, r31	; 0x8000a2 <__TEXT_REGION_LENGTH__+0x7000a2>
    4232:	80 91 0f 2d 	lds	r24, 0x2D0F	; 0x802d0f <xSchedulerRunning>
    4236:	88 23       	and	r24, r24
    4238:	61 f0       	breq	.+24     	; 0x4252 <xTaskCreate+0x200>
    423a:	e0 91 72 2d 	lds	r30, 0x2D72	; 0x802d72 <pxCurrentTCB>
    423e:	f0 91 73 2d 	lds	r31, 0x2D73	; 0x802d73 <pxCurrentTCB+0x1>
    4242:	92 8d       	ldd	r25, Z+26	; 0x1a
    4244:	8a 8d       	ldd	r24, Y+26	; 0x1a
    4246:	98 17       	cp	r25, r24
    4248:	30 f4       	brcc	.+12     	; 0x4256 <xTaskCreate+0x204>
    424a:	0e 94 8a 1b 	call	0x3714	; 0x3714 <vPortYield>
    424e:	81 e0       	ldi	r24, 0x01	; 1
    4250:	05 c0       	rjmp	.+10     	; 0x425c <xTaskCreate+0x20a>
    4252:	81 e0       	ldi	r24, 0x01	; 1
    4254:	03 c0       	rjmp	.+6      	; 0x425c <xTaskCreate+0x20a>
    4256:	81 e0       	ldi	r24, 0x01	; 1
    4258:	01 c0       	rjmp	.+2      	; 0x425c <xTaskCreate+0x20a>
    425a:	8f ef       	ldi	r24, 0xFF	; 255
    425c:	df 91       	pop	r29
    425e:	cf 91       	pop	r28
    4260:	0f 91       	pop	r16
    4262:	ff 90       	pop	r15
    4264:	ef 90       	pop	r14
    4266:	df 90       	pop	r13
    4268:	cf 90       	pop	r12
    426a:	bf 90       	pop	r11
    426c:	af 90       	pop	r10
    426e:	9f 90       	pop	r9
    4270:	8f 90       	pop	r8
    4272:	7f 90       	pop	r7
    4274:	6f 90       	pop	r6
    4276:	5f 90       	pop	r5
    4278:	4f 90       	pop	r4
    427a:	08 95       	ret

0000427c <vTaskResume>:
    427c:	0f 93       	push	r16
    427e:	1f 93       	push	r17
    4280:	cf 93       	push	r28
    4282:	df 93       	push	r29
    4284:	00 97       	sbiw	r24, 0x00	; 0
    4286:	09 f4       	brne	.+2      	; 0x428a <vTaskResume+0xe>
    4288:	41 c0       	rjmp	.+130    	; 0x430c <vTaskResume+0x90>
    428a:	20 91 72 2d 	lds	r18, 0x2D72	; 0x802d72 <pxCurrentTCB>
    428e:	30 91 73 2d 	lds	r19, 0x2D73	; 0x802d73 <pxCurrentTCB+0x1>
    4292:	82 17       	cp	r24, r18
    4294:	93 07       	cpc	r25, r19
    4296:	09 f4       	brne	.+2      	; 0x429a <vTaskResume+0x1e>
    4298:	39 c0       	rjmp	.+114    	; 0x430c <vTaskResume+0x90>
    429a:	f0 91 a2 00 	lds	r31, 0x00A2	; 0x8000a2 <__TEXT_REGION_LENGTH__+0x7000a2>
    429e:	ff 93       	push	r31
    42a0:	f8 7f       	andi	r31, 0xF8	; 248
    42a2:	f0 93 a2 00 	sts	0x00A2, r31	; 0x8000a2 <__TEXT_REGION_LENGTH__+0x7000a2>
    42a6:	fc 01       	movw	r30, r24
    42a8:	24 85       	ldd	r18, Z+12	; 0x0c
    42aa:	35 85       	ldd	r19, Z+13	; 0x0d
    42ac:	26 51       	subi	r18, 0x16	; 22
    42ae:	3d 42       	sbci	r19, 0x2D	; 45
    42b0:	51 f5       	brne	.+84     	; 0x4306 <vTaskResume+0x8a>
    42b2:	fc 01       	movw	r30, r24
    42b4:	20 8d       	ldd	r18, Z+24	; 0x18
    42b6:	31 8d       	ldd	r19, Z+25	; 0x19
    42b8:	fd e2       	ldi	r31, 0x2D	; 45
    42ba:	21 32       	cpi	r18, 0x21	; 33
    42bc:	3f 07       	cpc	r19, r31
    42be:	19 f1       	breq	.+70     	; 0x4306 <vTaskResume+0x8a>
    42c0:	23 2b       	or	r18, r19
    42c2:	09 f5       	brne	.+66     	; 0x4306 <vTaskResume+0x8a>
    42c4:	ec 01       	movw	r28, r24
    42c6:	8c 01       	movw	r16, r24
    42c8:	0e 5f       	subi	r16, 0xFE	; 254
    42ca:	1f 4f       	sbci	r17, 0xFF	; 255
    42cc:	c8 01       	movw	r24, r16
    42ce:	0e 94 9f 1a 	call	0x353e	; 0x353e <uxListRemove>
    42d2:	8a 8d       	ldd	r24, Y+26	; 0x1a
    42d4:	90 91 10 2d 	lds	r25, 0x2D10	; 0x802d10 <uxTopReadyPriority>
    42d8:	98 17       	cp	r25, r24
    42da:	10 f4       	brcc	.+4      	; 0x42e0 <vTaskResume+0x64>
    42dc:	80 93 10 2d 	sts	0x2D10, r24	; 0x802d10 <uxTopReadyPriority>
    42e0:	2b e0       	ldi	r18, 0x0B	; 11
    42e2:	82 9f       	mul	r24, r18
    42e4:	c0 01       	movw	r24, r0
    42e6:	11 24       	eor	r1, r1
    42e8:	b8 01       	movw	r22, r16
    42ea:	8a 5b       	subi	r24, 0xBA	; 186
    42ec:	92 4d       	sbci	r25, 0xD2	; 210
    42ee:	0e 94 41 1a 	call	0x3482	; 0x3482 <vListInsertEnd>
    42f2:	e0 91 72 2d 	lds	r30, 0x2D72	; 0x802d72 <pxCurrentTCB>
    42f6:	f0 91 73 2d 	lds	r31, 0x2D73	; 0x802d73 <pxCurrentTCB+0x1>
    42fa:	9a 8d       	ldd	r25, Y+26	; 0x1a
    42fc:	82 8d       	ldd	r24, Z+26	; 0x1a
    42fe:	98 17       	cp	r25, r24
    4300:	10 f0       	brcs	.+4      	; 0x4306 <vTaskResume+0x8a>
    4302:	0e 94 8a 1b 	call	0x3714	; 0x3714 <vPortYield>
    4306:	ff 91       	pop	r31
    4308:	f0 93 a2 00 	sts	0x00A2, r31	; 0x8000a2 <__TEXT_REGION_LENGTH__+0x7000a2>
    430c:	df 91       	pop	r29
    430e:	cf 91       	pop	r28
    4310:	1f 91       	pop	r17
    4312:	0f 91       	pop	r16
    4314:	08 95       	ret

00004316 <vTaskStartScheduler>:
    4316:	ef 92       	push	r14
    4318:	ff 92       	push	r15
    431a:	0f 93       	push	r16
    431c:	0f 2e       	mov	r0, r31
    431e:	f5 e0       	ldi	r31, 0x05	; 5
    4320:	ef 2e       	mov	r14, r31
    4322:	fd e2       	ldi	r31, 0x2D	; 45
    4324:	ff 2e       	mov	r15, r31
    4326:	f0 2d       	mov	r31, r0
    4328:	00 e0       	ldi	r16, 0x00	; 0
    432a:	20 e0       	ldi	r18, 0x00	; 0
    432c:	30 e0       	ldi	r19, 0x00	; 0
    432e:	48 ec       	ldi	r20, 0xC8	; 200
    4330:	50 e0       	ldi	r21, 0x00	; 0
    4332:	60 e2       	ldi	r22, 0x20	; 32
    4334:	70 e2       	ldi	r23, 0x20	; 32
    4336:	8f e1       	ldi	r24, 0x1F	; 31
    4338:	90 e2       	ldi	r25, 0x20	; 32
    433a:	0e 94 29 20 	call	0x4052	; 0x4052 <xTaskCreate>
    433e:	81 30       	cpi	r24, 0x01	; 1
    4340:	09 f5       	brne	.+66     	; 0x4384 <vTaskStartScheduler+0x6e>
    4342:	0e 94 2a 26 	call	0x4c54	; 0x4c54 <xTimerCreateTimerTask>
    4346:	81 30       	cpi	r24, 0x01	; 1
    4348:	e9 f4       	brne	.+58     	; 0x4384 <vTaskStartScheduler+0x6e>
    434a:	e0 ea       	ldi	r30, 0xA0	; 160
    434c:	f0 e0       	ldi	r31, 0x00	; 0
    434e:	82 81       	ldd	r24, Z+2	; 0x02
    4350:	88 7f       	andi	r24, 0xF8	; 248
    4352:	82 83       	std	Z+2, r24	; 0x02
    4354:	8f ef       	ldi	r24, 0xFF	; 255
    4356:	9f ef       	ldi	r25, 0xFF	; 255
    4358:	dc 01       	movw	r26, r24
    435a:	80 93 07 2d 	sts	0x2D07, r24	; 0x802d07 <xNextTaskUnblockTime>
    435e:	90 93 08 2d 	sts	0x2D08, r25	; 0x802d08 <xNextTaskUnblockTime+0x1>
    4362:	a0 93 09 2d 	sts	0x2D09, r26	; 0x802d09 <xNextTaskUnblockTime+0x2>
    4366:	b0 93 0a 2d 	sts	0x2D0A, r27	; 0x802d0a <xNextTaskUnblockTime+0x3>
    436a:	81 e0       	ldi	r24, 0x01	; 1
    436c:	80 93 0f 2d 	sts	0x2D0F, r24	; 0x802d0f <xSchedulerRunning>
    4370:	10 92 11 2d 	sts	0x2D11, r1	; 0x802d11 <xTickCount>
    4374:	10 92 12 2d 	sts	0x2D12, r1	; 0x802d12 <xTickCount+0x1>
    4378:	10 92 13 2d 	sts	0x2D13, r1	; 0x802d13 <xTickCount+0x2>
    437c:	10 92 14 2d 	sts	0x2D14, r1	; 0x802d14 <xTickCount+0x3>
    4380:	0e 94 4a 1b 	call	0x3694	; 0x3694 <xPortStartScheduler>
    4384:	0f 91       	pop	r16
    4386:	ff 90       	pop	r15
    4388:	ef 90       	pop	r14
    438a:	08 95       	ret

0000438c <vTaskSuspendAll>:
    438c:	80 91 04 2d 	lds	r24, 0x2D04	; 0x802d04 <uxSchedulerSuspended>
    4390:	8f 5f       	subi	r24, 0xFF	; 255
    4392:	80 93 04 2d 	sts	0x2D04, r24	; 0x802d04 <uxSchedulerSuspended>
    4396:	08 95       	ret

00004398 <xTaskGetTickCount>:
    4398:	f0 91 a2 00 	lds	r31, 0x00A2	; 0x8000a2 <__TEXT_REGION_LENGTH__+0x7000a2>
    439c:	ff 93       	push	r31
    439e:	f8 7f       	andi	r31, 0xF8	; 248
    43a0:	f0 93 a2 00 	sts	0x00A2, r31	; 0x8000a2 <__TEXT_REGION_LENGTH__+0x7000a2>
    43a4:	60 91 11 2d 	lds	r22, 0x2D11	; 0x802d11 <xTickCount>
    43a8:	70 91 12 2d 	lds	r23, 0x2D12	; 0x802d12 <xTickCount+0x1>
    43ac:	80 91 13 2d 	lds	r24, 0x2D13	; 0x802d13 <xTickCount+0x2>
    43b0:	90 91 14 2d 	lds	r25, 0x2D14	; 0x802d14 <xTickCount+0x3>
    43b4:	ff 91       	pop	r31
    43b6:	f0 93 a2 00 	sts	0x00A2, r31	; 0x8000a2 <__TEXT_REGION_LENGTH__+0x7000a2>
    43ba:	08 95       	ret

000043bc <xTaskIncrementTick>:
    43bc:	af 92       	push	r10
    43be:	bf 92       	push	r11
    43c0:	cf 92       	push	r12
    43c2:	df 92       	push	r13
    43c4:	ef 92       	push	r14
    43c6:	ff 92       	push	r15
    43c8:	0f 93       	push	r16
    43ca:	1f 93       	push	r17
    43cc:	cf 93       	push	r28
    43ce:	df 93       	push	r29
    43d0:	80 91 04 2d 	lds	r24, 0x2D04	; 0x802d04 <uxSchedulerSuspended>
    43d4:	81 11       	cpse	r24, r1
    43d6:	ad c0       	rjmp	.+346    	; 0x4532 <xTaskIncrementTick+0x176>
    43d8:	c0 90 11 2d 	lds	r12, 0x2D11	; 0x802d11 <xTickCount>
    43dc:	d0 90 12 2d 	lds	r13, 0x2D12	; 0x802d12 <xTickCount+0x1>
    43e0:	e0 90 13 2d 	lds	r14, 0x2D13	; 0x802d13 <xTickCount+0x2>
    43e4:	f0 90 14 2d 	lds	r15, 0x2D14	; 0x802d14 <xTickCount+0x3>
    43e8:	8f ef       	ldi	r24, 0xFF	; 255
    43ea:	c8 1a       	sub	r12, r24
    43ec:	d8 0a       	sbc	r13, r24
    43ee:	e8 0a       	sbc	r14, r24
    43f0:	f8 0a       	sbc	r15, r24
    43f2:	c0 92 11 2d 	sts	0x2D11, r12	; 0x802d11 <xTickCount>
    43f6:	d0 92 12 2d 	sts	0x2D12, r13	; 0x802d12 <xTickCount+0x1>
    43fa:	e0 92 13 2d 	sts	0x2D13, r14	; 0x802d13 <xTickCount+0x2>
    43fe:	f0 92 14 2d 	sts	0x2D14, r15	; 0x802d14 <xTickCount+0x3>
    4402:	c1 14       	cp	r12, r1
    4404:	d1 04       	cpc	r13, r1
    4406:	e1 04       	cpc	r14, r1
    4408:	f1 04       	cpc	r15, r1
    440a:	b9 f4       	brne	.+46     	; 0x443a <xTaskIncrementTick+0x7e>
    440c:	80 91 2e 2d 	lds	r24, 0x2D2E	; 0x802d2e <pxDelayedTaskList>
    4410:	90 91 2f 2d 	lds	r25, 0x2D2F	; 0x802d2f <pxDelayedTaskList+0x1>
    4414:	20 91 2c 2d 	lds	r18, 0x2D2C	; 0x802d2c <pxOverflowDelayedTaskList>
    4418:	30 91 2d 2d 	lds	r19, 0x2D2D	; 0x802d2d <pxOverflowDelayedTaskList+0x1>
    441c:	20 93 2e 2d 	sts	0x2D2E, r18	; 0x802d2e <pxDelayedTaskList>
    4420:	30 93 2f 2d 	sts	0x2D2F, r19	; 0x802d2f <pxDelayedTaskList+0x1>
    4424:	80 93 2c 2d 	sts	0x2D2C, r24	; 0x802d2c <pxOverflowDelayedTaskList>
    4428:	90 93 2d 2d 	sts	0x2D2D, r25	; 0x802d2d <pxOverflowDelayedTaskList+0x1>
    442c:	80 91 0c 2d 	lds	r24, 0x2D0C	; 0x802d0c <xNumOfOverflows>
    4430:	8f 5f       	subi	r24, 0xFF	; 255
    4432:	80 93 0c 2d 	sts	0x2D0C, r24	; 0x802d0c <xNumOfOverflows>
    4436:	0e 94 7e 1f 	call	0x3efc	; 0x3efc <prvResetNextTaskUnblockTime>
    443a:	80 91 07 2d 	lds	r24, 0x2D07	; 0x802d07 <xNextTaskUnblockTime>
    443e:	90 91 08 2d 	lds	r25, 0x2D08	; 0x802d08 <xNextTaskUnblockTime+0x1>
    4442:	a0 91 09 2d 	lds	r26, 0x2D09	; 0x802d09 <xNextTaskUnblockTime+0x2>
    4446:	b0 91 0a 2d 	lds	r27, 0x2D0A	; 0x802d0a <xNextTaskUnblockTime+0x3>
    444a:	c8 16       	cp	r12, r24
    444c:	d9 06       	cpc	r13, r25
    444e:	ea 06       	cpc	r14, r26
    4450:	fb 06       	cpc	r15, r27
    4452:	10 f4       	brcc	.+4      	; 0x4458 <xTaskIncrementTick+0x9c>
    4454:	b1 2c       	mov	r11, r1
    4456:	5c c0       	rjmp	.+184    	; 0x4510 <xTaskIncrementTick+0x154>
    4458:	b1 2c       	mov	r11, r1
    445a:	0f 2e       	mov	r0, r31
    445c:	fb e0       	ldi	r31, 0x0B	; 11
    445e:	af 2e       	mov	r10, r31
    4460:	f0 2d       	mov	r31, r0
    4462:	e0 91 2e 2d 	lds	r30, 0x2D2E	; 0x802d2e <pxDelayedTaskList>
    4466:	f0 91 2f 2d 	lds	r31, 0x2D2F	; 0x802d2f <pxDelayedTaskList+0x1>
    446a:	80 81       	ld	r24, Z
    446c:	81 11       	cpse	r24, r1
    446e:	0c c0       	rjmp	.+24     	; 0x4488 <xTaskIncrementTick+0xcc>
    4470:	8f ef       	ldi	r24, 0xFF	; 255
    4472:	9f ef       	ldi	r25, 0xFF	; 255
    4474:	dc 01       	movw	r26, r24
    4476:	80 93 07 2d 	sts	0x2D07, r24	; 0x802d07 <xNextTaskUnblockTime>
    447a:	90 93 08 2d 	sts	0x2D08, r25	; 0x802d08 <xNextTaskUnblockTime+0x1>
    447e:	a0 93 09 2d 	sts	0x2D09, r26	; 0x802d09 <xNextTaskUnblockTime+0x2>
    4482:	b0 93 0a 2d 	sts	0x2D0A, r27	; 0x802d0a <xNextTaskUnblockTime+0x3>
    4486:	44 c0       	rjmp	.+136    	; 0x4510 <xTaskIncrementTick+0x154>
    4488:	e0 91 2e 2d 	lds	r30, 0x2D2E	; 0x802d2e <pxDelayedTaskList>
    448c:	f0 91 2f 2d 	lds	r31, 0x2D2F	; 0x802d2f <pxDelayedTaskList+0x1>
    4490:	07 80       	ldd	r0, Z+7	; 0x07
    4492:	f0 85       	ldd	r31, Z+8	; 0x08
    4494:	e0 2d       	mov	r30, r0
    4496:	c0 85       	ldd	r28, Z+8	; 0x08
    4498:	d1 85       	ldd	r29, Z+9	; 0x09
    449a:	8a 81       	ldd	r24, Y+2	; 0x02
    449c:	9b 81       	ldd	r25, Y+3	; 0x03
    449e:	ac 81       	ldd	r26, Y+4	; 0x04
    44a0:	bd 81       	ldd	r27, Y+5	; 0x05
    44a2:	c8 16       	cp	r12, r24
    44a4:	d9 06       	cpc	r13, r25
    44a6:	ea 06       	cpc	r14, r26
    44a8:	fb 06       	cpc	r15, r27
    44aa:	48 f4       	brcc	.+18     	; 0x44be <xTaskIncrementTick+0x102>
    44ac:	80 93 07 2d 	sts	0x2D07, r24	; 0x802d07 <xNextTaskUnblockTime>
    44b0:	90 93 08 2d 	sts	0x2D08, r25	; 0x802d08 <xNextTaskUnblockTime+0x1>
    44b4:	a0 93 09 2d 	sts	0x2D09, r26	; 0x802d09 <xNextTaskUnblockTime+0x2>
    44b8:	b0 93 0a 2d 	sts	0x2D0A, r27	; 0x802d0a <xNextTaskUnblockTime+0x3>
    44bc:	29 c0       	rjmp	.+82     	; 0x4510 <xTaskIncrementTick+0x154>
    44be:	8e 01       	movw	r16, r28
    44c0:	0e 5f       	subi	r16, 0xFE	; 254
    44c2:	1f 4f       	sbci	r17, 0xFF	; 255
    44c4:	c8 01       	movw	r24, r16
    44c6:	0e 94 9f 1a 	call	0x353e	; 0x353e <uxListRemove>
    44ca:	88 8d       	ldd	r24, Y+24	; 0x18
    44cc:	99 8d       	ldd	r25, Y+25	; 0x19
    44ce:	89 2b       	or	r24, r25
    44d0:	21 f0       	breq	.+8      	; 0x44da <xTaskIncrementTick+0x11e>
    44d2:	ce 01       	movw	r24, r28
    44d4:	0e 96       	adiw	r24, 0x0e	; 14
    44d6:	0e 94 9f 1a 	call	0x353e	; 0x353e <uxListRemove>
    44da:	8a 8d       	ldd	r24, Y+26	; 0x1a
    44dc:	90 91 10 2d 	lds	r25, 0x2D10	; 0x802d10 <uxTopReadyPriority>
    44e0:	98 17       	cp	r25, r24
    44e2:	10 f4       	brcc	.+4      	; 0x44e8 <xTaskIncrementTick+0x12c>
    44e4:	80 93 10 2d 	sts	0x2D10, r24	; 0x802d10 <uxTopReadyPriority>
    44e8:	a8 9e       	mul	r10, r24
    44ea:	c0 01       	movw	r24, r0
    44ec:	11 24       	eor	r1, r1
    44ee:	b8 01       	movw	r22, r16
    44f0:	8a 5b       	subi	r24, 0xBA	; 186
    44f2:	92 4d       	sbci	r25, 0xD2	; 210
    44f4:	0e 94 41 1a 	call	0x3482	; 0x3482 <vListInsertEnd>
    44f8:	e0 91 72 2d 	lds	r30, 0x2D72	; 0x802d72 <pxCurrentTCB>
    44fc:	f0 91 73 2d 	lds	r31, 0x2D73	; 0x802d73 <pxCurrentTCB+0x1>
    4500:	9a 8d       	ldd	r25, Y+26	; 0x1a
    4502:	82 8d       	ldd	r24, Z+26	; 0x1a
    4504:	98 17       	cp	r25, r24
    4506:	08 f4       	brcc	.+2      	; 0x450a <xTaskIncrementTick+0x14e>
    4508:	ac cf       	rjmp	.-168    	; 0x4462 <xTaskIncrementTick+0xa6>
    450a:	bb 24       	eor	r11, r11
    450c:	b3 94       	inc	r11
    450e:	a9 cf       	rjmp	.-174    	; 0x4462 <xTaskIncrementTick+0xa6>
    4510:	e0 91 72 2d 	lds	r30, 0x2D72	; 0x802d72 <pxCurrentTCB>
    4514:	f0 91 73 2d 	lds	r31, 0x2D73	; 0x802d73 <pxCurrentTCB+0x1>
    4518:	e2 8d       	ldd	r30, Z+26	; 0x1a
    451a:	8b e0       	ldi	r24, 0x0B	; 11
    451c:	e8 9f       	mul	r30, r24
    451e:	f0 01       	movw	r30, r0
    4520:	11 24       	eor	r1, r1
    4522:	ea 5b       	subi	r30, 0xBA	; 186
    4524:	f2 4d       	sbci	r31, 0xD2	; 210
    4526:	80 81       	ld	r24, Z
    4528:	82 30       	cpi	r24, 0x02	; 2
    452a:	48 f0       	brcs	.+18     	; 0x453e <xTaskIncrementTick+0x182>
    452c:	bb 24       	eor	r11, r11
    452e:	b3 94       	inc	r11
    4530:	06 c0       	rjmp	.+12     	; 0x453e <xTaskIncrementTick+0x182>
    4532:	80 91 0e 2d 	lds	r24, 0x2D0E	; 0x802d0e <uxPendedTicks>
    4536:	8f 5f       	subi	r24, 0xFF	; 255
    4538:	80 93 0e 2d 	sts	0x2D0E, r24	; 0x802d0e <uxPendedTicks>
    453c:	b1 2c       	mov	r11, r1
    453e:	80 91 0d 2d 	lds	r24, 0x2D0D	; 0x802d0d <xYieldPending>
    4542:	88 23       	and	r24, r24
    4544:	11 f0       	breq	.+4      	; 0x454a <xTaskIncrementTick+0x18e>
    4546:	bb 24       	eor	r11, r11
    4548:	b3 94       	inc	r11
    454a:	8b 2d       	mov	r24, r11
    454c:	df 91       	pop	r29
    454e:	cf 91       	pop	r28
    4550:	1f 91       	pop	r17
    4552:	0f 91       	pop	r16
    4554:	ff 90       	pop	r15
    4556:	ef 90       	pop	r14
    4558:	df 90       	pop	r13
    455a:	cf 90       	pop	r12
    455c:	bf 90       	pop	r11
    455e:	af 90       	pop	r10
    4560:	08 95       	ret

00004562 <xTaskResumeAll>:
    4562:	cf 92       	push	r12
    4564:	df 92       	push	r13
    4566:	ef 92       	push	r14
    4568:	ff 92       	push	r15
    456a:	0f 93       	push	r16
    456c:	1f 93       	push	r17
    456e:	cf 93       	push	r28
    4570:	df 93       	push	r29
    4572:	f0 91 a2 00 	lds	r31, 0x00A2	; 0x8000a2 <__TEXT_REGION_LENGTH__+0x7000a2>
    4576:	ff 93       	push	r31
    4578:	f8 7f       	andi	r31, 0xF8	; 248
    457a:	f0 93 a2 00 	sts	0x00A2, r31	; 0x8000a2 <__TEXT_REGION_LENGTH__+0x7000a2>
    457e:	80 91 04 2d 	lds	r24, 0x2D04	; 0x802d04 <uxSchedulerSuspended>
    4582:	81 50       	subi	r24, 0x01	; 1
    4584:	80 93 04 2d 	sts	0x2D04, r24	; 0x802d04 <uxSchedulerSuspended>
    4588:	80 91 04 2d 	lds	r24, 0x2D04	; 0x802d04 <uxSchedulerSuspended>
    458c:	81 11       	cpse	r24, r1
    458e:	5c c0       	rjmp	.+184    	; 0x4648 <xTaskResumeAll+0xe6>
    4590:	80 91 15 2d 	lds	r24, 0x2D15	; 0x802d15 <uxCurrentNumberOfTasks>
    4594:	81 11       	cpse	r24, r1
    4596:	2c c0       	rjmp	.+88     	; 0x45f0 <xTaskResumeAll+0x8e>
    4598:	5a c0       	rjmp	.+180    	; 0x464e <xTaskResumeAll+0xec>
    459a:	d7 01       	movw	r26, r14
    459c:	17 96       	adiw	r26, 0x07	; 7
    459e:	ed 91       	ld	r30, X+
    45a0:	fc 91       	ld	r31, X
    45a2:	18 97       	sbiw	r26, 0x08	; 8
    45a4:	c0 85       	ldd	r28, Z+8	; 0x08
    45a6:	d1 85       	ldd	r29, Z+9	; 0x09
    45a8:	ce 01       	movw	r24, r28
    45aa:	0e 96       	adiw	r24, 0x0e	; 14
    45ac:	0e 94 9f 1a 	call	0x353e	; 0x353e <uxListRemove>
    45b0:	8e 01       	movw	r16, r28
    45b2:	0e 5f       	subi	r16, 0xFE	; 254
    45b4:	1f 4f       	sbci	r17, 0xFF	; 255
    45b6:	c8 01       	movw	r24, r16
    45b8:	0e 94 9f 1a 	call	0x353e	; 0x353e <uxListRemove>
    45bc:	8a 8d       	ldd	r24, Y+26	; 0x1a
    45be:	90 91 10 2d 	lds	r25, 0x2D10	; 0x802d10 <uxTopReadyPriority>
    45c2:	98 17       	cp	r25, r24
    45c4:	10 f4       	brcc	.+4      	; 0x45ca <xTaskResumeAll+0x68>
    45c6:	80 93 10 2d 	sts	0x2D10, r24	; 0x802d10 <uxTopReadyPriority>
    45ca:	d8 9e       	mul	r13, r24
    45cc:	c0 01       	movw	r24, r0
    45ce:	11 24       	eor	r1, r1
    45d0:	b8 01       	movw	r22, r16
    45d2:	8a 5b       	subi	r24, 0xBA	; 186
    45d4:	92 4d       	sbci	r25, 0xD2	; 210
    45d6:	0e 94 41 1a 	call	0x3482	; 0x3482 <vListInsertEnd>
    45da:	e0 91 72 2d 	lds	r30, 0x2D72	; 0x802d72 <pxCurrentTCB>
    45de:	f0 91 73 2d 	lds	r31, 0x2D73	; 0x802d73 <pxCurrentTCB+0x1>
    45e2:	9a 8d       	ldd	r25, Y+26	; 0x1a
    45e4:	82 8d       	ldd	r24, Z+26	; 0x1a
    45e6:	98 17       	cp	r25, r24
    45e8:	88 f0       	brcs	.+34     	; 0x460c <xTaskResumeAll+0xaa>
    45ea:	c0 92 0d 2d 	sts	0x2D0D, r12	; 0x802d0d <xYieldPending>
    45ee:	0e c0       	rjmp	.+28     	; 0x460c <xTaskResumeAll+0xaa>
    45f0:	c0 e0       	ldi	r28, 0x00	; 0
    45f2:	d0 e0       	ldi	r29, 0x00	; 0
    45f4:	0f 2e       	mov	r0, r31
    45f6:	f1 e2       	ldi	r31, 0x21	; 33
    45f8:	ef 2e       	mov	r14, r31
    45fa:	fd e2       	ldi	r31, 0x2D	; 45
    45fc:	ff 2e       	mov	r15, r31
    45fe:	f0 2d       	mov	r31, r0
    4600:	0f 2e       	mov	r0, r31
    4602:	fb e0       	ldi	r31, 0x0B	; 11
    4604:	df 2e       	mov	r13, r31
    4606:	f0 2d       	mov	r31, r0
    4608:	cc 24       	eor	r12, r12
    460a:	c3 94       	inc	r12
    460c:	f7 01       	movw	r30, r14
    460e:	80 81       	ld	r24, Z
    4610:	81 11       	cpse	r24, r1
    4612:	c3 cf       	rjmp	.-122    	; 0x459a <xTaskResumeAll+0x38>
    4614:	cd 2b       	or	r28, r29
    4616:	11 f0       	breq	.+4      	; 0x461c <xTaskResumeAll+0xba>
    4618:	0e 94 7e 1f 	call	0x3efc	; 0x3efc <prvResetNextTaskUnblockTime>
    461c:	c0 91 0e 2d 	lds	r28, 0x2D0E	; 0x802d0e <uxPendedTicks>
    4620:	cc 23       	and	r28, r28
    4622:	51 f0       	breq	.+20     	; 0x4638 <xTaskResumeAll+0xd6>
    4624:	d1 e0       	ldi	r29, 0x01	; 1
    4626:	0e 94 de 21 	call	0x43bc	; 0x43bc <xTaskIncrementTick>
    462a:	81 11       	cpse	r24, r1
    462c:	d0 93 0d 2d 	sts	0x2D0D, r29	; 0x802d0d <xYieldPending>
    4630:	c1 50       	subi	r28, 0x01	; 1
    4632:	c9 f7       	brne	.-14     	; 0x4626 <xTaskResumeAll+0xc4>
    4634:	10 92 0e 2d 	sts	0x2D0E, r1	; 0x802d0e <uxPendedTicks>
    4638:	80 91 0d 2d 	lds	r24, 0x2D0D	; 0x802d0d <xYieldPending>
    463c:	88 23       	and	r24, r24
    463e:	31 f0       	breq	.+12     	; 0x464c <xTaskResumeAll+0xea>
    4640:	0e 94 8a 1b 	call	0x3714	; 0x3714 <vPortYield>
    4644:	81 e0       	ldi	r24, 0x01	; 1
    4646:	03 c0       	rjmp	.+6      	; 0x464e <xTaskResumeAll+0xec>
    4648:	80 e0       	ldi	r24, 0x00	; 0
    464a:	01 c0       	rjmp	.+2      	; 0x464e <xTaskResumeAll+0xec>
    464c:	80 e0       	ldi	r24, 0x00	; 0
    464e:	ff 91       	pop	r31
    4650:	f0 93 a2 00 	sts	0x00A2, r31	; 0x8000a2 <__TEXT_REGION_LENGTH__+0x7000a2>
    4654:	df 91       	pop	r29
    4656:	cf 91       	pop	r28
    4658:	1f 91       	pop	r17
    465a:	0f 91       	pop	r16
    465c:	ff 90       	pop	r15
    465e:	ef 90       	pop	r14
    4660:	df 90       	pop	r13
    4662:	cf 90       	pop	r12
    4664:	08 95       	ret

00004666 <vTaskDelay>:
    4666:	cf 92       	push	r12
    4668:	df 92       	push	r13
    466a:	ef 92       	push	r14
    466c:	ff 92       	push	r15
    466e:	6b 01       	movw	r12, r22
    4670:	7c 01       	movw	r14, r24
    4672:	67 2b       	or	r22, r23
    4674:	68 2b       	or	r22, r24
    4676:	69 2b       	or	r22, r25
    4678:	59 f0       	breq	.+22     	; 0x4690 <vTaskDelay+0x2a>
    467a:	0e 94 c6 21 	call	0x438c	; 0x438c <vTaskSuspendAll>
    467e:	40 e0       	ldi	r20, 0x00	; 0
    4680:	c7 01       	movw	r24, r14
    4682:	b6 01       	movw	r22, r12
    4684:	0e 94 a8 1f 	call	0x3f50	; 0x3f50 <prvAddCurrentTaskToDelayedList>
    4688:	0e 94 b1 22 	call	0x4562	; 0x4562 <xTaskResumeAll>
    468c:	81 11       	cpse	r24, r1
    468e:	02 c0       	rjmp	.+4      	; 0x4694 <vTaskDelay+0x2e>
    4690:	0e 94 8a 1b 	call	0x3714	; 0x3714 <vPortYield>
    4694:	ff 90       	pop	r15
    4696:	ef 90       	pop	r14
    4698:	df 90       	pop	r13
    469a:	cf 90       	pop	r12
    469c:	08 95       	ret

0000469e <vTaskSwitchContext>:
    469e:	80 91 04 2d 	lds	r24, 0x2D04	; 0x802d04 <uxSchedulerSuspended>
    46a2:	88 23       	and	r24, r24
    46a4:	21 f0       	breq	.+8      	; 0x46ae <vTaskSwitchContext+0x10>
    46a6:	81 e0       	ldi	r24, 0x01	; 1
    46a8:	80 93 0d 2d 	sts	0x2D0D, r24	; 0x802d0d <xYieldPending>
    46ac:	08 95       	ret
    46ae:	10 92 0d 2d 	sts	0x2D0D, r1	; 0x802d0d <xYieldPending>
    46b2:	e0 91 72 2d 	lds	r30, 0x2D72	; 0x802d72 <pxCurrentTCB>
    46b6:	f0 91 73 2d 	lds	r31, 0x2D73	; 0x802d73 <pxCurrentTCB+0x1>
    46ba:	03 8c       	ldd	r0, Z+27	; 0x1b
    46bc:	f4 8d       	ldd	r31, Z+28	; 0x1c
    46be:	e0 2d       	mov	r30, r0
    46c0:	80 81       	ld	r24, Z
    46c2:	91 81       	ldd	r25, Z+1	; 0x01
    46c4:	a2 81       	ldd	r26, Z+2	; 0x02
    46c6:	b3 81       	ldd	r27, Z+3	; 0x03
    46c8:	85 3a       	cpi	r24, 0xA5	; 165
    46ca:	95 4a       	sbci	r25, 0xA5	; 165
    46cc:	a5 4a       	sbci	r26, 0xA5	; 165
    46ce:	b5 4a       	sbci	r27, 0xA5	; 165
    46d0:	d9 f4       	brne	.+54     	; 0x4708 <vTaskSwitchContext+0x6a>
    46d2:	84 81       	ldd	r24, Z+4	; 0x04
    46d4:	95 81       	ldd	r25, Z+5	; 0x05
    46d6:	a6 81       	ldd	r26, Z+6	; 0x06
    46d8:	b7 81       	ldd	r27, Z+7	; 0x07
    46da:	85 3a       	cpi	r24, 0xA5	; 165
    46dc:	95 4a       	sbci	r25, 0xA5	; 165
    46de:	a5 4a       	sbci	r26, 0xA5	; 165
    46e0:	b5 4a       	sbci	r27, 0xA5	; 165
    46e2:	91 f4       	brne	.+36     	; 0x4708 <vTaskSwitchContext+0x6a>
    46e4:	80 85       	ldd	r24, Z+8	; 0x08
    46e6:	91 85       	ldd	r25, Z+9	; 0x09
    46e8:	a2 85       	ldd	r26, Z+10	; 0x0a
    46ea:	b3 85       	ldd	r27, Z+11	; 0x0b
    46ec:	85 3a       	cpi	r24, 0xA5	; 165
    46ee:	95 4a       	sbci	r25, 0xA5	; 165
    46f0:	a5 4a       	sbci	r26, 0xA5	; 165
    46f2:	b5 4a       	sbci	r27, 0xA5	; 165
    46f4:	49 f4       	brne	.+18     	; 0x4708 <vTaskSwitchContext+0x6a>
    46f6:	84 85       	ldd	r24, Z+12	; 0x0c
    46f8:	95 85       	ldd	r25, Z+13	; 0x0d
    46fa:	a6 85       	ldd	r26, Z+14	; 0x0e
    46fc:	b7 85       	ldd	r27, Z+15	; 0x0f
    46fe:	85 3a       	cpi	r24, 0xA5	; 165
    4700:	95 4a       	sbci	r25, 0xA5	; 165
    4702:	a5 4a       	sbci	r26, 0xA5	; 165
    4704:	b5 4a       	sbci	r27, 0xA5	; 165
    4706:	61 f0       	breq	.+24     	; 0x4720 <vTaskSwitchContext+0x82>
    4708:	60 91 72 2d 	lds	r22, 0x2D72	; 0x802d72 <pxCurrentTCB>
    470c:	70 91 73 2d 	lds	r23, 0x2D73	; 0x802d73 <pxCurrentTCB+0x1>
    4710:	80 91 72 2d 	lds	r24, 0x2D72	; 0x802d72 <pxCurrentTCB>
    4714:	90 91 73 2d 	lds	r25, 0x2D73	; 0x802d73 <pxCurrentTCB+0x1>
    4718:	63 5e       	subi	r22, 0xE3	; 227
    471a:	7f 4f       	sbci	r23, 0xFF	; 255
    471c:	0e 94 56 18 	call	0x30ac	; 0x30ac <vApplicationStackOverflowHook>
    4720:	80 91 10 2d 	lds	r24, 0x2D10	; 0x802d10 <uxTopReadyPriority>
    4724:	28 2f       	mov	r18, r24
    4726:	30 e0       	ldi	r19, 0x00	; 0
    4728:	9b e0       	ldi	r25, 0x0B	; 11
    472a:	89 9f       	mul	r24, r25
    472c:	f0 01       	movw	r30, r0
    472e:	11 24       	eor	r1, r1
    4730:	ea 5b       	subi	r30, 0xBA	; 186
    4732:	f2 4d       	sbci	r31, 0xD2	; 210
    4734:	90 81       	ld	r25, Z
    4736:	91 11       	cpse	r25, r1
    4738:	0e c0       	rjmp	.+28     	; 0x4756 <vTaskSwitchContext+0xb8>
    473a:	4b e0       	ldi	r20, 0x0B	; 11
    473c:	81 50       	subi	r24, 0x01	; 1
    473e:	28 2f       	mov	r18, r24
    4740:	30 e0       	ldi	r19, 0x00	; 0
    4742:	42 9f       	mul	r20, r18
    4744:	f0 01       	movw	r30, r0
    4746:	43 9f       	mul	r20, r19
    4748:	f0 0d       	add	r31, r0
    474a:	11 24       	eor	r1, r1
    474c:	ea 5b       	subi	r30, 0xBA	; 186
    474e:	f2 4d       	sbci	r31, 0xD2	; 210
    4750:	90 81       	ld	r25, Z
    4752:	99 23       	and	r25, r25
    4754:	99 f3       	breq	.-26     	; 0x473c <vTaskSwitchContext+0x9e>
    4756:	9b e0       	ldi	r25, 0x0B	; 11
    4758:	92 9f       	mul	r25, r18
    475a:	a0 01       	movw	r20, r0
    475c:	93 9f       	mul	r25, r19
    475e:	50 0d       	add	r21, r0
    4760:	11 24       	eor	r1, r1
    4762:	da 01       	movw	r26, r20
    4764:	aa 5b       	subi	r26, 0xBA	; 186
    4766:	b2 4d       	sbci	r27, 0xD2	; 210
    4768:	11 96       	adiw	r26, 0x01	; 1
    476a:	ed 91       	ld	r30, X+
    476c:	fc 91       	ld	r31, X
    476e:	12 97       	sbiw	r26, 0x02	; 2
    4770:	04 80       	ldd	r0, Z+4	; 0x04
    4772:	f5 81       	ldd	r31, Z+5	; 0x05
    4774:	e0 2d       	mov	r30, r0
    4776:	11 96       	adiw	r26, 0x01	; 1
    4778:	ed 93       	st	X+, r30
    477a:	fc 93       	st	X, r31
    477c:	12 97       	sbiw	r26, 0x02	; 2
    477e:	47 5b       	subi	r20, 0xB7	; 183
    4780:	52 4d       	sbci	r21, 0xD2	; 210
    4782:	e4 17       	cp	r30, r20
    4784:	f5 07       	cpc	r31, r21
    4786:	29 f4       	brne	.+10     	; 0x4792 <vTaskSwitchContext+0xf4>
    4788:	44 81       	ldd	r20, Z+4	; 0x04
    478a:	55 81       	ldd	r21, Z+5	; 0x05
    478c:	fd 01       	movw	r30, r26
    478e:	41 83       	std	Z+1, r20	; 0x01
    4790:	52 83       	std	Z+2, r21	; 0x02
    4792:	9b e0       	ldi	r25, 0x0B	; 11
    4794:	92 9f       	mul	r25, r18
    4796:	f0 01       	movw	r30, r0
    4798:	93 9f       	mul	r25, r19
    479a:	f0 0d       	add	r31, r0
    479c:	11 24       	eor	r1, r1
    479e:	ea 5b       	subi	r30, 0xBA	; 186
    47a0:	f2 4d       	sbci	r31, 0xD2	; 210
    47a2:	01 80       	ldd	r0, Z+1	; 0x01
    47a4:	f2 81       	ldd	r31, Z+2	; 0x02
    47a6:	e0 2d       	mov	r30, r0
    47a8:	20 85       	ldd	r18, Z+8	; 0x08
    47aa:	31 85       	ldd	r19, Z+9	; 0x09
    47ac:	20 93 72 2d 	sts	0x2D72, r18	; 0x802d72 <pxCurrentTCB>
    47b0:	30 93 73 2d 	sts	0x2D73, r19	; 0x802d73 <pxCurrentTCB+0x1>
    47b4:	80 93 10 2d 	sts	0x2D10, r24	; 0x802d10 <uxTopReadyPriority>
    47b8:	08 95       	ret

000047ba <vTaskSuspend>:
    47ba:	0f 93       	push	r16
    47bc:	1f 93       	push	r17
    47be:	cf 93       	push	r28
    47c0:	df 93       	push	r29
    47c2:	ec 01       	movw	r28, r24
    47c4:	f0 91 a2 00 	lds	r31, 0x00A2	; 0x8000a2 <__TEXT_REGION_LENGTH__+0x7000a2>
    47c8:	ff 93       	push	r31
    47ca:	f8 7f       	andi	r31, 0xF8	; 248
    47cc:	f0 93 a2 00 	sts	0x00A2, r31	; 0x8000a2 <__TEXT_REGION_LENGTH__+0x7000a2>
    47d0:	89 2b       	or	r24, r25
    47d2:	21 f4       	brne	.+8      	; 0x47dc <vTaskSuspend+0x22>
    47d4:	c0 91 72 2d 	lds	r28, 0x2D72	; 0x802d72 <pxCurrentTCB>
    47d8:	d0 91 73 2d 	lds	r29, 0x2D73	; 0x802d73 <pxCurrentTCB+0x1>
    47dc:	8e 01       	movw	r16, r28
    47de:	0e 5f       	subi	r16, 0xFE	; 254
    47e0:	1f 4f       	sbci	r17, 0xFF	; 255
    47e2:	c8 01       	movw	r24, r16
    47e4:	0e 94 9f 1a 	call	0x353e	; 0x353e <uxListRemove>
    47e8:	88 8d       	ldd	r24, Y+24	; 0x18
    47ea:	99 8d       	ldd	r25, Y+25	; 0x19
    47ec:	89 2b       	or	r24, r25
    47ee:	21 f0       	breq	.+8      	; 0x47f8 <vTaskSuspend+0x3e>
    47f0:	ce 01       	movw	r24, r28
    47f2:	0e 96       	adiw	r24, 0x0e	; 14
    47f4:	0e 94 9f 1a 	call	0x353e	; 0x353e <uxListRemove>
    47f8:	b8 01       	movw	r22, r16
    47fa:	86 e1       	ldi	r24, 0x16	; 22
    47fc:	9d e2       	ldi	r25, 0x2D	; 45
    47fe:	0e 94 41 1a 	call	0x3482	; 0x3482 <vListInsertEnd>
    4802:	8b a5       	ldd	r24, Y+43	; 0x2b
    4804:	81 30       	cpi	r24, 0x01	; 1
    4806:	09 f4       	brne	.+2      	; 0x480a <vTaskSuspend+0x50>
    4808:	1b a6       	std	Y+43, r1	; 0x2b
    480a:	ff 91       	pop	r31
    480c:	f0 93 a2 00 	sts	0x00A2, r31	; 0x8000a2 <__TEXT_REGION_LENGTH__+0x7000a2>
    4810:	80 91 0f 2d 	lds	r24, 0x2D0F	; 0x802d0f <xSchedulerRunning>
    4814:	88 23       	and	r24, r24
    4816:	59 f0       	breq	.+22     	; 0x482e <vTaskSuspend+0x74>
    4818:	f0 91 a2 00 	lds	r31, 0x00A2	; 0x8000a2 <__TEXT_REGION_LENGTH__+0x7000a2>
    481c:	ff 93       	push	r31
    481e:	f8 7f       	andi	r31, 0xF8	; 248
    4820:	f0 93 a2 00 	sts	0x00A2, r31	; 0x8000a2 <__TEXT_REGION_LENGTH__+0x7000a2>
    4824:	0e 94 7e 1f 	call	0x3efc	; 0x3efc <prvResetNextTaskUnblockTime>
    4828:	ff 91       	pop	r31
    482a:	f0 93 a2 00 	sts	0x00A2, r31	; 0x8000a2 <__TEXT_REGION_LENGTH__+0x7000a2>
    482e:	80 91 72 2d 	lds	r24, 0x2D72	; 0x802d72 <pxCurrentTCB>
    4832:	90 91 73 2d 	lds	r25, 0x2D73	; 0x802d73 <pxCurrentTCB+0x1>
    4836:	c8 17       	cp	r28, r24
    4838:	d9 07       	cpc	r29, r25
    483a:	a1 f4       	brne	.+40     	; 0x4864 <vTaskSuspend+0xaa>
    483c:	80 91 0f 2d 	lds	r24, 0x2D0F	; 0x802d0f <xSchedulerRunning>
    4840:	88 23       	and	r24, r24
    4842:	19 f0       	breq	.+6      	; 0x484a <vTaskSuspend+0x90>
    4844:	0e 94 8a 1b 	call	0x3714	; 0x3714 <vPortYield>
    4848:	0d c0       	rjmp	.+26     	; 0x4864 <vTaskSuspend+0xaa>
    484a:	90 91 16 2d 	lds	r25, 0x2D16	; 0x802d16 <xSuspendedTaskList>
    484e:	80 91 15 2d 	lds	r24, 0x2D15	; 0x802d15 <uxCurrentNumberOfTasks>
    4852:	98 13       	cpse	r25, r24
    4854:	05 c0       	rjmp	.+10     	; 0x4860 <vTaskSuspend+0xa6>
    4856:	10 92 72 2d 	sts	0x2D72, r1	; 0x802d72 <pxCurrentTCB>
    485a:	10 92 73 2d 	sts	0x2D73, r1	; 0x802d73 <pxCurrentTCB+0x1>
    485e:	02 c0       	rjmp	.+4      	; 0x4864 <vTaskSuspend+0xaa>
    4860:	0e 94 4f 23 	call	0x469e	; 0x469e <vTaskSwitchContext>
    4864:	df 91       	pop	r29
    4866:	cf 91       	pop	r28
    4868:	1f 91       	pop	r17
    486a:	0f 91       	pop	r16
    486c:	08 95       	ret

0000486e <vTaskPlaceOnEventList>:
    486e:	cf 92       	push	r12
    4870:	df 92       	push	r13
    4872:	ef 92       	push	r14
    4874:	ff 92       	push	r15
    4876:	6a 01       	movw	r12, r20
    4878:	7b 01       	movw	r14, r22
    487a:	60 91 72 2d 	lds	r22, 0x2D72	; 0x802d72 <pxCurrentTCB>
    487e:	70 91 73 2d 	lds	r23, 0x2D73	; 0x802d73 <pxCurrentTCB+0x1>
    4882:	62 5f       	subi	r22, 0xF2	; 242
    4884:	7f 4f       	sbci	r23, 0xFF	; 255
    4886:	0e 94 62 1a 	call	0x34c4	; 0x34c4 <vListInsert>
    488a:	41 e0       	ldi	r20, 0x01	; 1
    488c:	c7 01       	movw	r24, r14
    488e:	b6 01       	movw	r22, r12
    4890:	0e 94 a8 1f 	call	0x3f50	; 0x3f50 <prvAddCurrentTaskToDelayedList>
    4894:	ff 90       	pop	r15
    4896:	ef 90       	pop	r14
    4898:	df 90       	pop	r13
    489a:	cf 90       	pop	r12
    489c:	08 95       	ret

0000489e <vTaskPlaceOnUnorderedEventList>:
    489e:	cf 92       	push	r12
    48a0:	df 92       	push	r13
    48a2:	ef 92       	push	r14
    48a4:	ff 92       	push	r15
    48a6:	0f 93       	push	r16
    48a8:	1f 93       	push	r17
    48aa:	68 01       	movw	r12, r16
    48ac:	79 01       	movw	r14, r18
    48ae:	e0 91 72 2d 	lds	r30, 0x2D72	; 0x802d72 <pxCurrentTCB>
    48b2:	f0 91 73 2d 	lds	r31, 0x2D73	; 0x802d73 <pxCurrentTCB+0x1>
    48b6:	70 68       	ori	r23, 0x80	; 128
    48b8:	46 87       	std	Z+14, r20	; 0x0e
    48ba:	57 87       	std	Z+15, r21	; 0x0f
    48bc:	60 8b       	std	Z+16, r22	; 0x10
    48be:	71 8b       	std	Z+17, r23	; 0x11
    48c0:	60 91 72 2d 	lds	r22, 0x2D72	; 0x802d72 <pxCurrentTCB>
    48c4:	70 91 73 2d 	lds	r23, 0x2D73	; 0x802d73 <pxCurrentTCB+0x1>
    48c8:	62 5f       	subi	r22, 0xF2	; 242
    48ca:	7f 4f       	sbci	r23, 0xFF	; 255
    48cc:	0e 94 41 1a 	call	0x3482	; 0x3482 <vListInsertEnd>
    48d0:	41 e0       	ldi	r20, 0x01	; 1
    48d2:	c7 01       	movw	r24, r14
    48d4:	b6 01       	movw	r22, r12
    48d6:	0e 94 a8 1f 	call	0x3f50	; 0x3f50 <prvAddCurrentTaskToDelayedList>
    48da:	1f 91       	pop	r17
    48dc:	0f 91       	pop	r16
    48de:	ff 90       	pop	r15
    48e0:	ef 90       	pop	r14
    48e2:	df 90       	pop	r13
    48e4:	cf 90       	pop	r12
    48e6:	08 95       	ret

000048e8 <vTaskPlaceOnEventListRestricted>:
    48e8:	cf 92       	push	r12
    48ea:	df 92       	push	r13
    48ec:	ef 92       	push	r14
    48ee:	ff 92       	push	r15
    48f0:	cf 93       	push	r28
    48f2:	6a 01       	movw	r12, r20
    48f4:	7b 01       	movw	r14, r22
    48f6:	c2 2f       	mov	r28, r18
    48f8:	60 91 72 2d 	lds	r22, 0x2D72	; 0x802d72 <pxCurrentTCB>
    48fc:	70 91 73 2d 	lds	r23, 0x2D73	; 0x802d73 <pxCurrentTCB+0x1>
    4900:	62 5f       	subi	r22, 0xF2	; 242
    4902:	7f 4f       	sbci	r23, 0xFF	; 255
    4904:	0e 94 41 1a 	call	0x3482	; 0x3482 <vListInsertEnd>
    4908:	cc 23       	and	r28, r28
    490a:	21 f0       	breq	.+8      	; 0x4914 <vTaskPlaceOnEventListRestricted+0x2c>
    490c:	cc 24       	eor	r12, r12
    490e:	ca 94       	dec	r12
    4910:	dc 2c       	mov	r13, r12
    4912:	76 01       	movw	r14, r12
    4914:	4c 2f       	mov	r20, r28
    4916:	c7 01       	movw	r24, r14
    4918:	b6 01       	movw	r22, r12
    491a:	0e 94 a8 1f 	call	0x3f50	; 0x3f50 <prvAddCurrentTaskToDelayedList>
    491e:	cf 91       	pop	r28
    4920:	ff 90       	pop	r15
    4922:	ef 90       	pop	r14
    4924:	df 90       	pop	r13
    4926:	cf 90       	pop	r12
    4928:	08 95       	ret

0000492a <xTaskRemoveFromEventList>:
    492a:	0f 93       	push	r16
    492c:	1f 93       	push	r17
    492e:	cf 93       	push	r28
    4930:	df 93       	push	r29
    4932:	dc 01       	movw	r26, r24
    4934:	17 96       	adiw	r26, 0x07	; 7
    4936:	ed 91       	ld	r30, X+
    4938:	fc 91       	ld	r31, X
    493a:	18 97       	sbiw	r26, 0x08	; 8
    493c:	c0 85       	ldd	r28, Z+8	; 0x08
    493e:	d1 85       	ldd	r29, Z+9	; 0x09
    4940:	8e 01       	movw	r16, r28
    4942:	02 5f       	subi	r16, 0xF2	; 242
    4944:	1f 4f       	sbci	r17, 0xFF	; 255
    4946:	c8 01       	movw	r24, r16
    4948:	0e 94 9f 1a 	call	0x353e	; 0x353e <uxListRemove>
    494c:	80 91 04 2d 	lds	r24, 0x2D04	; 0x802d04 <uxSchedulerSuspended>
    4950:	81 11       	cpse	r24, r1
    4952:	16 c0       	rjmp	.+44     	; 0x4980 <xTaskRemoveFromEventList+0x56>
    4954:	0c 50       	subi	r16, 0x0C	; 12
    4956:	11 09       	sbc	r17, r1
    4958:	c8 01       	movw	r24, r16
    495a:	0e 94 9f 1a 	call	0x353e	; 0x353e <uxListRemove>
    495e:	8a 8d       	ldd	r24, Y+26	; 0x1a
    4960:	90 91 10 2d 	lds	r25, 0x2D10	; 0x802d10 <uxTopReadyPriority>
    4964:	98 17       	cp	r25, r24
    4966:	10 f4       	brcc	.+4      	; 0x496c <xTaskRemoveFromEventList+0x42>
    4968:	80 93 10 2d 	sts	0x2D10, r24	; 0x802d10 <uxTopReadyPriority>
    496c:	bb e0       	ldi	r27, 0x0B	; 11
    496e:	8b 9f       	mul	r24, r27
    4970:	c0 01       	movw	r24, r0
    4972:	11 24       	eor	r1, r1
    4974:	b8 01       	movw	r22, r16
    4976:	8a 5b       	subi	r24, 0xBA	; 186
    4978:	92 4d       	sbci	r25, 0xD2	; 210
    497a:	0e 94 41 1a 	call	0x3482	; 0x3482 <vListInsertEnd>
    497e:	05 c0       	rjmp	.+10     	; 0x498a <xTaskRemoveFromEventList+0x60>
    4980:	b8 01       	movw	r22, r16
    4982:	81 e2       	ldi	r24, 0x21	; 33
    4984:	9d e2       	ldi	r25, 0x2D	; 45
    4986:	0e 94 41 1a 	call	0x3482	; 0x3482 <vListInsertEnd>
    498a:	e0 91 72 2d 	lds	r30, 0x2D72	; 0x802d72 <pxCurrentTCB>
    498e:	f0 91 73 2d 	lds	r31, 0x2D73	; 0x802d73 <pxCurrentTCB+0x1>
    4992:	9a 8d       	ldd	r25, Y+26	; 0x1a
    4994:	82 8d       	ldd	r24, Z+26	; 0x1a
    4996:	89 17       	cp	r24, r25
    4998:	20 f4       	brcc	.+8      	; 0x49a2 <xTaskRemoveFromEventList+0x78>
    499a:	81 e0       	ldi	r24, 0x01	; 1
    499c:	80 93 0d 2d 	sts	0x2D0D, r24	; 0x802d0d <xYieldPending>
    49a0:	01 c0       	rjmp	.+2      	; 0x49a4 <xTaskRemoveFromEventList+0x7a>
    49a2:	80 e0       	ldi	r24, 0x00	; 0
    49a4:	df 91       	pop	r29
    49a6:	cf 91       	pop	r28
    49a8:	1f 91       	pop	r17
    49aa:	0f 91       	pop	r16
    49ac:	08 95       	ret

000049ae <vTaskRemoveFromUnorderedEventList>:
    49ae:	0f 93       	push	r16
    49b0:	1f 93       	push	r17
    49b2:	cf 93       	push	r28
    49b4:	df 93       	push	r29
    49b6:	70 68       	ori	r23, 0x80	; 128
    49b8:	fc 01       	movw	r30, r24
    49ba:	40 83       	st	Z, r20
    49bc:	51 83       	std	Z+1, r21	; 0x01
    49be:	62 83       	std	Z+2, r22	; 0x02
    49c0:	73 83       	std	Z+3, r23	; 0x03
    49c2:	c0 85       	ldd	r28, Z+8	; 0x08
    49c4:	d1 85       	ldd	r29, Z+9	; 0x09
    49c6:	0e 94 9f 1a 	call	0x353e	; 0x353e <uxListRemove>
    49ca:	8e 01       	movw	r16, r28
    49cc:	0e 5f       	subi	r16, 0xFE	; 254
    49ce:	1f 4f       	sbci	r17, 0xFF	; 255
    49d0:	c8 01       	movw	r24, r16
    49d2:	0e 94 9f 1a 	call	0x353e	; 0x353e <uxListRemove>
    49d6:	8a 8d       	ldd	r24, Y+26	; 0x1a
    49d8:	90 91 10 2d 	lds	r25, 0x2D10	; 0x802d10 <uxTopReadyPriority>
    49dc:	98 17       	cp	r25, r24
    49de:	10 f4       	brcc	.+4      	; 0x49e4 <vTaskRemoveFromUnorderedEventList+0x36>
    49e0:	80 93 10 2d 	sts	0x2D10, r24	; 0x802d10 <uxTopReadyPriority>
    49e4:	fb e0       	ldi	r31, 0x0B	; 11
    49e6:	8f 9f       	mul	r24, r31
    49e8:	c0 01       	movw	r24, r0
    49ea:	11 24       	eor	r1, r1
    49ec:	b8 01       	movw	r22, r16
    49ee:	8a 5b       	subi	r24, 0xBA	; 186
    49f0:	92 4d       	sbci	r25, 0xD2	; 210
    49f2:	0e 94 41 1a 	call	0x3482	; 0x3482 <vListInsertEnd>
    49f6:	e0 91 72 2d 	lds	r30, 0x2D72	; 0x802d72 <pxCurrentTCB>
    49fa:	f0 91 73 2d 	lds	r31, 0x2D73	; 0x802d73 <pxCurrentTCB+0x1>
    49fe:	9a 8d       	ldd	r25, Y+26	; 0x1a
    4a00:	82 8d       	ldd	r24, Z+26	; 0x1a
    4a02:	89 17       	cp	r24, r25
    4a04:	18 f4       	brcc	.+6      	; 0x4a0c <vTaskRemoveFromUnorderedEventList+0x5e>
    4a06:	81 e0       	ldi	r24, 0x01	; 1
    4a08:	80 93 0d 2d 	sts	0x2D0D, r24	; 0x802d0d <xYieldPending>
    4a0c:	df 91       	pop	r29
    4a0e:	cf 91       	pop	r28
    4a10:	1f 91       	pop	r17
    4a12:	0f 91       	pop	r16
    4a14:	08 95       	ret

00004a16 <vTaskInternalSetTimeOutState>:
    4a16:	20 91 0c 2d 	lds	r18, 0x2D0C	; 0x802d0c <xNumOfOverflows>
    4a1a:	fc 01       	movw	r30, r24
    4a1c:	20 83       	st	Z, r18
    4a1e:	40 91 11 2d 	lds	r20, 0x2D11	; 0x802d11 <xTickCount>
    4a22:	50 91 12 2d 	lds	r21, 0x2D12	; 0x802d12 <xTickCount+0x1>
    4a26:	60 91 13 2d 	lds	r22, 0x2D13	; 0x802d13 <xTickCount+0x2>
    4a2a:	70 91 14 2d 	lds	r23, 0x2D14	; 0x802d14 <xTickCount+0x3>
    4a2e:	41 83       	std	Z+1, r20	; 0x01
    4a30:	52 83       	std	Z+2, r21	; 0x02
    4a32:	63 83       	std	Z+3, r22	; 0x03
    4a34:	74 83       	std	Z+4, r23	; 0x04
    4a36:	08 95       	ret

00004a38 <xTaskCheckForTimeOut>:
    4a38:	cf 92       	push	r12
    4a3a:	df 92       	push	r13
    4a3c:	ef 92       	push	r14
    4a3e:	ff 92       	push	r15
    4a40:	0f 93       	push	r16
    4a42:	1f 93       	push	r17
    4a44:	cf 93       	push	r28
    4a46:	df 93       	push	r29
    4a48:	db 01       	movw	r26, r22
    4a4a:	f0 91 a2 00 	lds	r31, 0x00A2	; 0x8000a2 <__TEXT_REGION_LENGTH__+0x7000a2>
    4a4e:	ff 93       	push	r31
    4a50:	f8 7f       	andi	r31, 0xF8	; 248
    4a52:	f0 93 a2 00 	sts	0x00A2, r31	; 0x8000a2 <__TEXT_REGION_LENGTH__+0x7000a2>
    4a56:	40 91 11 2d 	lds	r20, 0x2D11	; 0x802d11 <xTickCount>
    4a5a:	50 91 12 2d 	lds	r21, 0x2D12	; 0x802d12 <xTickCount+0x1>
    4a5e:	60 91 13 2d 	lds	r22, 0x2D13	; 0x802d13 <xTickCount+0x2>
    4a62:	70 91 14 2d 	lds	r23, 0x2D14	; 0x802d14 <xTickCount+0x3>
    4a66:	0d 91       	ld	r16, X+
    4a68:	1d 91       	ld	r17, X+
    4a6a:	2d 91       	ld	r18, X+
    4a6c:	3c 91       	ld	r19, X
    4a6e:	13 97       	sbiw	r26, 0x03	; 3
    4a70:	0f 3f       	cpi	r16, 0xFF	; 255
    4a72:	cf ef       	ldi	r28, 0xFF	; 255
    4a74:	1c 07       	cpc	r17, r28
    4a76:	2c 07       	cpc	r18, r28
    4a78:	3c 07       	cpc	r19, r28
    4a7a:	69 f1       	breq	.+90     	; 0x4ad6 <xTaskCheckForTimeOut+0x9e>
    4a7c:	fc 01       	movw	r30, r24
    4a7e:	c1 80       	ldd	r12, Z+1	; 0x01
    4a80:	d2 80       	ldd	r13, Z+2	; 0x02
    4a82:	e3 80       	ldd	r14, Z+3	; 0x03
    4a84:	f4 80       	ldd	r15, Z+4	; 0x04
    4a86:	e0 91 0c 2d 	lds	r30, 0x2D0C	; 0x802d0c <xNumOfOverflows>
    4a8a:	ec 01       	movw	r28, r24
    4a8c:	f8 81       	ld	r31, Y
    4a8e:	fe 17       	cp	r31, r30
    4a90:	29 f0       	breq	.+10     	; 0x4a9c <xTaskCheckForTimeOut+0x64>
    4a92:	4c 15       	cp	r20, r12
    4a94:	5d 05       	cpc	r21, r13
    4a96:	6e 05       	cpc	r22, r14
    4a98:	7f 05       	cpc	r23, r15
    4a9a:	f8 f4       	brcc	.+62     	; 0x4ada <xTaskCheckForTimeOut+0xa2>
    4a9c:	4c 19       	sub	r20, r12
    4a9e:	5d 09       	sbc	r21, r13
    4aa0:	6e 09       	sbc	r22, r14
    4aa2:	7f 09       	sbc	r23, r15
    4aa4:	40 17       	cp	r20, r16
    4aa6:	51 07       	cpc	r21, r17
    4aa8:	62 07       	cpc	r22, r18
    4aaa:	73 07       	cpc	r23, r19
    4aac:	68 f4       	brcc	.+26     	; 0x4ac8 <xTaskCheckForTimeOut+0x90>
    4aae:	fd 01       	movw	r30, r26
    4ab0:	04 1b       	sub	r16, r20
    4ab2:	15 0b       	sbc	r17, r21
    4ab4:	26 0b       	sbc	r18, r22
    4ab6:	37 0b       	sbc	r19, r23
    4ab8:	00 83       	st	Z, r16
    4aba:	11 83       	std	Z+1, r17	; 0x01
    4abc:	22 83       	std	Z+2, r18	; 0x02
    4abe:	33 83       	std	Z+3, r19	; 0x03
    4ac0:	0e 94 0b 25 	call	0x4a16	; 0x4a16 <vTaskInternalSetTimeOutState>
    4ac4:	80 e0       	ldi	r24, 0x00	; 0
    4ac6:	0a c0       	rjmp	.+20     	; 0x4adc <xTaskCheckForTimeOut+0xa4>
    4ac8:	1d 92       	st	X+, r1
    4aca:	1d 92       	st	X+, r1
    4acc:	1d 92       	st	X+, r1
    4ace:	1c 92       	st	X, r1
    4ad0:	13 97       	sbiw	r26, 0x03	; 3
    4ad2:	81 e0       	ldi	r24, 0x01	; 1
    4ad4:	03 c0       	rjmp	.+6      	; 0x4adc <xTaskCheckForTimeOut+0xa4>
    4ad6:	80 e0       	ldi	r24, 0x00	; 0
    4ad8:	01 c0       	rjmp	.+2      	; 0x4adc <xTaskCheckForTimeOut+0xa4>
    4ada:	81 e0       	ldi	r24, 0x01	; 1
    4adc:	ff 91       	pop	r31
    4ade:	f0 93 a2 00 	sts	0x00A2, r31	; 0x8000a2 <__TEXT_REGION_LENGTH__+0x7000a2>
    4ae2:	df 91       	pop	r29
    4ae4:	cf 91       	pop	r28
    4ae6:	1f 91       	pop	r17
    4ae8:	0f 91       	pop	r16
    4aea:	ff 90       	pop	r15
    4aec:	ef 90       	pop	r14
    4aee:	df 90       	pop	r13
    4af0:	cf 90       	pop	r12
    4af2:	08 95       	ret

00004af4 <vTaskMissedYield>:
    4af4:	81 e0       	ldi	r24, 0x01	; 1
    4af6:	80 93 0d 2d 	sts	0x2D0D, r24	; 0x802d0d <xYieldPending>
    4afa:	08 95       	ret

00004afc <xTaskGetSchedulerState>:

	BaseType_t xTaskGetSchedulerState( void )
	{
	BaseType_t xReturn;

		if( xSchedulerRunning == pdFALSE )
    4afc:	80 91 0f 2d 	lds	r24, 0x2D0F	; 0x802d0f <xSchedulerRunning>
    4b00:	88 23       	and	r24, r24
    4b02:	31 f0       	breq	.+12     	; 0x4b10 <xTaskGetSchedulerState+0x14>
		{
			xReturn = taskSCHEDULER_NOT_STARTED;
		}
		else
		{
			if( uxSchedulerSuspended == ( UBaseType_t ) pdFALSE )
    4b04:	80 91 04 2d 	lds	r24, 0x2D04	; 0x802d04 <uxSchedulerSuspended>
    4b08:	88 23       	and	r24, r24
    4b0a:	21 f0       	breq	.+8      	; 0x4b14 <xTaskGetSchedulerState+0x18>
			{
				xReturn = taskSCHEDULER_RUNNING;
			}
			else
			{
				xReturn = taskSCHEDULER_SUSPENDED;
    4b0c:	80 e0       	ldi	r24, 0x00	; 0
    4b0e:	08 95       	ret
	{
	BaseType_t xReturn;

		if( xSchedulerRunning == pdFALSE )
		{
			xReturn = taskSCHEDULER_NOT_STARTED;
    4b10:	81 e0       	ldi	r24, 0x01	; 1
    4b12:	08 95       	ret
		}
		else
		{
			if( uxSchedulerSuspended == ( UBaseType_t ) pdFALSE )
			{
				xReturn = taskSCHEDULER_RUNNING;
    4b14:	82 e0       	ldi	r24, 0x02	; 2
				xReturn = taskSCHEDULER_SUSPENDED;
			}
		}

		return xReturn;
	}
    4b16:	08 95       	ret

00004b18 <uxTaskResetEventItemValue>:

#endif /* ( ( configGENERATE_RUN_TIME_STATS == 1 ) && ( configUSE_STATS_FORMATTING_FUNCTIONS > 0 ) && ( configSUPPORT_STATIC_ALLOCATION == 1 ) ) */
/*-----------------------------------------------------------*/

TickType_t uxTaskResetEventItemValue( void )
{
    4b18:	cf 92       	push	r12
    4b1a:	df 92       	push	r13
    4b1c:	ef 92       	push	r14
    4b1e:	ff 92       	push	r15
TickType_t uxReturn;

	uxReturn = listGET_LIST_ITEM_VALUE( &( pxCurrentTCB->xEventListItem ) );
    4b20:	e0 91 72 2d 	lds	r30, 0x2D72	; 0x802d72 <pxCurrentTCB>
    4b24:	f0 91 73 2d 	lds	r31, 0x2D73	; 0x802d73 <pxCurrentTCB+0x1>
    4b28:	66 85       	ldd	r22, Z+14	; 0x0e
    4b2a:	77 85       	ldd	r23, Z+15	; 0x0f
    4b2c:	80 89       	ldd	r24, Z+16	; 0x10
    4b2e:	91 89       	ldd	r25, Z+17	; 0x11

	/* Reset the event list item to its normal value - so it can be used with
	queues and semaphores. */
	listSET_LIST_ITEM_VALUE( &( pxCurrentTCB->xEventListItem ), ( ( TickType_t ) configMAX_PRIORITIES - ( TickType_t ) pxCurrentTCB->uxPriority ) ); /*lint !e961 MISRA exception as the casts are only redundant for some ports. */
    4b30:	e0 91 72 2d 	lds	r30, 0x2D72	; 0x802d72 <pxCurrentTCB>
    4b34:	f0 91 73 2d 	lds	r31, 0x2D73	; 0x802d73 <pxCurrentTCB+0x1>
    4b38:	a0 91 72 2d 	lds	r26, 0x2D72	; 0x802d72 <pxCurrentTCB>
    4b3c:	b0 91 73 2d 	lds	r27, 0x2D73	; 0x802d73 <pxCurrentTCB+0x1>
    4b40:	5a 96       	adiw	r26, 0x1a	; 26
    4b42:	2c 91       	ld	r18, X
    4b44:	c1 2c       	mov	r12, r1
    4b46:	d1 2c       	mov	r13, r1
    4b48:	76 01       	movw	r14, r12
    4b4a:	68 94       	set
    4b4c:	c2 f8       	bld	r12, 2
    4b4e:	c2 1a       	sub	r12, r18
    4b50:	d1 08       	sbc	r13, r1
    4b52:	e1 08       	sbc	r14, r1
    4b54:	f1 08       	sbc	r15, r1
    4b56:	c6 86       	std	Z+14, r12	; 0x0e
    4b58:	d7 86       	std	Z+15, r13	; 0x0f
    4b5a:	e0 8a       	std	Z+16, r14	; 0x10
    4b5c:	f1 8a       	std	Z+17, r15	; 0x11

	return uxReturn;
}
    4b5e:	ff 90       	pop	r15
    4b60:	ef 90       	pop	r14
    4b62:	df 90       	pop	r13
    4b64:	cf 90       	pop	r12
    4b66:	08 95       	ret

00004b68 <prvInsertTimerInActiveList>:

	taskENTER_CRITICAL();
	{
		pxTimer->pvTimerID = pvNewID;
	}
	taskEXIT_CRITICAL();
    4b68:	cf 92       	push	r12
    4b6a:	df 92       	push	r13
    4b6c:	ef 92       	push	r14
    4b6e:	ff 92       	push	r15
    4b70:	0f 93       	push	r16
    4b72:	1f 93       	push	r17
    4b74:	fc 01       	movw	r30, r24
    4b76:	42 83       	std	Z+2, r20	; 0x02
    4b78:	53 83       	std	Z+3, r21	; 0x03
    4b7a:	64 83       	std	Z+4, r22	; 0x04
    4b7c:	75 83       	std	Z+5, r23	; 0x05
    4b7e:	82 87       	std	Z+10, r24	; 0x0a
    4b80:	93 87       	std	Z+11, r25	; 0x0b
    4b82:	04 17       	cp	r16, r20
    4b84:	15 07       	cpc	r17, r21
    4b86:	26 07       	cpc	r18, r22
    4b88:	37 07       	cpc	r19, r23
    4b8a:	c0 f0       	brcs	.+48     	; 0x4bbc <prvInsertTimerInActiveList+0x54>
    4b8c:	0c 19       	sub	r16, r12
    4b8e:	1d 09       	sbc	r17, r13
    4b90:	2e 09       	sbc	r18, r14
    4b92:	3f 09       	sbc	r19, r15
    4b94:	86 85       	ldd	r24, Z+14	; 0x0e
    4b96:	97 85       	ldd	r25, Z+15	; 0x0f
    4b98:	a0 89       	ldd	r26, Z+16	; 0x10
    4b9a:	b1 89       	ldd	r27, Z+17	; 0x11
    4b9c:	08 17       	cp	r16, r24
    4b9e:	19 07       	cpc	r17, r25
    4ba0:	2a 07       	cpc	r18, r26
    4ba2:	3b 07       	cpc	r19, r27
    4ba4:	00 f5       	brcc	.+64     	; 0x4be6 <prvInsertTimerInActiveList+0x7e>
    4ba6:	bf 01       	movw	r22, r30
    4ba8:	6e 5f       	subi	r22, 0xFE	; 254
    4baa:	7f 4f       	sbci	r23, 0xFF	; 255
    4bac:	80 91 7c 2d 	lds	r24, 0x2D7C	; 0x802d7c <pxOverflowTimerList>
    4bb0:	90 91 7d 2d 	lds	r25, 0x2D7D	; 0x802d7d <pxOverflowTimerList+0x1>
    4bb4:	0e 94 62 1a 	call	0x34c4	; 0x34c4 <vListInsert>
    4bb8:	80 e0       	ldi	r24, 0x00	; 0
    4bba:	18 c0       	rjmp	.+48     	; 0x4bec <prvInsertTimerInActiveList+0x84>
    4bbc:	0c 15       	cp	r16, r12
    4bbe:	1d 05       	cpc	r17, r13
    4bc0:	2e 05       	cpc	r18, r14
    4bc2:	3f 05       	cpc	r19, r15
    4bc4:	28 f4       	brcc	.+10     	; 0x4bd0 <prvInsertTimerInActiveList+0x68>
    4bc6:	4c 15       	cp	r20, r12
    4bc8:	5d 05       	cpc	r21, r13
    4bca:	6e 05       	cpc	r22, r14
    4bcc:	7f 05       	cpc	r23, r15
    4bce:	68 f4       	brcc	.+26     	; 0x4bea <prvInsertTimerInActiveList+0x82>
    4bd0:	bf 01       	movw	r22, r30
    4bd2:	6e 5f       	subi	r22, 0xFE	; 254
    4bd4:	7f 4f       	sbci	r23, 0xFF	; 255
    4bd6:	80 91 7e 2d 	lds	r24, 0x2D7E	; 0x802d7e <pxCurrentTimerList>
    4bda:	90 91 7f 2d 	lds	r25, 0x2D7F	; 0x802d7f <pxCurrentTimerList+0x1>
    4bde:	0e 94 62 1a 	call	0x34c4	; 0x34c4 <vListInsert>
    4be2:	80 e0       	ldi	r24, 0x00	; 0
    4be4:	03 c0       	rjmp	.+6      	; 0x4bec <prvInsertTimerInActiveList+0x84>
    4be6:	81 e0       	ldi	r24, 0x01	; 1
    4be8:	01 c0       	rjmp	.+2      	; 0x4bec <prvInsertTimerInActiveList+0x84>
    4bea:	81 e0       	ldi	r24, 0x01	; 1
    4bec:	1f 91       	pop	r17
    4bee:	0f 91       	pop	r16
    4bf0:	ff 90       	pop	r15
    4bf2:	ef 90       	pop	r14
    4bf4:	df 90       	pop	r13
    4bf6:	cf 90       	pop	r12
    4bf8:	08 95       	ret

00004bfa <prvCheckForValidListAndQueue>:
    4bfa:	f0 91 a2 00 	lds	r31, 0x00A2	; 0x8000a2 <__TEXT_REGION_LENGTH__+0x7000a2>
    4bfe:	ff 93       	push	r31
    4c00:	f8 7f       	andi	r31, 0xF8	; 248
    4c02:	f0 93 a2 00 	sts	0x00A2, r31	; 0x8000a2 <__TEXT_REGION_LENGTH__+0x7000a2>
    4c06:	80 91 7a 2d 	lds	r24, 0x2D7A	; 0x802d7a <xTimerQueue>
    4c0a:	90 91 7b 2d 	lds	r25, 0x2D7B	; 0x802d7b <xTimerQueue+0x1>
    4c0e:	89 2b       	or	r24, r25
    4c10:	e9 f4       	brne	.+58     	; 0x4c4c <prvCheckForValidListAndQueue+0x52>
    4c12:	8b e8       	ldi	r24, 0x8B	; 139
    4c14:	9d e2       	ldi	r25, 0x2D	; 45
    4c16:	0e 94 2c 1a 	call	0x3458	; 0x3458 <vListInitialise>
    4c1a:	80 e8       	ldi	r24, 0x80	; 128
    4c1c:	9d e2       	ldi	r25, 0x2D	; 45
    4c1e:	0e 94 2c 1a 	call	0x3458	; 0x3458 <vListInitialise>
    4c22:	8b e8       	ldi	r24, 0x8B	; 139
    4c24:	9d e2       	ldi	r25, 0x2D	; 45
    4c26:	80 93 7e 2d 	sts	0x2D7E, r24	; 0x802d7e <pxCurrentTimerList>
    4c2a:	90 93 7f 2d 	sts	0x2D7F, r25	; 0x802d7f <pxCurrentTimerList+0x1>
    4c2e:	80 e8       	ldi	r24, 0x80	; 128
    4c30:	9d e2       	ldi	r25, 0x2D	; 45
    4c32:	80 93 7c 2d 	sts	0x2D7C, r24	; 0x802d7c <pxOverflowTimerList>
    4c36:	90 93 7d 2d 	sts	0x2D7D, r25	; 0x802d7d <pxOverflowTimerList+0x1>
    4c3a:	40 e0       	ldi	r20, 0x00	; 0
    4c3c:	69 e0       	ldi	r22, 0x09	; 9
    4c3e:	85 e0       	ldi	r24, 0x05	; 5
    4c40:	0e 94 8f 1d 	call	0x3b1e	; 0x3b1e <xQueueGenericCreate>
    4c44:	80 93 7a 2d 	sts	0x2D7A, r24	; 0x802d7a <xTimerQueue>
    4c48:	90 93 7b 2d 	sts	0x2D7B, r25	; 0x802d7b <xTimerQueue+0x1>
    4c4c:	ff 91       	pop	r31
    4c4e:	f0 93 a2 00 	sts	0x00A2, r31	; 0x8000a2 <__TEXT_REGION_LENGTH__+0x7000a2>
    4c52:	08 95       	ret

00004c54 <xTimerCreateTimerTask>:
    4c54:	ef 92       	push	r14
    4c56:	ff 92       	push	r15
    4c58:	0f 93       	push	r16
    4c5a:	0e 94 fd 25 	call	0x4bfa	; 0x4bfa <prvCheckForValidListAndQueue>
    4c5e:	80 91 7a 2d 	lds	r24, 0x2D7A	; 0x802d7a <xTimerQueue>
    4c62:	90 91 7b 2d 	lds	r25, 0x2D7B	; 0x802d7b <xTimerQueue+0x1>
    4c66:	89 2b       	or	r24, r25
    4c68:	91 f0       	breq	.+36     	; 0x4c8e <xTimerCreateTimerTask+0x3a>
    4c6a:	0f 2e       	mov	r0, r31
    4c6c:	f8 e7       	ldi	r31, 0x78	; 120
    4c6e:	ef 2e       	mov	r14, r31
    4c70:	fd e2       	ldi	r31, 0x2D	; 45
    4c72:	ff 2e       	mov	r15, r31
    4c74:	f0 2d       	mov	r31, r0
    4c76:	03 e0       	ldi	r16, 0x03	; 3
    4c78:	20 e0       	ldi	r18, 0x00	; 0
    4c7a:	30 e0       	ldi	r19, 0x00	; 0
    4c7c:	48 ec       	ldi	r20, 0xC8	; 200
    4c7e:	50 e0       	ldi	r21, 0x00	; 0
    4c80:	65 e2       	ldi	r22, 0x25	; 37
    4c82:	70 e2       	ldi	r23, 0x20	; 32
    4c84:	8d e3       	ldi	r24, 0x3D	; 61
    4c86:	97 e2       	ldi	r25, 0x27	; 39
    4c88:	0e 94 29 20 	call	0x4052	; 0x4052 <xTaskCreate>
    4c8c:	01 c0       	rjmp	.+2      	; 0x4c90 <xTimerCreateTimerTask+0x3c>
    4c8e:	80 e0       	ldi	r24, 0x00	; 0
    4c90:	0f 91       	pop	r16
    4c92:	ff 90       	pop	r15
    4c94:	ef 90       	pop	r14
    4c96:	08 95       	ret

00004c98 <xTimerGenericCommand>:
    4c98:	8f 92       	push	r8
    4c9a:	9f 92       	push	r9
    4c9c:	af 92       	push	r10
    4c9e:	bf 92       	push	r11
    4ca0:	cf 92       	push	r12
    4ca2:	df 92       	push	r13
    4ca4:	ef 92       	push	r14
    4ca6:	ff 92       	push	r15
    4ca8:	0f 93       	push	r16
    4caa:	1f 93       	push	r17
    4cac:	cf 93       	push	r28
    4cae:	df 93       	push	r29
    4cb0:	cd b7       	in	r28, 0x3d	; 61
    4cb2:	de b7       	in	r29, 0x3e	; 62
    4cb4:	29 97       	sbiw	r28, 0x09	; 9
    4cb6:	cd bf       	out	0x3d, r28	; 61
    4cb8:	de bf       	out	0x3e, r29	; 62
    4cba:	e0 91 7a 2d 	lds	r30, 0x2D7A	; 0x802d7a <xTimerQueue>
    4cbe:	f0 91 7b 2d 	lds	r31, 0x2D7B	; 0x802d7b <xTimerQueue+0x1>
    4cc2:	30 97       	sbiw	r30, 0x00	; 0
    4cc4:	89 f1       	breq	.+98     	; 0x4d28 <xTimerGenericCommand+0x90>
    4cc6:	69 83       	std	Y+1, r22	; 0x01
    4cc8:	2a 83       	std	Y+2, r18	; 0x02
    4cca:	3b 83       	std	Y+3, r19	; 0x03
    4ccc:	4c 83       	std	Y+4, r20	; 0x04
    4cce:	5d 83       	std	Y+5, r21	; 0x05
    4cd0:	8e 83       	std	Y+6, r24	; 0x06
    4cd2:	9f 83       	std	Y+7, r25	; 0x07
    4cd4:	66 30       	cpi	r22, 0x06	; 6
    4cd6:	fc f4       	brge	.+62     	; 0x4d16 <xTimerGenericCommand+0x7e>
    4cd8:	0e 94 7e 25 	call	0x4afc	; 0x4afc <xTaskGetSchedulerState>
    4cdc:	82 30       	cpi	r24, 0x02	; 2
    4cde:	69 f4       	brne	.+26     	; 0x4cfa <xTimerGenericCommand+0x62>
    4ce0:	00 e0       	ldi	r16, 0x00	; 0
    4ce2:	a7 01       	movw	r20, r14
    4ce4:	96 01       	movw	r18, r12
    4ce6:	be 01       	movw	r22, r28
    4ce8:	6f 5f       	subi	r22, 0xFF	; 255
    4cea:	7f 4f       	sbci	r23, 0xFF	; 255
    4cec:	80 91 7a 2d 	lds	r24, 0x2D7A	; 0x802d7a <xTimerQueue>
    4cf0:	90 91 7b 2d 	lds	r25, 0x2D7B	; 0x802d7b <xTimerQueue+0x1>
    4cf4:	0e 94 c0 1d 	call	0x3b80	; 0x3b80 <xQueueGenericSend>
    4cf8:	18 c0       	rjmp	.+48     	; 0x4d2a <xTimerGenericCommand+0x92>
    4cfa:	00 e0       	ldi	r16, 0x00	; 0
    4cfc:	20 e0       	ldi	r18, 0x00	; 0
    4cfe:	30 e0       	ldi	r19, 0x00	; 0
    4d00:	a9 01       	movw	r20, r18
    4d02:	be 01       	movw	r22, r28
    4d04:	6f 5f       	subi	r22, 0xFF	; 255
    4d06:	7f 4f       	sbci	r23, 0xFF	; 255
    4d08:	80 91 7a 2d 	lds	r24, 0x2D7A	; 0x802d7a <xTimerQueue>
    4d0c:	90 91 7b 2d 	lds	r25, 0x2D7B	; 0x802d7b <xTimerQueue+0x1>
    4d10:	0e 94 c0 1d 	call	0x3b80	; 0x3b80 <xQueueGenericSend>
    4d14:	0a c0       	rjmp	.+20     	; 0x4d2a <xTimerGenericCommand+0x92>
    4d16:	20 e0       	ldi	r18, 0x00	; 0
    4d18:	a8 01       	movw	r20, r16
    4d1a:	be 01       	movw	r22, r28
    4d1c:	6f 5f       	subi	r22, 0xFF	; 255
    4d1e:	7f 4f       	sbci	r23, 0xFF	; 255
    4d20:	cf 01       	movw	r24, r30
    4d22:	0e 94 66 1e 	call	0x3ccc	; 0x3ccc <xQueueGenericSendFromISR>
    4d26:	01 c0       	rjmp	.+2      	; 0x4d2a <xTimerGenericCommand+0x92>
    4d28:	80 e0       	ldi	r24, 0x00	; 0
    4d2a:	29 96       	adiw	r28, 0x09	; 9
    4d2c:	cd bf       	out	0x3d, r28	; 61
    4d2e:	de bf       	out	0x3e, r29	; 62
    4d30:	df 91       	pop	r29
    4d32:	cf 91       	pop	r28
    4d34:	1f 91       	pop	r17
    4d36:	0f 91       	pop	r16
    4d38:	ff 90       	pop	r15
    4d3a:	ef 90       	pop	r14
    4d3c:	df 90       	pop	r13
    4d3e:	cf 90       	pop	r12
    4d40:	bf 90       	pop	r11
    4d42:	af 90       	pop	r10
    4d44:	9f 90       	pop	r9
    4d46:	8f 90       	pop	r8
    4d48:	08 95       	ret

00004d4a <prvSampleTimeNow>:
    4d4a:	2f 92       	push	r2
    4d4c:	3f 92       	push	r3
    4d4e:	4f 92       	push	r4
    4d50:	5f 92       	push	r5
    4d52:	6f 92       	push	r6
    4d54:	7f 92       	push	r7
    4d56:	8f 92       	push	r8
    4d58:	9f 92       	push	r9
    4d5a:	af 92       	push	r10
    4d5c:	bf 92       	push	r11
    4d5e:	cf 92       	push	r12
    4d60:	df 92       	push	r13
    4d62:	ef 92       	push	r14
    4d64:	ff 92       	push	r15
    4d66:	0f 93       	push	r16
    4d68:	1f 93       	push	r17
    4d6a:	cf 93       	push	r28
    4d6c:	df 93       	push	r29
    4d6e:	1c 01       	movw	r2, r24
    4d70:	0e 94 cc 21 	call	0x4398	; 0x4398 <xTaskGetTickCount>
    4d74:	2b 01       	movw	r4, r22
    4d76:	3c 01       	movw	r6, r24
    4d78:	80 91 74 2d 	lds	r24, 0x2D74	; 0x802d74 <xLastTime.4745>
    4d7c:	90 91 75 2d 	lds	r25, 0x2D75	; 0x802d75 <xLastTime.4745+0x1>
    4d80:	a0 91 76 2d 	lds	r26, 0x2D76	; 0x802d76 <xLastTime.4745+0x2>
    4d84:	b0 91 77 2d 	lds	r27, 0x2D77	; 0x802d77 <xLastTime.4745+0x3>
    4d88:	48 16       	cp	r4, r24
    4d8a:	59 06       	cpc	r5, r25
    4d8c:	6a 06       	cpc	r6, r26
    4d8e:	7b 06       	cpc	r7, r27
    4d90:	08 f0       	brcs	.+2      	; 0x4d94 <prvSampleTimeNow+0x4a>
    4d92:	54 c0       	rjmp	.+168    	; 0x4e3c <prvSampleTimeNow+0xf2>
    4d94:	3c c0       	rjmp	.+120    	; 0x4e0e <prvSampleTimeNow+0xc4>
    4d96:	07 80       	ldd	r0, Z+7	; 0x07
    4d98:	f0 85       	ldd	r31, Z+8	; 0x08
    4d9a:	e0 2d       	mov	r30, r0
    4d9c:	80 80       	ld	r8, Z
    4d9e:	91 80       	ldd	r9, Z+1	; 0x01
    4da0:	a2 80       	ldd	r10, Z+2	; 0x02
    4da2:	b3 80       	ldd	r11, Z+3	; 0x03
    4da4:	c0 85       	ldd	r28, Z+8	; 0x08
    4da6:	d1 85       	ldd	r29, Z+9	; 0x09
    4da8:	8e 01       	movw	r16, r28
    4daa:	0e 5f       	subi	r16, 0xFE	; 254
    4dac:	1f 4f       	sbci	r17, 0xFF	; 255
    4dae:	c8 01       	movw	r24, r16
    4db0:	0e 94 9f 1a 	call	0x353e	; 0x353e <uxListRemove>
    4db4:	ed 89       	ldd	r30, Y+21	; 0x15
    4db6:	fe 89       	ldd	r31, Y+22	; 0x16
    4db8:	ce 01       	movw	r24, r28
    4dba:	19 95       	eicall
    4dbc:	8a 89       	ldd	r24, Y+18	; 0x12
    4dbe:	81 30       	cpi	r24, 0x01	; 1
    4dc0:	31 f5       	brne	.+76     	; 0x4e0e <prvSampleTimeNow+0xc4>
    4dc2:	8e 85       	ldd	r24, Y+14	; 0x0e
    4dc4:	9f 85       	ldd	r25, Y+15	; 0x0f
    4dc6:	a8 89       	ldd	r26, Y+16	; 0x10
    4dc8:	b9 89       	ldd	r27, Y+17	; 0x11
    4dca:	88 0d       	add	r24, r8
    4dcc:	99 1d       	adc	r25, r9
    4dce:	aa 1d       	adc	r26, r10
    4dd0:	bb 1d       	adc	r27, r11
    4dd2:	88 16       	cp	r8, r24
    4dd4:	99 06       	cpc	r9, r25
    4dd6:	aa 06       	cpc	r10, r26
    4dd8:	bb 06       	cpc	r11, r27
    4dda:	70 f4       	brcc	.+28     	; 0x4df8 <prvSampleTimeNow+0xae>
    4ddc:	8a 83       	std	Y+2, r24	; 0x02
    4dde:	9b 83       	std	Y+3, r25	; 0x03
    4de0:	ac 83       	std	Y+4, r26	; 0x04
    4de2:	bd 83       	std	Y+5, r27	; 0x05
    4de4:	ca 87       	std	Y+10, r28	; 0x0a
    4de6:	db 87       	std	Y+11, r29	; 0x0b
    4de8:	b8 01       	movw	r22, r16
    4dea:	80 91 7e 2d 	lds	r24, 0x2D7E	; 0x802d7e <pxCurrentTimerList>
    4dee:	90 91 7f 2d 	lds	r25, 0x2D7F	; 0x802d7f <pxCurrentTimerList+0x1>
    4df2:	0e 94 62 1a 	call	0x34c4	; 0x34c4 <vListInsert>
    4df6:	0b c0       	rjmp	.+22     	; 0x4e0e <prvSampleTimeNow+0xc4>
    4df8:	c1 2c       	mov	r12, r1
    4dfa:	d1 2c       	mov	r13, r1
    4dfc:	76 01       	movw	r14, r12
    4dfe:	00 e0       	ldi	r16, 0x00	; 0
    4e00:	10 e0       	ldi	r17, 0x00	; 0
    4e02:	a5 01       	movw	r20, r10
    4e04:	94 01       	movw	r18, r8
    4e06:	60 e0       	ldi	r22, 0x00	; 0
    4e08:	ce 01       	movw	r24, r28
    4e0a:	0e 94 4c 26 	call	0x4c98	; 0x4c98 <xTimerGenericCommand>
    4e0e:	e0 91 7e 2d 	lds	r30, 0x2D7E	; 0x802d7e <pxCurrentTimerList>
    4e12:	f0 91 7f 2d 	lds	r31, 0x2D7F	; 0x802d7f <pxCurrentTimerList+0x1>
    4e16:	80 81       	ld	r24, Z
    4e18:	81 11       	cpse	r24, r1
    4e1a:	bd cf       	rjmp	.-134    	; 0x4d96 <prvSampleTimeNow+0x4c>
    4e1c:	80 91 7c 2d 	lds	r24, 0x2D7C	; 0x802d7c <pxOverflowTimerList>
    4e20:	90 91 7d 2d 	lds	r25, 0x2D7D	; 0x802d7d <pxOverflowTimerList+0x1>
    4e24:	80 93 7e 2d 	sts	0x2D7E, r24	; 0x802d7e <pxCurrentTimerList>
    4e28:	90 93 7f 2d 	sts	0x2D7F, r25	; 0x802d7f <pxCurrentTimerList+0x1>
    4e2c:	e0 93 7c 2d 	sts	0x2D7C, r30	; 0x802d7c <pxOverflowTimerList>
    4e30:	f0 93 7d 2d 	sts	0x2D7D, r31	; 0x802d7d <pxOverflowTimerList+0x1>
    4e34:	81 e0       	ldi	r24, 0x01	; 1
    4e36:	f1 01       	movw	r30, r2
    4e38:	80 83       	st	Z, r24
    4e3a:	02 c0       	rjmp	.+4      	; 0x4e40 <prvSampleTimeNow+0xf6>
    4e3c:	f1 01       	movw	r30, r2
    4e3e:	10 82       	st	Z, r1
    4e40:	40 92 74 2d 	sts	0x2D74, r4	; 0x802d74 <xLastTime.4745>
    4e44:	50 92 75 2d 	sts	0x2D75, r5	; 0x802d75 <xLastTime.4745+0x1>
    4e48:	60 92 76 2d 	sts	0x2D76, r6	; 0x802d76 <xLastTime.4745+0x2>
    4e4c:	70 92 77 2d 	sts	0x2D77, r7	; 0x802d77 <xLastTime.4745+0x3>
    4e50:	c3 01       	movw	r24, r6
    4e52:	b2 01       	movw	r22, r4
    4e54:	df 91       	pop	r29
    4e56:	cf 91       	pop	r28
    4e58:	1f 91       	pop	r17
    4e5a:	0f 91       	pop	r16
    4e5c:	ff 90       	pop	r15
    4e5e:	ef 90       	pop	r14
    4e60:	df 90       	pop	r13
    4e62:	cf 90       	pop	r12
    4e64:	bf 90       	pop	r11
    4e66:	af 90       	pop	r10
    4e68:	9f 90       	pop	r9
    4e6a:	8f 90       	pop	r8
    4e6c:	7f 90       	pop	r7
    4e6e:	6f 90       	pop	r6
    4e70:	5f 90       	pop	r5
    4e72:	4f 90       	pop	r4
    4e74:	3f 90       	pop	r3
    4e76:	2f 90       	pop	r2
    4e78:	08 95       	ret

00004e7a <prvTimerTask>:
    4e7a:	cf 93       	push	r28
    4e7c:	df 93       	push	r29
    4e7e:	cd b7       	in	r28, 0x3d	; 61
    4e80:	de b7       	in	r29, 0x3e	; 62
    4e82:	2e 97       	sbiw	r28, 0x0e	; 14
    4e84:	cd bf       	out	0x3d, r28	; 61
    4e86:	de bf       	out	0x3e, r29	; 62
    4e88:	ce 01       	movw	r24, r28
    4e8a:	01 96       	adiw	r24, 0x01	; 1
    4e8c:	1c 01       	movw	r2, r24
    4e8e:	a8 2e       	mov	r10, r24
    4e90:	b3 2c       	mov	r11, r3
    4e92:	e0 91 7e 2d 	lds	r30, 0x2D7E	; 0x802d7e <pxCurrentTimerList>
    4e96:	f0 91 7f 2d 	lds	r31, 0x2D7F	; 0x802d7f <pxCurrentTimerList+0x1>
    4e9a:	80 81       	ld	r24, Z
    4e9c:	88 23       	and	r24, r24
    4e9e:	09 f4       	brne	.+2      	; 0x4ea2 <prvTimerTask+0x28>
    4ea0:	03 c1       	rjmp	.+518    	; 0x50a8 <prvTimerTask+0x22e>
    4ea2:	07 80       	ldd	r0, Z+7	; 0x07
    4ea4:	f0 85       	ldd	r31, Z+8	; 0x08
    4ea6:	e0 2d       	mov	r30, r0
    4ea8:	40 80       	ld	r4, Z
    4eaa:	51 80       	ldd	r5, Z+1	; 0x01
    4eac:	62 80       	ldd	r6, Z+2	; 0x02
    4eae:	73 80       	ldd	r7, Z+3	; 0x03
    4eb0:	0e 94 c6 21 	call	0x438c	; 0x438c <vTaskSuspendAll>
    4eb4:	c1 01       	movw	r24, r2
    4eb6:	0e 94 a5 26 	call	0x4d4a	; 0x4d4a <prvSampleTimeNow>
    4eba:	6b 87       	std	Y+11, r22	; 0x0b
    4ebc:	7c 87       	std	Y+12, r23	; 0x0c
    4ebe:	8d 87       	std	Y+13, r24	; 0x0d
    4ec0:	9e 87       	std	Y+14, r25	; 0x0e
    4ec2:	89 81       	ldd	r24, Y+1	; 0x01
    4ec4:	81 11       	cpse	r24, r1
    4ec6:	5e c0       	rjmp	.+188    	; 0x4f84 <prvTimerTask+0x10a>
    4ec8:	8b 85       	ldd	r24, Y+11	; 0x0b
    4eca:	9c 85       	ldd	r25, Y+12	; 0x0c
    4ecc:	ad 85       	ldd	r26, Y+13	; 0x0d
    4ece:	be 85       	ldd	r27, Y+14	; 0x0e
    4ed0:	84 15       	cp	r24, r4
    4ed2:	95 05       	cpc	r25, r5
    4ed4:	a6 05       	cpc	r26, r6
    4ed6:	b7 05       	cpc	r27, r7
    4ed8:	e8 f1       	brcs	.+122    	; 0x4f54 <prvTimerTask+0xda>
    4eda:	0e 94 b1 22 	call	0x4562	; 0x4562 <xTaskResumeAll>
    4ede:	e0 91 7e 2d 	lds	r30, 0x2D7E	; 0x802d7e <pxCurrentTimerList>
    4ee2:	f0 91 7f 2d 	lds	r31, 0x2D7F	; 0x802d7f <pxCurrentTimerList+0x1>
    4ee6:	07 80       	ldd	r0, Z+7	; 0x07
    4ee8:	f0 85       	ldd	r31, Z+8	; 0x08
    4eea:	e0 2d       	mov	r30, r0
    4eec:	80 84       	ldd	r8, Z+8	; 0x08
    4eee:	91 84       	ldd	r9, Z+9	; 0x09
    4ef0:	c4 01       	movw	r24, r8
    4ef2:	02 96       	adiw	r24, 0x02	; 2
    4ef4:	0e 94 9f 1a 	call	0x353e	; 0x353e <uxListRemove>
    4ef8:	d4 01       	movw	r26, r8
    4efa:	52 96       	adiw	r26, 0x12	; 18
    4efc:	8c 91       	ld	r24, X
    4efe:	52 97       	sbiw	r26, 0x12	; 18
    4f00:	81 30       	cpi	r24, 0x01	; 1
    4f02:	01 f5       	brne	.+64     	; 0x4f44 <prvTimerTask+0xca>
    4f04:	1e 96       	adiw	r26, 0x0e	; 14
    4f06:	4d 91       	ld	r20, X+
    4f08:	5d 91       	ld	r21, X+
    4f0a:	6d 91       	ld	r22, X+
    4f0c:	7c 91       	ld	r23, X
    4f0e:	51 97       	sbiw	r26, 0x11	; 17
    4f10:	44 0d       	add	r20, r4
    4f12:	55 1d       	adc	r21, r5
    4f14:	66 1d       	adc	r22, r6
    4f16:	77 1d       	adc	r23, r7
    4f18:	73 01       	movw	r14, r6
    4f1a:	62 01       	movw	r12, r4
    4f1c:	0b 85       	ldd	r16, Y+11	; 0x0b
    4f1e:	1c 85       	ldd	r17, Y+12	; 0x0c
    4f20:	2d 85       	ldd	r18, Y+13	; 0x0d
    4f22:	3e 85       	ldd	r19, Y+14	; 0x0e
    4f24:	c4 01       	movw	r24, r8
    4f26:	0e 94 b4 25 	call	0x4b68	; 0x4b68 <prvInsertTimerInActiveList>
    4f2a:	88 23       	and	r24, r24
    4f2c:	59 f0       	breq	.+22     	; 0x4f44 <prvTimerTask+0xca>
    4f2e:	c1 2c       	mov	r12, r1
    4f30:	d1 2c       	mov	r13, r1
    4f32:	76 01       	movw	r14, r12
    4f34:	00 e0       	ldi	r16, 0x00	; 0
    4f36:	10 e0       	ldi	r17, 0x00	; 0
    4f38:	a3 01       	movw	r20, r6
    4f3a:	92 01       	movw	r18, r4
    4f3c:	60 e0       	ldi	r22, 0x00	; 0
    4f3e:	c4 01       	movw	r24, r8
    4f40:	0e 94 4c 26 	call	0x4c98	; 0x4c98 <xTimerGenericCommand>
    4f44:	d4 01       	movw	r26, r8
    4f46:	55 96       	adiw	r26, 0x15	; 21
    4f48:	ed 91       	ld	r30, X+
    4f4a:	fc 91       	ld	r31, X
    4f4c:	56 97       	sbiw	r26, 0x16	; 22
    4f4e:	c4 01       	movw	r24, r8
    4f50:	19 95       	eicall
    4f52:	9c c0       	rjmp	.+312    	; 0x508c <prvTimerTask+0x212>
    4f54:	20 e0       	ldi	r18, 0x00	; 0
    4f56:	b3 01       	movw	r22, r6
    4f58:	a2 01       	movw	r20, r4
    4f5a:	8b 85       	ldd	r24, Y+11	; 0x0b
    4f5c:	9c 85       	ldd	r25, Y+12	; 0x0c
    4f5e:	ad 85       	ldd	r26, Y+13	; 0x0d
    4f60:	be 85       	ldd	r27, Y+14	; 0x0e
    4f62:	48 1b       	sub	r20, r24
    4f64:	59 0b       	sbc	r21, r25
    4f66:	6a 0b       	sbc	r22, r26
    4f68:	7b 0b       	sbc	r23, r27
    4f6a:	80 91 7a 2d 	lds	r24, 0x2D7A	; 0x802d7a <xTimerQueue>
    4f6e:	90 91 7b 2d 	lds	r25, 0x2D7B	; 0x802d7b <xTimerQueue+0x1>
    4f72:	0e 94 5d 1f 	call	0x3eba	; 0x3eba <vQueueWaitForMessageRestricted>
    4f76:	0e 94 b1 22 	call	0x4562	; 0x4562 <xTaskResumeAll>
    4f7a:	81 11       	cpse	r24, r1
    4f7c:	87 c0       	rjmp	.+270    	; 0x508c <prvTimerTask+0x212>
    4f7e:	0e 94 8a 1b 	call	0x3714	; 0x3714 <vPortYield>
    4f82:	84 c0       	rjmp	.+264    	; 0x508c <prvTimerTask+0x212>
    4f84:	0e 94 b1 22 	call	0x4562	; 0x4562 <xTaskResumeAll>
    4f88:	81 c0       	rjmp	.+258    	; 0x508c <prvTimerTask+0x212>
    4f8a:	89 81       	ldd	r24, Y+1	; 0x01
    4f8c:	88 23       	and	r24, r24
    4f8e:	6c f4       	brge	.+26     	; 0x4faa <prvTimerTask+0x130>
    4f90:	4e 81       	ldd	r20, Y+6	; 0x06
    4f92:	5f 81       	ldd	r21, Y+7	; 0x07
    4f94:	68 85       	ldd	r22, Y+8	; 0x08
    4f96:	79 85       	ldd	r23, Y+9	; 0x09
    4f98:	ea 81       	ldd	r30, Y+2	; 0x02
    4f9a:	fb 81       	ldd	r31, Y+3	; 0x03
    4f9c:	8c 81       	ldd	r24, Y+4	; 0x04
    4f9e:	9d 81       	ldd	r25, Y+5	; 0x05
    4fa0:	19 95       	eicall
    4fa2:	89 81       	ldd	r24, Y+1	; 0x01
    4fa4:	88 23       	and	r24, r24
    4fa6:	0c f4       	brge	.+2      	; 0x4faa <prvTimerTask+0x130>
    4fa8:	71 c0       	rjmp	.+226    	; 0x508c <prvTimerTask+0x212>
    4faa:	8e 80       	ldd	r8, Y+6	; 0x06
    4fac:	9f 80       	ldd	r9, Y+7	; 0x07
    4fae:	d4 01       	movw	r26, r8
    4fb0:	1c 96       	adiw	r26, 0x0c	; 12
    4fb2:	8d 91       	ld	r24, X+
    4fb4:	9c 91       	ld	r25, X
    4fb6:	1d 97       	sbiw	r26, 0x0d	; 13
    4fb8:	89 2b       	or	r24, r25
    4fba:	21 f0       	breq	.+8      	; 0x4fc4 <prvTimerTask+0x14a>
    4fbc:	c4 01       	movw	r24, r8
    4fbe:	02 96       	adiw	r24, 0x02	; 2
    4fc0:	0e 94 9f 1a 	call	0x353e	; 0x353e <uxListRemove>
    4fc4:	ce 01       	movw	r24, r28
    4fc6:	0a 96       	adiw	r24, 0x0a	; 10
    4fc8:	0e 94 a5 26 	call	0x4d4a	; 0x4d4a <prvSampleTimeNow>
    4fcc:	8b 01       	movw	r16, r22
    4fce:	9c 01       	movw	r18, r24
    4fd0:	89 81       	ldd	r24, Y+1	; 0x01
    4fd2:	08 2e       	mov	r0, r24
    4fd4:	00 0c       	add	r0, r0
    4fd6:	99 0b       	sbc	r25, r25
    4fd8:	aa 0b       	sbc	r26, r26
    4fda:	bb 0b       	sbc	r27, r27
    4fdc:	8a 30       	cpi	r24, 0x0A	; 10
    4fde:	91 05       	cpc	r25, r1
    4fe0:	08 f0       	brcs	.+2      	; 0x4fe4 <prvTimerTask+0x16a>
    4fe2:	54 c0       	rjmp	.+168    	; 0x508c <prvTimerTask+0x212>
    4fe4:	fc 01       	movw	r30, r24
    4fe6:	88 27       	eor	r24, r24
    4fe8:	e2 50       	subi	r30, 0x02	; 2
    4fea:	ff 4f       	sbci	r31, 0xFF	; 255
    4fec:	8f 4f       	sbci	r24, 0xFF	; 255
    4fee:	0c 94 96 3f 	jmp	0x7f2c	; 0x7f2c <__tablejump2__>
    4ff2:	ca 80       	ldd	r12, Y+2	; 0x02
    4ff4:	db 80       	ldd	r13, Y+3	; 0x03
    4ff6:	ec 80       	ldd	r14, Y+4	; 0x04
    4ff8:	fd 80       	ldd	r15, Y+5	; 0x05
    4ffa:	f4 01       	movw	r30, r8
    4ffc:	46 85       	ldd	r20, Z+14	; 0x0e
    4ffe:	57 85       	ldd	r21, Z+15	; 0x0f
    5000:	60 89       	ldd	r22, Z+16	; 0x10
    5002:	71 89       	ldd	r23, Z+17	; 0x11
    5004:	4c 0d       	add	r20, r12
    5006:	5d 1d       	adc	r21, r13
    5008:	6e 1d       	adc	r22, r14
    500a:	7f 1d       	adc	r23, r15
    500c:	c4 01       	movw	r24, r8
    500e:	0e 94 b4 25 	call	0x4b68	; 0x4b68 <prvInsertTimerInActiveList>
    5012:	88 23       	and	r24, r24
    5014:	d9 f1       	breq	.+118    	; 0x508c <prvTimerTask+0x212>
    5016:	d4 01       	movw	r26, r8
    5018:	55 96       	adiw	r26, 0x15	; 21
    501a:	ed 91       	ld	r30, X+
    501c:	fc 91       	ld	r31, X
    501e:	56 97       	sbiw	r26, 0x16	; 22
    5020:	c4 01       	movw	r24, r8
    5022:	19 95       	eicall
    5024:	f4 01       	movw	r30, r8
    5026:	82 89       	ldd	r24, Z+18	; 0x12
    5028:	81 30       	cpi	r24, 0x01	; 1
    502a:	81 f5       	brne	.+96     	; 0x508c <prvTimerTask+0x212>
    502c:	4a 81       	ldd	r20, Y+2	; 0x02
    502e:	5b 81       	ldd	r21, Y+3	; 0x03
    5030:	6c 81       	ldd	r22, Y+4	; 0x04
    5032:	7d 81       	ldd	r23, Y+5	; 0x05
    5034:	86 85       	ldd	r24, Z+14	; 0x0e
    5036:	97 85       	ldd	r25, Z+15	; 0x0f
    5038:	a0 89       	ldd	r26, Z+16	; 0x10
    503a:	b1 89       	ldd	r27, Z+17	; 0x11
    503c:	9a 01       	movw	r18, r20
    503e:	ab 01       	movw	r20, r22
    5040:	28 0f       	add	r18, r24
    5042:	39 1f       	adc	r19, r25
    5044:	4a 1f       	adc	r20, r26
    5046:	5b 1f       	adc	r21, r27
    5048:	c1 2c       	mov	r12, r1
    504a:	d1 2c       	mov	r13, r1
    504c:	76 01       	movw	r14, r12
    504e:	00 e0       	ldi	r16, 0x00	; 0
    5050:	10 e0       	ldi	r17, 0x00	; 0
    5052:	60 e0       	ldi	r22, 0x00	; 0
    5054:	c4 01       	movw	r24, r8
    5056:	0e 94 4c 26 	call	0x4c98	; 0x4c98 <xTimerGenericCommand>
    505a:	18 c0       	rjmp	.+48     	; 0x508c <prvTimerTask+0x212>
    505c:	4a 81       	ldd	r20, Y+2	; 0x02
    505e:	5b 81       	ldd	r21, Y+3	; 0x03
    5060:	6c 81       	ldd	r22, Y+4	; 0x04
    5062:	7d 81       	ldd	r23, Y+5	; 0x05
    5064:	d4 01       	movw	r26, r8
    5066:	1e 96       	adiw	r26, 0x0e	; 14
    5068:	4d 93       	st	X+, r20
    506a:	5d 93       	st	X+, r21
    506c:	6d 93       	st	X+, r22
    506e:	7c 93       	st	X, r23
    5070:	51 97       	sbiw	r26, 0x11	; 17
    5072:	40 0f       	add	r20, r16
    5074:	51 1f       	adc	r21, r17
    5076:	62 1f       	adc	r22, r18
    5078:	73 1f       	adc	r23, r19
    507a:	68 01       	movw	r12, r16
    507c:	79 01       	movw	r14, r18
    507e:	c4 01       	movw	r24, r8
    5080:	0e 94 b4 25 	call	0x4b68	; 0x4b68 <prvInsertTimerInActiveList>
    5084:	03 c0       	rjmp	.+6      	; 0x508c <prvTimerTask+0x212>
    5086:	c4 01       	movw	r24, r8
    5088:	0e 94 2b 1a 	call	0x3456	; 0x3456 <vPortFree>
    508c:	20 e0       	ldi	r18, 0x00	; 0
    508e:	30 e0       	ldi	r19, 0x00	; 0
    5090:	a9 01       	movw	r20, r18
    5092:	6a 2d       	mov	r22, r10
    5094:	7b 2d       	mov	r23, r11
    5096:	80 91 7a 2d 	lds	r24, 0x2D7A	; 0x802d7a <xTimerQueue>
    509a:	90 91 7b 2d 	lds	r25, 0x2D7B	; 0x802d7b <xTimerQueue+0x1>
    509e:	0e 94 ab 1e 	call	0x3d56	; 0x3d56 <xQueueReceive>
    50a2:	81 11       	cpse	r24, r1
    50a4:	72 cf       	rjmp	.-284    	; 0x4f8a <prvTimerTask+0x110>
    50a6:	f5 ce       	rjmp	.-534    	; 0x4e92 <prvTimerTask+0x18>
    50a8:	0e 94 c6 21 	call	0x438c	; 0x438c <vTaskSuspendAll>
    50ac:	c1 01       	movw	r24, r2
    50ae:	0e 94 a5 26 	call	0x4d4a	; 0x4d4a <prvSampleTimeNow>
    50b2:	6b 87       	std	Y+11, r22	; 0x0b
    50b4:	7c 87       	std	Y+12, r23	; 0x0c
    50b6:	8d 87       	std	Y+13, r24	; 0x0d
    50b8:	9e 87       	std	Y+14, r25	; 0x0e
    50ba:	89 81       	ldd	r24, Y+1	; 0x01
    50bc:	81 11       	cpse	r24, r1
    50be:	62 cf       	rjmp	.-316    	; 0x4f84 <prvTimerTask+0x10a>
    50c0:	e0 91 7c 2d 	lds	r30, 0x2D7C	; 0x802d7c <pxOverflowTimerList>
    50c4:	f0 91 7d 2d 	lds	r31, 0x2D7D	; 0x802d7d <pxOverflowTimerList+0x1>
    50c8:	80 81       	ld	r24, Z
    50ca:	21 e0       	ldi	r18, 0x01	; 1
    50cc:	81 11       	cpse	r24, r1
    50ce:	20 e0       	ldi	r18, 0x00	; 0
    50d0:	41 2c       	mov	r4, r1
    50d2:	51 2c       	mov	r5, r1
    50d4:	32 01       	movw	r6, r4
    50d6:	3f cf       	rjmp	.-386    	; 0x4f56 <prvTimerTask+0xdc>

000050d8 <xTimerPendFunctionCallFromISR>:
/*-----------------------------------------------------------*/

#if( INCLUDE_xTimerPendFunctionCall == 1 )

	BaseType_t xTimerPendFunctionCallFromISR( PendedFunction_t xFunctionToPend, void *pvParameter1, uint32_t ulParameter2, BaseType_t *pxHigherPriorityTaskWoken )
	{
    50d8:	0f 93       	push	r16
    50da:	1f 93       	push	r17
    50dc:	cf 93       	push	r28
    50de:	df 93       	push	r29
    50e0:	cd b7       	in	r28, 0x3d	; 61
    50e2:	de b7       	in	r29, 0x3e	; 62
    50e4:	29 97       	sbiw	r28, 0x09	; 9
    50e6:	cd bf       	out	0x3d, r28	; 61
    50e8:	de bf       	out	0x3e, r29	; 62
	DaemonTaskMessage_t xMessage;
	BaseType_t xReturn;

		/* Complete the message with the function parameters and post it to the
		daemon task. */
		xMessage.xMessageID = tmrCOMMAND_EXECUTE_CALLBACK_FROM_ISR;
    50ea:	ee ef       	ldi	r30, 0xFE	; 254
    50ec:	e9 83       	std	Y+1, r30	; 0x01
		xMessage.u.xCallbackParameters.pxCallbackFunction = xFunctionToPend;
    50ee:	8a 83       	std	Y+2, r24	; 0x02
    50f0:	9b 83       	std	Y+3, r25	; 0x03
		xMessage.u.xCallbackParameters.pvParameter1 = pvParameter1;
    50f2:	6c 83       	std	Y+4, r22	; 0x04
    50f4:	7d 83       	std	Y+5, r23	; 0x05
		xMessage.u.xCallbackParameters.ulParameter2 = ulParameter2;
    50f6:	2e 83       	std	Y+6, r18	; 0x06
    50f8:	3f 83       	std	Y+7, r19	; 0x07
    50fa:	48 87       	std	Y+8, r20	; 0x08
    50fc:	59 87       	std	Y+9, r21	; 0x09

		xReturn = xQueueSendFromISR( xTimerQueue, &xMessage, pxHigherPriorityTaskWoken );
    50fe:	20 e0       	ldi	r18, 0x00	; 0
    5100:	a8 01       	movw	r20, r16
    5102:	be 01       	movw	r22, r28
    5104:	6f 5f       	subi	r22, 0xFF	; 255
    5106:	7f 4f       	sbci	r23, 0xFF	; 255
    5108:	80 91 7a 2d 	lds	r24, 0x2D7A	; 0x802d7a <xTimerQueue>
    510c:	90 91 7b 2d 	lds	r25, 0x2D7B	; 0x802d7b <xTimerQueue+0x1>
    5110:	0e 94 66 1e 	call	0x3ccc	; 0x3ccc <xQueueGenericSendFromISR>

		tracePEND_FUNC_CALL_FROM_ISR( xFunctionToPend, pvParameter1, ulParameter2, xReturn );

		return xReturn;
	}
    5114:	29 96       	adiw	r28, 0x09	; 9
    5116:	cd bf       	out	0x3d, r28	; 61
    5118:	de bf       	out	0x3e, r29	; 62
    511a:	df 91       	pop	r29
    511c:	cf 91       	pop	r28
    511e:	1f 91       	pop	r17
    5120:	0f 91       	pop	r16
    5122:	08 95       	ret

00005124 <vInitClock>:
#include "clksys_driver.h"


void vInitClock(void)
{
	CLKSYS_Enable( OSC_RC2MEN_bm );
    5124:	e0 e5       	ldi	r30, 0x50	; 80
    5126:	f0 e0       	ldi	r31, 0x00	; 0
    5128:	80 81       	ld	r24, Z
    512a:	81 60       	ori	r24, 0x01	; 1
    512c:	80 83       	st	Z, r24
	do {} while ( CLKSYS_IsReady( OSC_RC2MRDY_bm ) == 0 );
    512e:	81 81       	ldd	r24, Z+1	; 0x01
    5130:	80 ff       	sbrs	r24, 0
    5132:	fd cf       	rjmp	.-6      	; 0x512e <vInitClock+0xa>
	CLKSYS_Main_ClockSource_Select( CLK_SCLKSEL_RC2M_gc );
    5134:	80 e0       	ldi	r24, 0x00	; 0
    5136:	0e 94 28 18 	call	0x3050	; 0x3050 <CLKSYS_Main_ClockSource_Select>
	CLKSYS_Disable( OSC_RC32MEN_bm | OSC_RC32KEN_bm | OSC_XOSCEN_bm | OSC_PLLEN_bm);
    513a:	8e e1       	ldi	r24, 0x1E	; 30
    513c:	0e 94 18 18 	call	0x3030	; 0x3030 <CLKSYS_Disable>
	CLKSYS_Prescalers_Config( CLK_PSADIV_1_gc, CLK_PSBCDIV_1_1_gc );
    5140:	60 e0       	ldi	r22, 0x00	; 0
    5142:	80 e0       	ldi	r24, 0x00	; 0
    5144:	0e 94 22 18 	call	0x3044	; 0x3044 <CLKSYS_Prescalers_Config>
	CLKSYS_XOSC_Config( OSC_FRQRANGE_2TO9_gc,false,OSC_XOSCSEL_XTAL_256CLK_gc );
    5148:	43 e0       	ldi	r20, 0x03	; 3
    514a:	60 e0       	ldi	r22, 0x00	; 0
    514c:	80 e4       	ldi	r24, 0x40	; 64
    514e:	0e 94 09 18 	call	0x3012	; 0x3012 <CLKSYS_XOSC_Config>
	CLKSYS_Enable( OSC_XOSCEN_bm );
    5152:	e0 e5       	ldi	r30, 0x50	; 80
    5154:	f0 e0       	ldi	r31, 0x00	; 0
    5156:	80 81       	ld	r24, Z
    5158:	88 60       	ori	r24, 0x08	; 8
    515a:	80 83       	st	Z, r24
	do {} while ( CLKSYS_IsReady( OSC_XOSCRDY_bm ) == 0 );
    515c:	81 81       	ldd	r24, Z+1	; 0x01
    515e:	83 ff       	sbrs	r24, 3
    5160:	fd cf       	rjmp	.-6      	; 0x515c <vInitClock+0x38>
	CLKSYS_PLL_Config( OSC_PLLSRC_XOSC_gc, 4 );
    5162:	64 e0       	ldi	r22, 0x04	; 4
    5164:	80 ec       	ldi	r24, 0xC0	; 192
    5166:	0e 94 13 18 	call	0x3026	; 0x3026 <CLKSYS_PLL_Config>
	CLKSYS_Enable( OSC_PLLEN_bm );
    516a:	e0 e5       	ldi	r30, 0x50	; 80
    516c:	f0 e0       	ldi	r31, 0x00	; 0
    516e:	80 81       	ld	r24, Z
    5170:	80 61       	ori	r24, 0x10	; 16
    5172:	80 83       	st	Z, r24
	CLKSYS_Prescalers_Config( CLK_PSADIV_1_gc, CLK_PSBCDIV_1_1_gc );
    5174:	60 e0       	ldi	r22, 0x00	; 0
    5176:	80 e0       	ldi	r24, 0x00	; 0
    5178:	0e 94 22 18 	call	0x3044	; 0x3044 <CLKSYS_Prescalers_Config>
	do {} while ( CLKSYS_IsReady( OSC_PLLRDY_bm ) == 0 );
    517c:	e0 e5       	ldi	r30, 0x50	; 80
    517e:	f0 e0       	ldi	r31, 0x00	; 0
    5180:	81 81       	ldd	r24, Z+1	; 0x01
    5182:	84 ff       	sbrs	r24, 4
    5184:	fd cf       	rjmp	.-6      	; 0x5180 <vInitClock+0x5c>
	CLKSYS_Main_ClockSource_Select( CLK_SCLKSEL_PLL_gc );
    5186:	84 e0       	ldi	r24, 0x04	; 4
    5188:	0e 94 28 18 	call	0x3050	; 0x3050 <CLKSYS_Main_ClockSource_Select>
	CLKSYS_Disable( OSC_RC32MEN_bm | OSC_RC2MEN_bm | OSC_RC32KEN_bm);
    518c:	87 e0       	ldi	r24, 0x07	; 7
    518e:	0e 94 18 18 	call	0x3030	; 0x3030 <CLKSYS_Disable>
    5192:	08 95       	ret

00005194 <vAlgorithmus1>:

/*--------------------------------------------------------------------------------------*/
/* Algorithmus 1: PI Berechnen mit der Leibniz Reihe */
/*--------------------------------------------------------------------------------------*/

void vAlgorithmus1(void *pvParameters) {
    5194:	2f 92       	push	r2
    5196:	3f 92       	push	r3
    5198:	6f 92       	push	r6
    519a:	7f 92       	push	r7
    519c:	8f 92       	push	r8
    519e:	9f 92       	push	r9
    51a0:	af 92       	push	r10
    51a2:	bf 92       	push	r11
    51a4:	cf 92       	push	r12
    51a6:	df 92       	push	r13
    51a8:	ef 92       	push	r14
    51aa:	ff 92       	push	r15
    51ac:	0f 93       	push	r16
    51ae:	1f 93       	push	r17
    51b0:	cf 93       	push	r28
    51b2:	df 93       	push	r29
    51b4:	00 d0       	rcall	.+0      	; 0x51b6 <vAlgorithmus1+0x22>
    51b6:	00 d0       	rcall	.+0      	; 0x51b8 <vAlgorithmus1+0x24>
    51b8:	cd b7       	in	r28, 0x3d	; 61
    51ba:	de b7       	in	r29, 0x3e	; 62
	(void) pvParameters;
	for(i=0;i<9999999;i++) 
    51bc:	10 92 d8 2d 	sts	0x2DD8, r1	; 0x802dd8 <i>
    51c0:	10 92 d9 2d 	sts	0x2DD9, r1	; 0x802dd9 <i+0x1>
    51c4:	10 92 da 2d 	sts	0x2DDA, r1	; 0x802dda <i+0x2>
    51c8:	10 92 db 2d 	sts	0x2DDB, r1	; 0x802ddb <i+0x3>
    51cc:	10 92 dc 2d 	sts	0x2DDC, r1	; 0x802ddc <i+0x4>
    51d0:	10 92 dd 2d 	sts	0x2DDD, r1	; 0x802ddd <i+0x5>
    51d4:	10 92 de 2d 	sts	0x2DDE, r1	; 0x802dde <i+0x6>
    51d8:	10 92 df 2d 	sts	0x2DDF, r1	; 0x802ddf <i+0x7>
	{
		xEventGroupWaitBits(xSettings,1,pdFALSE,pdFALSE,portMAX_DELAY);
    51dc:	cc 24       	eor	r12, r12
    51de:	ca 94       	dec	r12
    51e0:	dc 2c       	mov	r13, r12
    51e2:	76 01       	movw	r14, r12
    51e4:	00 e0       	ldi	r16, 0x00	; 0
    51e6:	20 e0       	ldi	r18, 0x00	; 0
    51e8:	41 e0       	ldi	r20, 0x01	; 1
    51ea:	50 e0       	ldi	r21, 0x00	; 0
    51ec:	60 e0       	ldi	r22, 0x00	; 0
    51ee:	70 e0       	ldi	r23, 0x00	; 0
    51f0:	80 91 2d 2e 	lds	r24, 0x2E2D	; 0x802e2d <xSettings>
    51f4:	90 91 2e 2e 	lds	r25, 0x2E2E	; 0x802e2e <xSettings+0x1>
    51f8:	0e 94 6e 18 	call	0x30dc	; 0x30dc <xEventGroupWaitBits>
		ulPI4 = (ulPI4-(1.0/(3+i*4))+(1.0/(5+i*4)));
    51fc:	d0 90 d8 2d 	lds	r13, 0x2DD8	; 0x802dd8 <i>
    5200:	e0 90 d9 2d 	lds	r14, 0x2DD9	; 0x802dd9 <i+0x1>
    5204:	f0 90 da 2d 	lds	r15, 0x2DDA	; 0x802dda <i+0x2>
    5208:	10 91 db 2d 	lds	r17, 0x2DDB	; 0x802ddb <i+0x3>
    520c:	80 91 dc 2d 	lds	r24, 0x2DDC	; 0x802ddc <i+0x4>
    5210:	8e 83       	std	Y+6, r24	; 0x06
    5212:	e0 91 dd 2d 	lds	r30, 0x2DDD	; 0x802ddd <i+0x5>
    5216:	ed 83       	std	Y+5, r30	; 0x05
    5218:	60 90 de 2d 	lds	r6, 0x2DDE	; 0x802dde <i+0x6>
    521c:	70 90 df 2d 	lds	r7, 0x2DDF	; 0x802ddf <i+0x7>
    5220:	2d 2d       	mov	r18, r13
    5222:	3e 2d       	mov	r19, r14
    5224:	4f 2d       	mov	r20, r15
    5226:	51 2f       	mov	r21, r17
    5228:	68 2f       	mov	r22, r24
    522a:	7e 2f       	mov	r23, r30
    522c:	86 2d       	mov	r24, r6
    522e:	97 2d       	mov	r25, r7
    5230:	02 e0       	ldi	r16, 0x02	; 2
    5232:	0e 94 07 40 	call	0x800e	; 0x800e <__ashldi3>
    5236:	22 2e       	mov	r2, r18
    5238:	33 2e       	mov	r3, r19
    523a:	84 2e       	mov	r8, r20
    523c:	95 2e       	mov	r9, r21
    523e:	a6 2e       	mov	r10, r22
    5240:	b7 2e       	mov	r11, r23
    5242:	c8 2e       	mov	r12, r24
    5244:	09 2f       	mov	r16, r25
    5246:	a3 e0       	ldi	r26, 0x03	; 3
    5248:	0e 94 47 40 	call	0x808e	; 0x808e <__adddi3_s8>
    524c:	0e 94 dd 38 	call	0x71ba	; 0x71ba <__floatundisf>
    5250:	9b 01       	movw	r18, r22
    5252:	ac 01       	movw	r20, r24
    5254:	60 e0       	ldi	r22, 0x00	; 0
    5256:	70 e0       	ldi	r23, 0x00	; 0
    5258:	80 e8       	ldi	r24, 0x80	; 128
    525a:	9f e3       	ldi	r25, 0x3F	; 63
    525c:	0e 94 f8 37 	call	0x6ff0	; 0x6ff0 <__divsf3>
    5260:	9b 01       	movw	r18, r22
    5262:	ac 01       	movw	r20, r24
    5264:	60 91 18 20 	lds	r22, 0x2018	; 0x802018 <ulPI4>
    5268:	70 91 19 20 	lds	r23, 0x2019	; 0x802019 <ulPI4+0x1>
    526c:	80 91 1a 20 	lds	r24, 0x201A	; 0x80201a <ulPI4+0x2>
    5270:	90 91 1b 20 	lds	r25, 0x201B	; 0x80201b <ulPI4+0x3>
    5274:	0e 94 86 37 	call	0x6f0c	; 0x6f0c <__subsf3>
    5278:	69 83       	std	Y+1, r22	; 0x01
    527a:	7a 83       	std	Y+2, r23	; 0x02
    527c:	8b 83       	std	Y+3, r24	; 0x03
    527e:	9c 83       	std	Y+4, r25	; 0x04
    5280:	22 2d       	mov	r18, r2
    5282:	33 2d       	mov	r19, r3
    5284:	48 2d       	mov	r20, r8
    5286:	59 2d       	mov	r21, r9
    5288:	6a 2d       	mov	r22, r10
    528a:	7b 2d       	mov	r23, r11
    528c:	8c 2d       	mov	r24, r12
    528e:	90 2f       	mov	r25, r16
    5290:	a5 e0       	ldi	r26, 0x05	; 5
    5292:	0e 94 47 40 	call	0x808e	; 0x808e <__adddi3_s8>
    5296:	0e 94 dd 38 	call	0x71ba	; 0x71ba <__floatundisf>
    529a:	9b 01       	movw	r18, r22
    529c:	ac 01       	movw	r20, r24
    529e:	60 e0       	ldi	r22, 0x00	; 0
    52a0:	70 e0       	ldi	r23, 0x00	; 0
    52a2:	80 e8       	ldi	r24, 0x80	; 128
    52a4:	9f e3       	ldi	r25, 0x3F	; 63
    52a6:	0e 94 f8 37 	call	0x6ff0	; 0x6ff0 <__divsf3>
    52aa:	9b 01       	movw	r18, r22
    52ac:	ac 01       	movw	r20, r24
    52ae:	69 81       	ldd	r22, Y+1	; 0x01
    52b0:	7a 81       	ldd	r23, Y+2	; 0x02
    52b2:	8b 81       	ldd	r24, Y+3	; 0x03
    52b4:	9c 81       	ldd	r25, Y+4	; 0x04
    52b6:	0e 94 87 37 	call	0x6f0e	; 0x6f0e <__addsf3>
    52ba:	60 93 18 20 	sts	0x2018, r22	; 0x802018 <ulPI4>
    52be:	70 93 19 20 	sts	0x2019, r23	; 0x802019 <ulPI4+0x1>
    52c2:	80 93 1a 20 	sts	0x201A, r24	; 0x80201a <ulPI4+0x2>
    52c6:	90 93 1b 20 	sts	0x201B, r25	; 0x80201b <ulPI4+0x3>
		ulPI = ulPI4 *4;	
    52ca:	20 e0       	ldi	r18, 0x00	; 0
    52cc:	30 e0       	ldi	r19, 0x00	; 0
    52ce:	40 e8       	ldi	r20, 0x80	; 128
    52d0:	50 e4       	ldi	r21, 0x40	; 64
    52d2:	0e 94 95 39 	call	0x732a	; 0x732a <__mulsf3>
    52d6:	60 93 1c 20 	sts	0x201C, r22	; 0x80201c <ulPI>
    52da:	70 93 1d 20 	sts	0x201D, r23	; 0x80201d <ulPI+0x1>
    52de:	80 93 1e 20 	sts	0x201E, r24	; 0x80201e <ulPI+0x2>
    52e2:	90 93 1f 20 	sts	0x201F, r25	; 0x80201f <ulPI+0x3>
/* Algorithmus 1: PI Berechnen mit der Leibniz Reihe */
/*--------------------------------------------------------------------------------------*/

void vAlgorithmus1(void *pvParameters) {
	(void) pvParameters;
	for(i=0;i<9999999;i++) 
    52e6:	2d 2d       	mov	r18, r13
    52e8:	3e 2d       	mov	r19, r14
    52ea:	4f 2d       	mov	r20, r15
    52ec:	51 2f       	mov	r21, r17
    52ee:	6e 81       	ldd	r22, Y+6	; 0x06
    52f0:	7d 81       	ldd	r23, Y+5	; 0x05
    52f2:	86 2d       	mov	r24, r6
    52f4:	97 2d       	mov	r25, r7
    52f6:	a1 e0       	ldi	r26, 0x01	; 1
    52f8:	0e 94 47 40 	call	0x808e	; 0x808e <__adddi3_s8>
    52fc:	20 93 d8 2d 	sts	0x2DD8, r18	; 0x802dd8 <i>
    5300:	30 93 d9 2d 	sts	0x2DD9, r19	; 0x802dd9 <i+0x1>
    5304:	40 93 da 2d 	sts	0x2DDA, r20	; 0x802dda <i+0x2>
    5308:	50 93 db 2d 	sts	0x2DDB, r21	; 0x802ddb <i+0x3>
    530c:	60 93 dc 2d 	sts	0x2DDC, r22	; 0x802ddc <i+0x4>
    5310:	70 93 dd 2d 	sts	0x2DDD, r23	; 0x802ddd <i+0x5>
    5314:	80 93 de 2d 	sts	0x2DDE, r24	; 0x802dde <i+0x6>
    5318:	90 93 df 2d 	sts	0x2DDF, r25	; 0x802ddf <i+0x7>
    531c:	2e 37       	cpi	r18, 0x7E	; 126
    531e:	36 49       	sbci	r19, 0x96	; 150
    5320:	48 49       	sbci	r20, 0x98	; 152
    5322:	51 05       	cpc	r21, r1
    5324:	61 05       	cpc	r22, r1
    5326:	71 05       	cpc	r23, r1
    5328:	81 05       	cpc	r24, r1
    532a:	91 05       	cpc	r25, r1
    532c:	09 f0       	breq	.+2      	; 0x5330 <vAlgorithmus1+0x19c>
    532e:	08 f4       	brcc	.+2      	; 0x5332 <vAlgorithmus1+0x19e>
    5330:	55 cf       	rjmp	.-342    	; 0x51dc <vAlgorithmus1+0x48>
	{
		xEventGroupWaitBits(xSettings,1,pdFALSE,pdFALSE,portMAX_DELAY);
		ulPI4 = (ulPI4-(1.0/(3+i*4))+(1.0/(5+i*4)));
		ulPI = ulPI4 *4;	
	}
}
    5332:	26 96       	adiw	r28, 0x06	; 6
    5334:	cd bf       	out	0x3d, r28	; 61
    5336:	de bf       	out	0x3e, r29	; 62
    5338:	df 91       	pop	r29
    533a:	cf 91       	pop	r28
    533c:	1f 91       	pop	r17
    533e:	0f 91       	pop	r16
    5340:	ff 90       	pop	r15
    5342:	ef 90       	pop	r14
    5344:	df 90       	pop	r13
    5346:	cf 90       	pop	r12
    5348:	bf 90       	pop	r11
    534a:	af 90       	pop	r10
    534c:	9f 90       	pop	r9
    534e:	8f 90       	pop	r8
    5350:	7f 90       	pop	r7
    5352:	6f 90       	pop	r6
    5354:	3f 90       	pop	r3
    5356:	2f 90       	pop	r2
    5358:	08 95       	ret

0000535a <vAlgorithmus2>:

/*--------------------------------------------------------------------------------------*/
/* Algorithmus 2: PI Berechnen mit der Gauss-Legendre Reihe */
/*--------------------------------------------------------------------------------------*/

void vAlgorithmus2(void *pvParameters) {
    535a:	2f 92       	push	r2
    535c:	3f 92       	push	r3
    535e:	4f 92       	push	r4
    5360:	5f 92       	push	r5
    5362:	6f 92       	push	r6
    5364:	7f 92       	push	r7
    5366:	8f 92       	push	r8
    5368:	9f 92       	push	r9
    536a:	af 92       	push	r10
    536c:	bf 92       	push	r11
    536e:	cf 92       	push	r12
    5370:	df 92       	push	r13
    5372:	ef 92       	push	r14
    5374:	ff 92       	push	r15
    5376:	0f 93       	push	r16
    5378:	1f 93       	push	r17
    537a:	cf 93       	push	r28
    537c:	df 93       	push	r29
    537e:	cd b7       	in	r28, 0x3d	; 61
    5380:	de b7       	in	r29, 0x3e	; 62
    5382:	2c 97       	sbiw	r28, 0x0c	; 12
    5384:	cd bf       	out	0x3d, r28	; 61
    5386:	de bf       	out	0x3e, r29	; 62
	(void) pvParameters;

	vTaskSuspend( Algorytmus2 );
    5388:	80 91 1d 2e 	lds	r24, 0x2E1D	; 0x802e1d <Algorytmus2>
    538c:	90 91 1e 2e 	lds	r25, 0x2E1E	; 0x802e1e <Algorytmus2+0x1>
    5390:	0e 94 dd 23 	call	0x47ba	; 0x47ba <vTaskSuspend>
	
	for(i=0;i<99999999;i++)
    5394:	10 92 d8 2d 	sts	0x2DD8, r1	; 0x802dd8 <i>
    5398:	10 92 d9 2d 	sts	0x2DD9, r1	; 0x802dd9 <i+0x1>
    539c:	10 92 da 2d 	sts	0x2DDA, r1	; 0x802dda <i+0x2>
    53a0:	10 92 db 2d 	sts	0x2DDB, r1	; 0x802ddb <i+0x3>
    53a4:	10 92 dc 2d 	sts	0x2DDC, r1	; 0x802ddc <i+0x4>
    53a8:	10 92 dd 2d 	sts	0x2DDD, r1	; 0x802ddd <i+0x5>
    53ac:	10 92 de 2d 	sts	0x2DDE, r1	; 0x802dde <i+0x6>
    53b0:	10 92 df 2d 	sts	0x2DDF, r1	; 0x802ddf <i+0x7>
	{
		xEventGroupWaitBits(xSettings,1,pdFALSE,pdFALSE,portMAX_DELAY);
    53b4:	cc 24       	eor	r12, r12
    53b6:	ca 94       	dec	r12
    53b8:	dc 2c       	mov	r13, r12
    53ba:	76 01       	movw	r14, r12
    53bc:	00 e0       	ldi	r16, 0x00	; 0
    53be:	20 e0       	ldi	r18, 0x00	; 0
    53c0:	41 e0       	ldi	r20, 0x01	; 1
    53c2:	50 e0       	ldi	r21, 0x00	; 0
    53c4:	60 e0       	ldi	r22, 0x00	; 0
    53c6:	70 e0       	ldi	r23, 0x00	; 0
    53c8:	80 91 2d 2e 	lds	r24, 0x2E2D	; 0x802e2d <xSettings>
    53cc:	90 91 2e 2e 	lds	r25, 0x2E2E	; 0x802e2e <xSettings+0x1>
    53d0:	0e 94 6e 18 	call	0x30dc	; 0x30dc <xEventGroupWaitBits>
		
		if (i < 25)
    53d4:	10 91 d8 2d 	lds	r17, 0x2DD8	; 0x802dd8 <i>
    53d8:	80 91 d9 2d 	lds	r24, 0x2DD9	; 0x802dd9 <i+0x1>
    53dc:	8c 87       	std	Y+12, r24	; 0x0c
    53de:	90 91 da 2d 	lds	r25, 0x2DDA	; 0x802dda <i+0x2>
    53e2:	9b 87       	std	Y+11, r25	; 0x0b
    53e4:	00 91 db 2d 	lds	r16, 0x2DDB	; 0x802ddb <i+0x3>
    53e8:	30 90 dc 2d 	lds	r3, 0x2DDC	; 0x802ddc <i+0x4>
    53ec:	20 90 dd 2d 	lds	r2, 0x2DDD	; 0x802ddd <i+0x5>
    53f0:	a0 91 de 2d 	lds	r26, 0x2DDE	; 0x802dde <i+0x6>
    53f4:	a9 83       	std	Y+1, r26	; 0x01
    53f6:	b0 91 df 2d 	lds	r27, 0x2DDF	; 0x802ddf <i+0x7>
    53fa:	ba 83       	std	Y+2, r27	; 0x02
    53fc:	21 2f       	mov	r18, r17
    53fe:	38 2f       	mov	r19, r24
    5400:	49 2f       	mov	r20, r25
    5402:	50 2f       	mov	r21, r16
    5404:	63 2d       	mov	r22, r3
    5406:	72 2d       	mov	r23, r2
    5408:	8a 2f       	mov	r24, r26
    540a:	9b 2f       	mov	r25, r27
    540c:	a8 e1       	ldi	r26, 0x18	; 24
    540e:	0e 94 65 40 	call	0x80ca	; 0x80ca <__cmpdi2_s8>
    5412:	11 f0       	breq	.+4      	; 0x5418 <vAlgorithmus2+0xbe>
    5414:	08 f0       	brcs	.+2      	; 0x5418 <vAlgorithmus2+0xbe>
    5416:	a8 c0       	rjmp	.+336    	; 0x5568 <vAlgorithmus2+0x20e>
		{
			ulA = (ula+ulb)/2;
    5418:	80 90 10 20 	lds	r8, 0x2010	; 0x802010 <ula>
    541c:	90 90 11 20 	lds	r9, 0x2011	; 0x802011 <ula+0x1>
    5420:	a0 90 12 20 	lds	r10, 0x2012	; 0x802012 <ula+0x2>
    5424:	b0 90 13 20 	lds	r11, 0x2013	; 0x802013 <ula+0x3>
    5428:	40 90 0c 20 	lds	r4, 0x200C	; 0x80200c <ulb>
    542c:	50 90 0d 20 	lds	r5, 0x200D	; 0x80200d <ulb+0x1>
    5430:	60 90 0e 20 	lds	r6, 0x200E	; 0x80200e <ulb+0x2>
    5434:	70 90 0f 20 	lds	r7, 0x200F	; 0x80200f <ulb+0x3>
    5438:	a3 01       	movw	r20, r6
    543a:	92 01       	movw	r18, r4
    543c:	c5 01       	movw	r24, r10
    543e:	b4 01       	movw	r22, r8
    5440:	0e 94 87 37 	call	0x6f0e	; 0x6f0e <__addsf3>
    5444:	20 e0       	ldi	r18, 0x00	; 0
    5446:	30 e0       	ldi	r19, 0x00	; 0
    5448:	40 e0       	ldi	r20, 0x00	; 0
    544a:	5f e3       	ldi	r21, 0x3F	; 63
    544c:	0e 94 95 39 	call	0x732a	; 0x732a <__mulsf3>
    5450:	6b 01       	movw	r12, r22
    5452:	7c 01       	movw	r14, r24
    5454:	60 93 ce 2d 	sts	0x2DCE, r22	; 0x802dce <ulA>
    5458:	70 93 cf 2d 	sts	0x2DCF, r23	; 0x802dcf <ulA+0x1>
    545c:	80 93 d0 2d 	sts	0x2DD0, r24	; 0x802dd0 <ulA+0x2>
    5460:	90 93 d1 2d 	sts	0x2DD1, r25	; 0x802dd1 <ulA+0x3>
			ulB = sqrt(ula*ulb);
    5464:	a3 01       	movw	r20, r6
    5466:	92 01       	movw	r18, r4
    5468:	c5 01       	movw	r24, r10
    546a:	b4 01       	movw	r22, r8
    546c:	0e 94 95 39 	call	0x732a	; 0x732a <__mulsf3>
    5470:	0e 94 58 3a 	call	0x74b0	; 0x74b0 <sqrt>
    5474:	2b 01       	movw	r4, r22
    5476:	3c 01       	movw	r6, r24
    5478:	60 93 ca 2d 	sts	0x2DCA, r22	; 0x802dca <ulB>
    547c:	70 93 cb 2d 	sts	0x2DCB, r23	; 0x802dcb <ulB+0x1>
    5480:	80 93 cc 2d 	sts	0x2DCC, r24	; 0x802dcc <ulB+0x2>
    5484:	90 93 cd 2d 	sts	0x2DCD, r25	; 0x802dcd <ulB+0x3>
			ulS = uls-(pow(2,i)*pow((ula-ulA),2));
    5488:	80 91 08 20 	lds	r24, 0x2008	; 0x802008 <uls>
    548c:	90 91 09 20 	lds	r25, 0x2009	; 0x802009 <uls+0x1>
    5490:	a0 91 0a 20 	lds	r26, 0x200A	; 0x80200a <uls+0x2>
    5494:	b0 91 0b 20 	lds	r27, 0x200B	; 0x80200b <uls+0x3>
    5498:	8b 83       	std	Y+3, r24	; 0x03
    549a:	9c 83       	std	Y+4, r25	; 0x04
    549c:	ad 83       	std	Y+5, r26	; 0x05
    549e:	be 83       	std	Y+6, r27	; 0x06
    54a0:	21 2f       	mov	r18, r17
    54a2:	3c 85       	ldd	r19, Y+12	; 0x0c
    54a4:	4b 85       	ldd	r20, Y+11	; 0x0b
    54a6:	50 2f       	mov	r21, r16
    54a8:	63 2d       	mov	r22, r3
    54aa:	72 2d       	mov	r23, r2
    54ac:	89 81       	ldd	r24, Y+1	; 0x01
    54ae:	9a 81       	ldd	r25, Y+2	; 0x02
    54b0:	0e 94 dd 38 	call	0x71ba	; 0x71ba <__floatundisf>
    54b4:	9b 01       	movw	r18, r22
    54b6:	ac 01       	movw	r20, r24
    54b8:	60 e0       	ldi	r22, 0x00	; 0
    54ba:	70 e0       	ldi	r23, 0x00	; 0
    54bc:	80 e0       	ldi	r24, 0x00	; 0
    54be:	90 e4       	ldi	r25, 0x40	; 64
    54c0:	0e 94 02 3a 	call	0x7404	; 0x7404 <pow>
    54c4:	6f 83       	std	Y+7, r22	; 0x07
    54c6:	78 87       	std	Y+8, r23	; 0x08
    54c8:	89 87       	std	Y+9, r24	; 0x09
    54ca:	9a 87       	std	Y+10, r25	; 0x0a
    54cc:	a7 01       	movw	r20, r14
    54ce:	96 01       	movw	r18, r12
    54d0:	c5 01       	movw	r24, r10
    54d2:	b4 01       	movw	r22, r8
    54d4:	0e 94 86 37 	call	0x6f0c	; 0x6f0c <__subsf3>
    54d8:	9b 01       	movw	r18, r22
    54da:	ac 01       	movw	r20, r24
    54dc:	0e 94 95 39 	call	0x732a	; 0x732a <__mulsf3>
    54e0:	2f 81       	ldd	r18, Y+7	; 0x07
    54e2:	38 85       	ldd	r19, Y+8	; 0x08
    54e4:	49 85       	ldd	r20, Y+9	; 0x09
    54e6:	5a 85       	ldd	r21, Y+10	; 0x0a
    54e8:	0e 94 95 39 	call	0x732a	; 0x732a <__mulsf3>
    54ec:	9b 01       	movw	r18, r22
    54ee:	ac 01       	movw	r20, r24
    54f0:	6b 81       	ldd	r22, Y+3	; 0x03
    54f2:	7c 81       	ldd	r23, Y+4	; 0x04
    54f4:	8d 81       	ldd	r24, Y+5	; 0x05
    54f6:	9e 81       	ldd	r25, Y+6	; 0x06
    54f8:	0e 94 86 37 	call	0x6f0c	; 0x6f0c <__subsf3>
    54fc:	4b 01       	movw	r8, r22
    54fe:	5c 01       	movw	r10, r24
    5500:	60 93 c6 2d 	sts	0x2DC6, r22	; 0x802dc6 <ulS>
    5504:	70 93 c7 2d 	sts	0x2DC7, r23	; 0x802dc7 <ulS+0x1>
    5508:	80 93 c8 2d 	sts	0x2DC8, r24	; 0x802dc8 <ulS+0x2>
    550c:	90 93 c9 2d 	sts	0x2DC9, r25	; 0x802dc9 <ulS+0x3>
			ulPI = pow(ulA,2)/uls;
    5510:	a7 01       	movw	r20, r14
    5512:	96 01       	movw	r18, r12
    5514:	c7 01       	movw	r24, r14
    5516:	b6 01       	movw	r22, r12
    5518:	0e 94 95 39 	call	0x732a	; 0x732a <__mulsf3>
    551c:	2b 81       	ldd	r18, Y+3	; 0x03
    551e:	3c 81       	ldd	r19, Y+4	; 0x04
    5520:	4d 81       	ldd	r20, Y+5	; 0x05
    5522:	5e 81       	ldd	r21, Y+6	; 0x06
    5524:	0e 94 f8 37 	call	0x6ff0	; 0x6ff0 <__divsf3>
    5528:	60 93 1c 20 	sts	0x201C, r22	; 0x80201c <ulPI>
    552c:	70 93 1d 20 	sts	0x201D, r23	; 0x80201d <ulPI+0x1>
    5530:	80 93 1e 20 	sts	0x201E, r24	; 0x80201e <ulPI+0x2>
    5534:	90 93 1f 20 	sts	0x201F, r25	; 0x80201f <ulPI+0x3>
			ula = ulA;
    5538:	c0 92 10 20 	sts	0x2010, r12	; 0x802010 <ula>
    553c:	d0 92 11 20 	sts	0x2011, r13	; 0x802011 <ula+0x1>
    5540:	e0 92 12 20 	sts	0x2012, r14	; 0x802012 <ula+0x2>
    5544:	f0 92 13 20 	sts	0x2013, r15	; 0x802013 <ula+0x3>
			ulb = ulB;
    5548:	40 92 0c 20 	sts	0x200C, r4	; 0x80200c <ulb>
    554c:	50 92 0d 20 	sts	0x200D, r5	; 0x80200d <ulb+0x1>
    5550:	60 92 0e 20 	sts	0x200E, r6	; 0x80200e <ulb+0x2>
    5554:	70 92 0f 20 	sts	0x200F, r7	; 0x80200f <ulb+0x3>
			uls = ulS;
    5558:	80 92 08 20 	sts	0x2008, r8	; 0x802008 <uls>
    555c:	90 92 09 20 	sts	0x2009, r9	; 0x802009 <uls+0x1>
    5560:	a0 92 0a 20 	sts	0x200A, r10	; 0x80200a <uls+0x2>
    5564:	b0 92 0b 20 	sts	0x200B, r11	; 0x80200b <uls+0x3>
void vAlgorithmus2(void *pvParameters) {
	(void) pvParameters;

	vTaskSuspend( Algorytmus2 );
	
	for(i=0;i<99999999;i++)
    5568:	21 2f       	mov	r18, r17
    556a:	3c 85       	ldd	r19, Y+12	; 0x0c
    556c:	4b 85       	ldd	r20, Y+11	; 0x0b
    556e:	50 2f       	mov	r21, r16
    5570:	63 2d       	mov	r22, r3
    5572:	72 2d       	mov	r23, r2
    5574:	89 81       	ldd	r24, Y+1	; 0x01
    5576:	9a 81       	ldd	r25, Y+2	; 0x02
    5578:	a1 e0       	ldi	r26, 0x01	; 1
    557a:	0e 94 47 40 	call	0x808e	; 0x808e <__adddi3_s8>
    557e:	20 93 d8 2d 	sts	0x2DD8, r18	; 0x802dd8 <i>
    5582:	30 93 d9 2d 	sts	0x2DD9, r19	; 0x802dd9 <i+0x1>
    5586:	40 93 da 2d 	sts	0x2DDA, r20	; 0x802dda <i+0x2>
    558a:	50 93 db 2d 	sts	0x2DDB, r21	; 0x802ddb <i+0x3>
    558e:	60 93 dc 2d 	sts	0x2DDC, r22	; 0x802ddc <i+0x4>
    5592:	70 93 dd 2d 	sts	0x2DDD, r23	; 0x802ddd <i+0x5>
    5596:	80 93 de 2d 	sts	0x2DDE, r24	; 0x802dde <i+0x6>
    559a:	90 93 df 2d 	sts	0x2DDF, r25	; 0x802ddf <i+0x7>
    559e:	2e 3f       	cpi	r18, 0xFE	; 254
    55a0:	30 4e       	sbci	r19, 0xE0	; 224
    55a2:	45 4f       	sbci	r20, 0xF5	; 245
    55a4:	55 40       	sbci	r21, 0x05	; 5
    55a6:	61 05       	cpc	r22, r1
    55a8:	71 05       	cpc	r23, r1
    55aa:	81 05       	cpc	r24, r1
    55ac:	91 05       	cpc	r25, r1
    55ae:	09 f0       	breq	.+2      	; 0x55b2 <vAlgorithmus2+0x258>
    55b0:	08 f4       	brcc	.+2      	; 0x55b4 <vAlgorithmus2+0x25a>
    55b2:	00 cf       	rjmp	.-512    	; 0x53b4 <vAlgorithmus2+0x5a>
			ula = ulA;
			ulb = ulB;
			uls = ulS;
		}
	}
}
    55b4:	2c 96       	adiw	r28, 0x0c	; 12
    55b6:	cd bf       	out	0x3d, r28	; 61
    55b8:	de bf       	out	0x3e, r29	; 62
    55ba:	df 91       	pop	r29
    55bc:	cf 91       	pop	r28
    55be:	1f 91       	pop	r17
    55c0:	0f 91       	pop	r16
    55c2:	ff 90       	pop	r15
    55c4:	ef 90       	pop	r14
    55c6:	df 90       	pop	r13
    55c8:	cf 90       	pop	r12
    55ca:	bf 90       	pop	r11
    55cc:	af 90       	pop	r10
    55ce:	9f 90       	pop	r9
    55d0:	8f 90       	pop	r8
    55d2:	7f 90       	pop	r7
    55d4:	6f 90       	pop	r6
    55d6:	5f 90       	pop	r5
    55d8:	4f 90       	pop	r4
    55da:	3f 90       	pop	r3
    55dc:	2f 90       	pop	r2
    55de:	08 95       	ret

000055e0 <vAlgorithmus3>:
/*--------------------------------------------------------------------------------------*/
/* Algorithmus 3: PI Berechnen mit der Gauss-Legendre Reihe und mit float 64 Bit library */
/*--------------------------------------------------------------------------------------*/

void vAlgorithmus3(void *pvParameters) {
    55e0:	2f 92       	push	r2
    55e2:	3f 92       	push	r3
    55e4:	4f 92       	push	r4
    55e6:	5f 92       	push	r5
    55e8:	6f 92       	push	r6
    55ea:	7f 92       	push	r7
    55ec:	8f 92       	push	r8
    55ee:	9f 92       	push	r9
    55f0:	af 92       	push	r10
    55f2:	bf 92       	push	r11
    55f4:	cf 92       	push	r12
    55f6:	df 92       	push	r13
    55f8:	ef 92       	push	r14
    55fa:	ff 92       	push	r15
    55fc:	0f 93       	push	r16
    55fe:	1f 93       	push	r17
    5600:	cf 93       	push	r28
    5602:	df 93       	push	r29
	(void) pvParameters;
	vTaskSuspend( Algorytmus3 );
    5604:	80 91 1f 2e 	lds	r24, 0x2E1F	; 0x802e1f <Algorytmus3>
    5608:	90 91 20 2e 	lds	r25, 0x2E20	; 0x802e20 <Algorytmus3+0x1>
    560c:	0e 94 dd 23 	call	0x47ba	; 0x47ba <vTaskSuspend>
	f64_b = f_sd(1/sqrt(2));
    5610:	63 ef       	ldi	r22, 0xF3	; 243
    5612:	74 e0       	ldi	r23, 0x04	; 4
    5614:	85 e3       	ldi	r24, 0x35	; 53
    5616:	9f e3       	ldi	r25, 0x3F	; 63
    5618:	0e 94 79 0a 	call	0x14f2	; 0x14f2 <f_sd>
    561c:	20 93 b6 2d 	sts	0x2DB6, r18	; 0x802db6 <f64_b>
    5620:	30 93 b7 2d 	sts	0x2DB7, r19	; 0x802db7 <f64_b+0x1>
    5624:	40 93 b8 2d 	sts	0x2DB8, r20	; 0x802db8 <f64_b+0x2>
    5628:	50 93 b9 2d 	sts	0x2DB9, r21	; 0x802db9 <f64_b+0x3>
    562c:	60 93 ba 2d 	sts	0x2DBA, r22	; 0x802dba <f64_b+0x4>
    5630:	70 93 bb 2d 	sts	0x2DBB, r23	; 0x802dbb <f64_b+0x5>
    5634:	80 93 bc 2d 	sts	0x2DBC, r24	; 0x802dbc <f64_b+0x6>
    5638:	90 93 bd 2d 	sts	0x2DBD, r25	; 0x802dbd <f64_b+0x7>
	f64_s = f_sd(0.25);
    563c:	60 e0       	ldi	r22, 0x00	; 0
    563e:	70 e0       	ldi	r23, 0x00	; 0
    5640:	80 e8       	ldi	r24, 0x80	; 128
    5642:	9e e3       	ldi	r25, 0x3E	; 62
    5644:	0e 94 79 0a 	call	0x14f2	; 0x14f2 <f_sd>
    5648:	20 93 a6 2d 	sts	0x2DA6, r18	; 0x802da6 <f64_s>
    564c:	30 93 a7 2d 	sts	0x2DA7, r19	; 0x802da7 <f64_s+0x1>
    5650:	40 93 a8 2d 	sts	0x2DA8, r20	; 0x802da8 <f64_s+0x2>
    5654:	50 93 a9 2d 	sts	0x2DA9, r21	; 0x802da9 <f64_s+0x3>
    5658:	60 93 aa 2d 	sts	0x2DAA, r22	; 0x802daa <f64_s+0x4>
    565c:	70 93 ab 2d 	sts	0x2DAB, r23	; 0x802dab <f64_s+0x5>
    5660:	80 93 ac 2d 	sts	0x2DAC, r24	; 0x802dac <f64_s+0x6>
    5664:	90 93 ad 2d 	sts	0x2DAD, r25	; 0x802dad <f64_s+0x7>
	f64_a = f_sd(1);
    5668:	60 e0       	ldi	r22, 0x00	; 0
    566a:	70 e0       	ldi	r23, 0x00	; 0
    566c:	80 e8       	ldi	r24, 0x80	; 128
    566e:	9f e3       	ldi	r25, 0x3F	; 63
    5670:	0e 94 79 0a 	call	0x14f2	; 0x14f2 <f_sd>
    5674:	20 93 00 20 	sts	0x2000, r18	; 0x802000 <__data_start>
    5678:	30 93 01 20 	sts	0x2001, r19	; 0x802001 <__data_start+0x1>
    567c:	40 93 02 20 	sts	0x2002, r20	; 0x802002 <__data_start+0x2>
    5680:	50 93 03 20 	sts	0x2003, r21	; 0x802003 <__data_start+0x3>
    5684:	60 93 04 20 	sts	0x2004, r22	; 0x802004 <__data_start+0x4>
    5688:	70 93 05 20 	sts	0x2005, r23	; 0x802005 <__data_start+0x5>
    568c:	80 93 06 20 	sts	0x2006, r24	; 0x802006 <__data_start+0x6>
    5690:	90 93 07 20 	sts	0x2007, r25	; 0x802007 <__data_start+0x7>
	
	for(i=0;i<99999999;i++)
    5694:	10 92 d8 2d 	sts	0x2DD8, r1	; 0x802dd8 <i>
    5698:	10 92 d9 2d 	sts	0x2DD9, r1	; 0x802dd9 <i+0x1>
    569c:	10 92 da 2d 	sts	0x2DDA, r1	; 0x802dda <i+0x2>
    56a0:	10 92 db 2d 	sts	0x2DDB, r1	; 0x802ddb <i+0x3>
    56a4:	10 92 dc 2d 	sts	0x2DDC, r1	; 0x802ddc <i+0x4>
    56a8:	10 92 dd 2d 	sts	0x2DDD, r1	; 0x802ddd <i+0x5>
    56ac:	10 92 de 2d 	sts	0x2DDE, r1	; 0x802dde <i+0x6>
    56b0:	10 92 df 2d 	sts	0x2DDF, r1	; 0x802ddf <i+0x7>
			f64_b = f64_B;
			f64_s = f64_S;
		}
		if (i > 2)
		{
			usZeitstop = 1;
    56b4:	c1 e0       	ldi	r28, 0x01	; 1
    56b6:	d0 e0       	ldi	r29, 0x00	; 0
	f64_s = f_sd(0.25);
	f64_a = f_sd(1);
	
	for(i=0;i<99999999;i++)
	{
		xEventGroupWaitBits(xSettings,1,pdFALSE,pdFALSE,portMAX_DELAY);
    56b8:	cc 24       	eor	r12, r12
    56ba:	ca 94       	dec	r12
    56bc:	dc 2c       	mov	r13, r12
    56be:	76 01       	movw	r14, r12
    56c0:	00 e0       	ldi	r16, 0x00	; 0
    56c2:	20 e0       	ldi	r18, 0x00	; 0
    56c4:	41 e0       	ldi	r20, 0x01	; 1
    56c6:	50 e0       	ldi	r21, 0x00	; 0
    56c8:	60 e0       	ldi	r22, 0x00	; 0
    56ca:	70 e0       	ldi	r23, 0x00	; 0
    56cc:	80 91 2d 2e 	lds	r24, 0x2E2D	; 0x802e2d <xSettings>
    56d0:	90 91 2e 2e 	lds	r25, 0x2E2E	; 0x802e2e <xSettings+0x1>
    56d4:	0e 94 6e 18 	call	0x30dc	; 0x30dc <xEventGroupWaitBits>
		if (i < 25)
    56d8:	20 91 d8 2d 	lds	r18, 0x2DD8	; 0x802dd8 <i>
    56dc:	30 91 d9 2d 	lds	r19, 0x2DD9	; 0x802dd9 <i+0x1>
    56e0:	40 91 da 2d 	lds	r20, 0x2DDA	; 0x802dda <i+0x2>
    56e4:	50 91 db 2d 	lds	r21, 0x2DDB	; 0x802ddb <i+0x3>
    56e8:	60 91 dc 2d 	lds	r22, 0x2DDC	; 0x802ddc <i+0x4>
    56ec:	70 91 dd 2d 	lds	r23, 0x2DDD	; 0x802ddd <i+0x5>
    56f0:	80 91 de 2d 	lds	r24, 0x2DDE	; 0x802dde <i+0x6>
    56f4:	90 91 df 2d 	lds	r25, 0x2DDF	; 0x802ddf <i+0x7>
    56f8:	a8 e1       	ldi	r26, 0x18	; 24
    56fa:	0e 94 65 40 	call	0x80ca	; 0x80ca <__cmpdi2_s8>
    56fe:	11 f0       	breq	.+4      	; 0x5704 <vAlgorithmus3+0x124>
    5700:	08 f0       	brcs	.+2      	; 0x5704 <vAlgorithmus3+0x124>
    5702:	c8 c1       	rjmp	.+912    	; 0x5a94 <vAlgorithmus3+0x4b4>
		{
			f64_A = f_div((f_add(f64_a,f64_b)),f_sd(2));
    5704:	60 e0       	ldi	r22, 0x00	; 0
    5706:	70 e0       	ldi	r23, 0x00	; 0
    5708:	80 e0       	ldi	r24, 0x00	; 0
    570a:	90 e4       	ldi	r25, 0x40	; 64
    570c:	0e 94 79 0a 	call	0x14f2	; 0x14f2 <f_sd>
    5710:	32 2e       	mov	r3, r18
    5712:	43 2e       	mov	r4, r19
    5714:	54 2e       	mov	r5, r20
    5716:	65 2e       	mov	r6, r21
    5718:	76 2e       	mov	r7, r22
    571a:	87 2e       	mov	r8, r23
    571c:	98 2e       	mov	r9, r24
    571e:	29 2e       	mov	r2, r25
    5720:	a0 90 b6 2d 	lds	r10, 0x2DB6	; 0x802db6 <f64_b>
    5724:	b0 90 b7 2d 	lds	r11, 0x2DB7	; 0x802db7 <f64_b+0x1>
    5728:	c0 90 b8 2d 	lds	r12, 0x2DB8	; 0x802db8 <f64_b+0x2>
    572c:	d0 90 b9 2d 	lds	r13, 0x2DB9	; 0x802db9 <f64_b+0x3>
    5730:	e0 90 ba 2d 	lds	r14, 0x2DBA	; 0x802dba <f64_b+0x4>
    5734:	f0 90 bb 2d 	lds	r15, 0x2DBB	; 0x802dbb <f64_b+0x5>
    5738:	00 91 bc 2d 	lds	r16, 0x2DBC	; 0x802dbc <f64_b+0x6>
    573c:	10 91 bd 2d 	lds	r17, 0x2DBD	; 0x802dbd <f64_b+0x7>
    5740:	20 91 00 20 	lds	r18, 0x2000	; 0x802000 <__data_start>
    5744:	30 91 01 20 	lds	r19, 0x2001	; 0x802001 <__data_start+0x1>
    5748:	40 91 02 20 	lds	r20, 0x2002	; 0x802002 <__data_start+0x2>
    574c:	50 91 03 20 	lds	r21, 0x2003	; 0x802003 <__data_start+0x3>
    5750:	60 91 04 20 	lds	r22, 0x2004	; 0x802004 <__data_start+0x4>
    5754:	70 91 05 20 	lds	r23, 0x2005	; 0x802005 <__data_start+0x5>
    5758:	80 91 06 20 	lds	r24, 0x2006	; 0x802006 <__data_start+0x6>
    575c:	90 91 07 20 	lds	r25, 0x2007	; 0x802007 <__data_start+0x7>
    5760:	0e 94 36 0b 	call	0x166c	; 0x166c <f_add>
    5764:	a3 2c       	mov	r10, r3
    5766:	b4 2c       	mov	r11, r4
    5768:	c5 2c       	mov	r12, r5
    576a:	d6 2c       	mov	r13, r6
    576c:	e7 2c       	mov	r14, r7
    576e:	f8 2c       	mov	r15, r8
    5770:	09 2d       	mov	r16, r9
    5772:	12 2d       	mov	r17, r2
    5774:	0e 94 13 0d 	call	0x1a26	; 0x1a26 <f_div>
    5778:	20 93 be 2d 	sts	0x2DBE, r18	; 0x802dbe <f64_A>
    577c:	30 93 bf 2d 	sts	0x2DBF, r19	; 0x802dbf <f64_A+0x1>
    5780:	40 93 c0 2d 	sts	0x2DC0, r20	; 0x802dc0 <f64_A+0x2>
    5784:	50 93 c1 2d 	sts	0x2DC1, r21	; 0x802dc1 <f64_A+0x3>
    5788:	60 93 c2 2d 	sts	0x2DC2, r22	; 0x802dc2 <f64_A+0x4>
    578c:	70 93 c3 2d 	sts	0x2DC3, r23	; 0x802dc3 <f64_A+0x5>
    5790:	80 93 c4 2d 	sts	0x2DC4, r24	; 0x802dc4 <f64_A+0x6>
    5794:	90 93 c5 2d 	sts	0x2DC5, r25	; 0x802dc5 <f64_A+0x7>
			f64_B = f_sqrt(f_mult(f64_a,f64_b));
    5798:	a0 90 b6 2d 	lds	r10, 0x2DB6	; 0x802db6 <f64_b>
    579c:	b0 90 b7 2d 	lds	r11, 0x2DB7	; 0x802db7 <f64_b+0x1>
    57a0:	c0 90 b8 2d 	lds	r12, 0x2DB8	; 0x802db8 <f64_b+0x2>
    57a4:	d0 90 b9 2d 	lds	r13, 0x2DB9	; 0x802db9 <f64_b+0x3>
    57a8:	e0 90 ba 2d 	lds	r14, 0x2DBA	; 0x802dba <f64_b+0x4>
    57ac:	f0 90 bb 2d 	lds	r15, 0x2DBB	; 0x802dbb <f64_b+0x5>
    57b0:	00 91 bc 2d 	lds	r16, 0x2DBC	; 0x802dbc <f64_b+0x6>
    57b4:	10 91 bd 2d 	lds	r17, 0x2DBD	; 0x802dbd <f64_b+0x7>
    57b8:	20 91 00 20 	lds	r18, 0x2000	; 0x802000 <__data_start>
    57bc:	30 91 01 20 	lds	r19, 0x2001	; 0x802001 <__data_start+0x1>
    57c0:	40 91 02 20 	lds	r20, 0x2002	; 0x802002 <__data_start+0x2>
    57c4:	50 91 03 20 	lds	r21, 0x2003	; 0x802003 <__data_start+0x3>
    57c8:	60 91 04 20 	lds	r22, 0x2004	; 0x802004 <__data_start+0x4>
    57cc:	70 91 05 20 	lds	r23, 0x2005	; 0x802005 <__data_start+0x5>
    57d0:	80 91 06 20 	lds	r24, 0x2006	; 0x802006 <__data_start+0x6>
    57d4:	90 91 07 20 	lds	r25, 0x2007	; 0x802007 <__data_start+0x7>
    57d8:	0e 94 0e 0c 	call	0x181c	; 0x181c <f_mult>
    57dc:	0e 94 17 0e 	call	0x1c2e	; 0x1c2e <f_sqrt>
    57e0:	20 93 ae 2d 	sts	0x2DAE, r18	; 0x802dae <f64_B>
    57e4:	30 93 af 2d 	sts	0x2DAF, r19	; 0x802daf <f64_B+0x1>
    57e8:	40 93 b0 2d 	sts	0x2DB0, r20	; 0x802db0 <f64_B+0x2>
    57ec:	50 93 b1 2d 	sts	0x2DB1, r21	; 0x802db1 <f64_B+0x3>
    57f0:	60 93 b2 2d 	sts	0x2DB2, r22	; 0x802db2 <f64_B+0x4>
    57f4:	70 93 b3 2d 	sts	0x2DB3, r23	; 0x802db3 <f64_B+0x5>
    57f8:	80 93 b4 2d 	sts	0x2DB4, r24	; 0x802db4 <f64_B+0x6>
    57fc:	90 93 b5 2d 	sts	0x2DB5, r25	; 0x802db5 <f64_B+0x7>
			f64_S = f_sub(f64_s,(f_mult(f_sd(pow(2,i)),f_mult(f_sub(f64_a,f64_A),f_sub(f64_a,f64_A)))));
    5800:	a0 90 be 2d 	lds	r10, 0x2DBE	; 0x802dbe <f64_A>
    5804:	b0 90 bf 2d 	lds	r11, 0x2DBF	; 0x802dbf <f64_A+0x1>
    5808:	c0 90 c0 2d 	lds	r12, 0x2DC0	; 0x802dc0 <f64_A+0x2>
    580c:	d0 90 c1 2d 	lds	r13, 0x2DC1	; 0x802dc1 <f64_A+0x3>
    5810:	e0 90 c2 2d 	lds	r14, 0x2DC2	; 0x802dc2 <f64_A+0x4>
    5814:	f0 90 c3 2d 	lds	r15, 0x2DC3	; 0x802dc3 <f64_A+0x5>
    5818:	00 91 c4 2d 	lds	r16, 0x2DC4	; 0x802dc4 <f64_A+0x6>
    581c:	10 91 c5 2d 	lds	r17, 0x2DC5	; 0x802dc5 <f64_A+0x7>
    5820:	20 91 00 20 	lds	r18, 0x2000	; 0x802000 <__data_start>
    5824:	30 91 01 20 	lds	r19, 0x2001	; 0x802001 <__data_start+0x1>
    5828:	40 91 02 20 	lds	r20, 0x2002	; 0x802002 <__data_start+0x2>
    582c:	50 91 03 20 	lds	r21, 0x2003	; 0x802003 <__data_start+0x3>
    5830:	60 91 04 20 	lds	r22, 0x2004	; 0x802004 <__data_start+0x4>
    5834:	70 91 05 20 	lds	r23, 0x2005	; 0x802005 <__data_start+0x5>
    5838:	80 91 06 20 	lds	r24, 0x2006	; 0x802006 <__data_start+0x6>
    583c:	90 91 07 20 	lds	r25, 0x2007	; 0x802007 <__data_start+0x7>
    5840:	0e 94 ce 0b 	call	0x179c	; 0x179c <f_sub>
    5844:	32 2e       	mov	r3, r18
    5846:	43 2e       	mov	r4, r19
    5848:	54 2e       	mov	r5, r20
    584a:	65 2e       	mov	r6, r21
    584c:	76 2e       	mov	r7, r22
    584e:	87 2e       	mov	r8, r23
    5850:	98 2e       	mov	r9, r24
    5852:	29 2e       	mov	r2, r25
    5854:	a0 90 be 2d 	lds	r10, 0x2DBE	; 0x802dbe <f64_A>
    5858:	b0 90 bf 2d 	lds	r11, 0x2DBF	; 0x802dbf <f64_A+0x1>
    585c:	c0 90 c0 2d 	lds	r12, 0x2DC0	; 0x802dc0 <f64_A+0x2>
    5860:	d0 90 c1 2d 	lds	r13, 0x2DC1	; 0x802dc1 <f64_A+0x3>
    5864:	e0 90 c2 2d 	lds	r14, 0x2DC2	; 0x802dc2 <f64_A+0x4>
    5868:	f0 90 c3 2d 	lds	r15, 0x2DC3	; 0x802dc3 <f64_A+0x5>
    586c:	00 91 c4 2d 	lds	r16, 0x2DC4	; 0x802dc4 <f64_A+0x6>
    5870:	10 91 c5 2d 	lds	r17, 0x2DC5	; 0x802dc5 <f64_A+0x7>
    5874:	20 91 00 20 	lds	r18, 0x2000	; 0x802000 <__data_start>
    5878:	30 91 01 20 	lds	r19, 0x2001	; 0x802001 <__data_start+0x1>
    587c:	40 91 02 20 	lds	r20, 0x2002	; 0x802002 <__data_start+0x2>
    5880:	50 91 03 20 	lds	r21, 0x2003	; 0x802003 <__data_start+0x3>
    5884:	60 91 04 20 	lds	r22, 0x2004	; 0x802004 <__data_start+0x4>
    5888:	70 91 05 20 	lds	r23, 0x2005	; 0x802005 <__data_start+0x5>
    588c:	80 91 06 20 	lds	r24, 0x2006	; 0x802006 <__data_start+0x6>
    5890:	90 91 07 20 	lds	r25, 0x2007	; 0x802007 <__data_start+0x7>
    5894:	0e 94 ce 0b 	call	0x179c	; 0x179c <f_sub>
    5898:	a3 2c       	mov	r10, r3
    589a:	b4 2c       	mov	r11, r4
    589c:	c5 2c       	mov	r12, r5
    589e:	d6 2c       	mov	r13, r6
    58a0:	e7 2c       	mov	r14, r7
    58a2:	f8 2c       	mov	r15, r8
    58a4:	09 2d       	mov	r16, r9
    58a6:	12 2d       	mov	r17, r2
    58a8:	0e 94 0e 0c 	call	0x181c	; 0x181c <f_mult>
    58ac:	a2 2e       	mov	r10, r18
    58ae:	b3 2e       	mov	r11, r19
    58b0:	c4 2e       	mov	r12, r20
    58b2:	d5 2e       	mov	r13, r21
    58b4:	e6 2e       	mov	r14, r22
    58b6:	f7 2e       	mov	r15, r23
    58b8:	08 2f       	mov	r16, r24
    58ba:	19 2f       	mov	r17, r25
    58bc:	20 91 d8 2d 	lds	r18, 0x2DD8	; 0x802dd8 <i>
    58c0:	30 91 d9 2d 	lds	r19, 0x2DD9	; 0x802dd9 <i+0x1>
    58c4:	40 91 da 2d 	lds	r20, 0x2DDA	; 0x802dda <i+0x2>
    58c8:	50 91 db 2d 	lds	r21, 0x2DDB	; 0x802ddb <i+0x3>
    58cc:	60 91 dc 2d 	lds	r22, 0x2DDC	; 0x802ddc <i+0x4>
    58d0:	70 91 dd 2d 	lds	r23, 0x2DDD	; 0x802ddd <i+0x5>
    58d4:	80 91 de 2d 	lds	r24, 0x2DDE	; 0x802dde <i+0x6>
    58d8:	90 91 df 2d 	lds	r25, 0x2DDF	; 0x802ddf <i+0x7>
    58dc:	0e 94 dd 38 	call	0x71ba	; 0x71ba <__floatundisf>
    58e0:	9b 01       	movw	r18, r22
    58e2:	ac 01       	movw	r20, r24
    58e4:	60 e0       	ldi	r22, 0x00	; 0
    58e6:	70 e0       	ldi	r23, 0x00	; 0
    58e8:	80 e0       	ldi	r24, 0x00	; 0
    58ea:	90 e4       	ldi	r25, 0x40	; 64
    58ec:	0e 94 02 3a 	call	0x7404	; 0x7404 <pow>
    58f0:	0e 94 79 0a 	call	0x14f2	; 0x14f2 <f_sd>
    58f4:	0e 94 0e 0c 	call	0x181c	; 0x181c <f_mult>
    58f8:	a2 2e       	mov	r10, r18
    58fa:	b3 2e       	mov	r11, r19
    58fc:	c4 2e       	mov	r12, r20
    58fe:	d5 2e       	mov	r13, r21
    5900:	e6 2e       	mov	r14, r22
    5902:	f7 2e       	mov	r15, r23
    5904:	20 91 a6 2d 	lds	r18, 0x2DA6	; 0x802da6 <f64_s>
    5908:	30 91 a7 2d 	lds	r19, 0x2DA7	; 0x802da7 <f64_s+0x1>
    590c:	40 91 a8 2d 	lds	r20, 0x2DA8	; 0x802da8 <f64_s+0x2>
    5910:	50 91 a9 2d 	lds	r21, 0x2DA9	; 0x802da9 <f64_s+0x3>
    5914:	60 91 aa 2d 	lds	r22, 0x2DAA	; 0x802daa <f64_s+0x4>
    5918:	70 91 ab 2d 	lds	r23, 0x2DAB	; 0x802dab <f64_s+0x5>
    591c:	08 2f       	mov	r16, r24
    591e:	19 2f       	mov	r17, r25
    5920:	80 91 ac 2d 	lds	r24, 0x2DAC	; 0x802dac <f64_s+0x6>
    5924:	90 91 ad 2d 	lds	r25, 0x2DAD	; 0x802dad <f64_s+0x7>
    5928:	0e 94 ce 0b 	call	0x179c	; 0x179c <f_sub>
    592c:	20 93 9e 2d 	sts	0x2D9E, r18	; 0x802d9e <f64_S>
    5930:	30 93 9f 2d 	sts	0x2D9F, r19	; 0x802d9f <f64_S+0x1>
    5934:	40 93 a0 2d 	sts	0x2DA0, r20	; 0x802da0 <f64_S+0x2>
    5938:	50 93 a1 2d 	sts	0x2DA1, r21	; 0x802da1 <f64_S+0x3>
    593c:	60 93 a2 2d 	sts	0x2DA2, r22	; 0x802da2 <f64_S+0x4>
    5940:	70 93 a3 2d 	sts	0x2DA3, r23	; 0x802da3 <f64_S+0x5>
    5944:	80 93 a4 2d 	sts	0x2DA4, r24	; 0x802da4 <f64_S+0x6>
    5948:	90 93 a5 2d 	sts	0x2DA5, r25	; 0x802da5 <f64_S+0x7>
			f64_PI = f_div(f_mult(f64_A,f64_A),f64_s);
    594c:	30 90 a6 2d 	lds	r3, 0x2DA6	; 0x802da6 <f64_s>
    5950:	40 90 a7 2d 	lds	r4, 0x2DA7	; 0x802da7 <f64_s+0x1>
    5954:	50 90 a8 2d 	lds	r5, 0x2DA8	; 0x802da8 <f64_s+0x2>
    5958:	60 90 a9 2d 	lds	r6, 0x2DA9	; 0x802da9 <f64_s+0x3>
    595c:	70 90 aa 2d 	lds	r7, 0x2DAA	; 0x802daa <f64_s+0x4>
    5960:	80 90 ab 2d 	lds	r8, 0x2DAB	; 0x802dab <f64_s+0x5>
    5964:	90 90 ac 2d 	lds	r9, 0x2DAC	; 0x802dac <f64_s+0x6>
    5968:	20 90 ad 2d 	lds	r2, 0x2DAD	; 0x802dad <f64_s+0x7>
    596c:	20 91 be 2d 	lds	r18, 0x2DBE	; 0x802dbe <f64_A>
    5970:	30 91 bf 2d 	lds	r19, 0x2DBF	; 0x802dbf <f64_A+0x1>
    5974:	40 91 c0 2d 	lds	r20, 0x2DC0	; 0x802dc0 <f64_A+0x2>
    5978:	50 91 c1 2d 	lds	r21, 0x2DC1	; 0x802dc1 <f64_A+0x3>
    597c:	60 91 c2 2d 	lds	r22, 0x2DC2	; 0x802dc2 <f64_A+0x4>
    5980:	70 91 c3 2d 	lds	r23, 0x2DC3	; 0x802dc3 <f64_A+0x5>
    5984:	80 91 c4 2d 	lds	r24, 0x2DC4	; 0x802dc4 <f64_A+0x6>
    5988:	90 91 c5 2d 	lds	r25, 0x2DC5	; 0x802dc5 <f64_A+0x7>
    598c:	a2 2e       	mov	r10, r18
    598e:	b3 2e       	mov	r11, r19
    5990:	c4 2e       	mov	r12, r20
    5992:	d5 2e       	mov	r13, r21
    5994:	e6 2e       	mov	r14, r22
    5996:	f7 2e       	mov	r15, r23
    5998:	08 2f       	mov	r16, r24
    599a:	19 2f       	mov	r17, r25
    599c:	0e 94 0e 0c 	call	0x181c	; 0x181c <f_mult>
    59a0:	a3 2c       	mov	r10, r3
    59a2:	b4 2c       	mov	r11, r4
    59a4:	c5 2c       	mov	r12, r5
    59a6:	d6 2c       	mov	r13, r6
    59a8:	e7 2c       	mov	r14, r7
    59aa:	f8 2c       	mov	r15, r8
    59ac:	09 2d       	mov	r16, r9
    59ae:	12 2d       	mov	r17, r2
    59b0:	0e 94 13 0d 	call	0x1a26	; 0x1a26 <f_div>
    59b4:	20 93 96 2d 	sts	0x2D96, r18	; 0x802d96 <f64_PI>
    59b8:	30 93 97 2d 	sts	0x2D97, r19	; 0x802d97 <f64_PI+0x1>
    59bc:	40 93 98 2d 	sts	0x2D98, r20	; 0x802d98 <f64_PI+0x2>
    59c0:	50 93 99 2d 	sts	0x2D99, r21	; 0x802d99 <f64_PI+0x3>
    59c4:	60 93 9a 2d 	sts	0x2D9A, r22	; 0x802d9a <f64_PI+0x4>
    59c8:	70 93 9b 2d 	sts	0x2D9B, r23	; 0x802d9b <f64_PI+0x5>
    59cc:	80 93 9c 2d 	sts	0x2D9C, r24	; 0x802d9c <f64_PI+0x6>
    59d0:	90 93 9d 2d 	sts	0x2D9D, r25	; 0x802d9d <f64_PI+0x7>
			f64_a = f64_A;
    59d4:	80 91 be 2d 	lds	r24, 0x2DBE	; 0x802dbe <f64_A>
    59d8:	80 93 00 20 	sts	0x2000, r24	; 0x802000 <__data_start>
    59dc:	80 91 bf 2d 	lds	r24, 0x2DBF	; 0x802dbf <f64_A+0x1>
    59e0:	80 93 01 20 	sts	0x2001, r24	; 0x802001 <__data_start+0x1>
    59e4:	80 91 c0 2d 	lds	r24, 0x2DC0	; 0x802dc0 <f64_A+0x2>
    59e8:	80 93 02 20 	sts	0x2002, r24	; 0x802002 <__data_start+0x2>
    59ec:	80 91 c1 2d 	lds	r24, 0x2DC1	; 0x802dc1 <f64_A+0x3>
    59f0:	80 93 03 20 	sts	0x2003, r24	; 0x802003 <__data_start+0x3>
    59f4:	80 91 c2 2d 	lds	r24, 0x2DC2	; 0x802dc2 <f64_A+0x4>
    59f8:	80 93 04 20 	sts	0x2004, r24	; 0x802004 <__data_start+0x4>
    59fc:	80 91 c3 2d 	lds	r24, 0x2DC3	; 0x802dc3 <f64_A+0x5>
    5a00:	80 93 05 20 	sts	0x2005, r24	; 0x802005 <__data_start+0x5>
    5a04:	80 91 c4 2d 	lds	r24, 0x2DC4	; 0x802dc4 <f64_A+0x6>
    5a08:	80 93 06 20 	sts	0x2006, r24	; 0x802006 <__data_start+0x6>
    5a0c:	80 91 c5 2d 	lds	r24, 0x2DC5	; 0x802dc5 <f64_A+0x7>
    5a10:	80 93 07 20 	sts	0x2007, r24	; 0x802007 <__data_start+0x7>
			f64_b = f64_B;
    5a14:	80 91 ae 2d 	lds	r24, 0x2DAE	; 0x802dae <f64_B>
    5a18:	80 93 b6 2d 	sts	0x2DB6, r24	; 0x802db6 <f64_b>
    5a1c:	80 91 af 2d 	lds	r24, 0x2DAF	; 0x802daf <f64_B+0x1>
    5a20:	80 93 b7 2d 	sts	0x2DB7, r24	; 0x802db7 <f64_b+0x1>
    5a24:	80 91 b0 2d 	lds	r24, 0x2DB0	; 0x802db0 <f64_B+0x2>
    5a28:	80 93 b8 2d 	sts	0x2DB8, r24	; 0x802db8 <f64_b+0x2>
    5a2c:	80 91 b1 2d 	lds	r24, 0x2DB1	; 0x802db1 <f64_B+0x3>
    5a30:	80 93 b9 2d 	sts	0x2DB9, r24	; 0x802db9 <f64_b+0x3>
    5a34:	80 91 b2 2d 	lds	r24, 0x2DB2	; 0x802db2 <f64_B+0x4>
    5a38:	80 93 ba 2d 	sts	0x2DBA, r24	; 0x802dba <f64_b+0x4>
    5a3c:	80 91 b3 2d 	lds	r24, 0x2DB3	; 0x802db3 <f64_B+0x5>
    5a40:	80 93 bb 2d 	sts	0x2DBB, r24	; 0x802dbb <f64_b+0x5>
    5a44:	80 91 b4 2d 	lds	r24, 0x2DB4	; 0x802db4 <f64_B+0x6>
    5a48:	80 93 bc 2d 	sts	0x2DBC, r24	; 0x802dbc <f64_b+0x6>
    5a4c:	80 91 b5 2d 	lds	r24, 0x2DB5	; 0x802db5 <f64_B+0x7>
    5a50:	80 93 bd 2d 	sts	0x2DBD, r24	; 0x802dbd <f64_b+0x7>
			f64_s = f64_S;
    5a54:	80 91 9e 2d 	lds	r24, 0x2D9E	; 0x802d9e <f64_S>
    5a58:	80 93 a6 2d 	sts	0x2DA6, r24	; 0x802da6 <f64_s>
    5a5c:	80 91 9f 2d 	lds	r24, 0x2D9F	; 0x802d9f <f64_S+0x1>
    5a60:	80 93 a7 2d 	sts	0x2DA7, r24	; 0x802da7 <f64_s+0x1>
    5a64:	80 91 a0 2d 	lds	r24, 0x2DA0	; 0x802da0 <f64_S+0x2>
    5a68:	80 93 a8 2d 	sts	0x2DA8, r24	; 0x802da8 <f64_s+0x2>
    5a6c:	80 91 a1 2d 	lds	r24, 0x2DA1	; 0x802da1 <f64_S+0x3>
    5a70:	80 93 a9 2d 	sts	0x2DA9, r24	; 0x802da9 <f64_s+0x3>
    5a74:	80 91 a2 2d 	lds	r24, 0x2DA2	; 0x802da2 <f64_S+0x4>
    5a78:	80 93 aa 2d 	sts	0x2DAA, r24	; 0x802daa <f64_s+0x4>
    5a7c:	80 91 a3 2d 	lds	r24, 0x2DA3	; 0x802da3 <f64_S+0x5>
    5a80:	80 93 ab 2d 	sts	0x2DAB, r24	; 0x802dab <f64_s+0x5>
    5a84:	80 91 a4 2d 	lds	r24, 0x2DA4	; 0x802da4 <f64_S+0x6>
    5a88:	80 93 ac 2d 	sts	0x2DAC, r24	; 0x802dac <f64_s+0x6>
    5a8c:	80 91 a5 2d 	lds	r24, 0x2DA5	; 0x802da5 <f64_S+0x7>
    5a90:	80 93 ad 2d 	sts	0x2DAD, r24	; 0x802dad <f64_s+0x7>
		}
		if (i > 2)
    5a94:	50 90 d8 2d 	lds	r5, 0x2DD8	; 0x802dd8 <i>
    5a98:	60 90 d9 2d 	lds	r6, 0x2DD9	; 0x802dd9 <i+0x1>
    5a9c:	70 90 da 2d 	lds	r7, 0x2DDA	; 0x802dda <i+0x2>
    5aa0:	80 90 db 2d 	lds	r8, 0x2DDB	; 0x802ddb <i+0x3>
    5aa4:	90 90 dc 2d 	lds	r9, 0x2DDC	; 0x802ddc <i+0x4>
    5aa8:	b0 91 dd 2d 	lds	r27, 0x2DDD	; 0x802ddd <i+0x5>
    5aac:	f0 91 de 2d 	lds	r31, 0x2DDE	; 0x802dde <i+0x6>
    5ab0:	e0 91 df 2d 	lds	r30, 0x2DDF	; 0x802ddf <i+0x7>
    5ab4:	25 2d       	mov	r18, r5
    5ab6:	36 2d       	mov	r19, r6
    5ab8:	47 2d       	mov	r20, r7
    5aba:	58 2d       	mov	r21, r8
    5abc:	69 2d       	mov	r22, r9
    5abe:	7b 2f       	mov	r23, r27
    5ac0:	8f 2f       	mov	r24, r31
    5ac2:	9e 2f       	mov	r25, r30
    5ac4:	a2 e0       	ldi	r26, 0x02	; 2
    5ac6:	0e 94 65 40 	call	0x80ca	; 0x80ca <__cmpdi2_s8>
    5aca:	29 f0       	breq	.+10     	; 0x5ad6 <vAlgorithmus3+0x4f6>
    5acc:	20 f0       	brcs	.+8      	; 0x5ad6 <vAlgorithmus3+0x4f6>
		{
			usZeitstop = 1;
    5ace:	c0 93 d2 2d 	sts	0x2DD2, r28	; 0x802dd2 <usZeitstop>
    5ad2:	d0 93 d3 2d 	sts	0x2DD3, r29	; 0x802dd3 <usZeitstop+0x1>
	vTaskSuspend( Algorytmus3 );
	f64_b = f_sd(1/sqrt(2));
	f64_s = f_sd(0.25);
	f64_a = f_sd(1);
	
	for(i=0;i<99999999;i++)
    5ad6:	25 2d       	mov	r18, r5
    5ad8:	36 2d       	mov	r19, r6
    5ada:	47 2d       	mov	r20, r7
    5adc:	58 2d       	mov	r21, r8
    5ade:	69 2d       	mov	r22, r9
    5ae0:	7b 2f       	mov	r23, r27
    5ae2:	8f 2f       	mov	r24, r31
    5ae4:	9e 2f       	mov	r25, r30
    5ae6:	a1 e0       	ldi	r26, 0x01	; 1
    5ae8:	0e 94 47 40 	call	0x808e	; 0x808e <__adddi3_s8>
    5aec:	20 93 d8 2d 	sts	0x2DD8, r18	; 0x802dd8 <i>
    5af0:	30 93 d9 2d 	sts	0x2DD9, r19	; 0x802dd9 <i+0x1>
    5af4:	40 93 da 2d 	sts	0x2DDA, r20	; 0x802dda <i+0x2>
    5af8:	50 93 db 2d 	sts	0x2DDB, r21	; 0x802ddb <i+0x3>
    5afc:	60 93 dc 2d 	sts	0x2DDC, r22	; 0x802ddc <i+0x4>
    5b00:	70 93 dd 2d 	sts	0x2DDD, r23	; 0x802ddd <i+0x5>
    5b04:	80 93 de 2d 	sts	0x2DDE, r24	; 0x802dde <i+0x6>
    5b08:	90 93 df 2d 	sts	0x2DDF, r25	; 0x802ddf <i+0x7>
    5b0c:	2e 3f       	cpi	r18, 0xFE	; 254
    5b0e:	30 4e       	sbci	r19, 0xE0	; 224
    5b10:	45 4f       	sbci	r20, 0xF5	; 245
    5b12:	55 40       	sbci	r21, 0x05	; 5
    5b14:	61 05       	cpc	r22, r1
    5b16:	71 05       	cpc	r23, r1
    5b18:	81 05       	cpc	r24, r1
    5b1a:	91 05       	cpc	r25, r1
    5b1c:	09 f0       	breq	.+2      	; 0x5b20 <vAlgorithmus3+0x540>
    5b1e:	08 f4       	brcc	.+2      	; 0x5b22 <vAlgorithmus3+0x542>
    5b20:	cb cd       	rjmp	.-1130   	; 0x56b8 <vAlgorithmus3+0xd8>
		if (i > 2)
		{
			usZeitstop = 1;
		}
	}
}
    5b22:	df 91       	pop	r29
    5b24:	cf 91       	pop	r28
    5b26:	1f 91       	pop	r17
    5b28:	0f 91       	pop	r16
    5b2a:	ff 90       	pop	r15
    5b2c:	ef 90       	pop	r14
    5b2e:	df 90       	pop	r13
    5b30:	cf 90       	pop	r12
    5b32:	bf 90       	pop	r11
    5b34:	af 90       	pop	r10
    5b36:	9f 90       	pop	r9
    5b38:	8f 90       	pop	r8
    5b3a:	7f 90       	pop	r7
    5b3c:	6f 90       	pop	r6
    5b3e:	5f 90       	pop	r5
    5b40:	4f 90       	pop	r4
    5b42:	3f 90       	pop	r3
    5b44:	2f 90       	pop	r2
    5b46:	08 95       	ret

00005b48 <vAusgabe>:

/*--------------------------------------------------------------------------------------*/
/* Der Ausgabe Task hndelt die Eingabe durch Buttons und die Ausgabe vom Display */
/*--------------------------------------------------------------------------------------*/

void vAusgabe(void *pvParameters) {
    5b48:	cf 93       	push	r28
    5b4a:	df 93       	push	r29
    5b4c:	cd b7       	in	r28, 0x3d	; 61
    5b4e:	de b7       	in	r29, 0x3e	; 62
    5b50:	a8 97       	sbiw	r28, 0x28	; 40
    5b52:	cd bf       	out	0x3d, r28	; 61
    5b54:	de bf       	out	0x3e, r29	; 62
	char ucPI[20] ;
	char ucInteration[20] ;
	int eDisplayupdatetimer = 0;
	int usReset = 0;
	int usAlgorithmusmodus = 0;
	sprintf(ucPi_gegeben,"%.5f", usPi_5);
    5b56:	80 91 17 20 	lds	r24, 0x2017	; 0x802017 <usPi_5+0x3>
    5b5a:	8f 93       	push	r24
    5b5c:	80 91 16 20 	lds	r24, 0x2016	; 0x802016 <usPi_5+0x2>
    5b60:	8f 93       	push	r24
    5b62:	80 91 15 20 	lds	r24, 0x2015	; 0x802015 <usPi_5+0x1>
    5b66:	8f 93       	push	r24
    5b68:	80 91 14 20 	lds	r24, 0x2014	; 0x802014 <usPi_5>
    5b6c:	8f 93       	push	r24
    5b6e:	8d e2       	ldi	r24, 0x2D	; 45
    5b70:	90 e2       	ldi	r25, 0x20	; 32
    5b72:	9f 93       	push	r25
    5b74:	8f 93       	push	r24
    5b76:	8f e0       	ldi	r24, 0x0F	; 15
    5b78:	9e e2       	ldi	r25, 0x2E	; 46
    5b7a:	9f 93       	push	r25
    5b7c:	8f 93       	push	r24
    5b7e:	0e 94 ef 41 	call	0x83de	; 0x83de <sprintf>
	 
/* Timer initialisieren und auf 1 ms stellen */

	TCD0.CTRLA = TC_CLKSEL_DIV256_gc ;
    5b82:	e0 e0       	ldi	r30, 0x00	; 0
    5b84:	f9 e0       	ldi	r31, 0x09	; 9
    5b86:	86 e0       	ldi	r24, 0x06	; 6
    5b88:	80 83       	st	Z, r24
	TCD0.CTRLB = 0x00;
    5b8a:	11 82       	std	Z+1, r1	; 0x01
	TCD0.INTCTRLA = 0x03;
    5b8c:	83 e0       	ldi	r24, 0x03	; 3
    5b8e:	86 83       	std	Z+6, r24	; 0x06
	TCD0.PER = 0x7F;
    5b90:	8f e7       	ldi	r24, 0x7F	; 127
    5b92:	90 e0       	ldi	r25, 0x00	; 0
    5b94:	86 a3       	std	Z+38, r24	; 0x26
    5b96:	97 a3       	std	Z+39, r25	; 0x27
    5b98:	cd bf       	out	0x3d, r28	; 61
    5b9a:	de bf       	out	0x3e, r29	; 62
	(void) pvParameters;
	char ucPI[20] ;
	char ucInteration[20] ;
	int eDisplayupdatetimer = 0;
	int usReset = 0;
	int usAlgorithmusmodus = 0;
    5b9c:	c1 2c       	mov	r12, r1
    5b9e:	d1 2c       	mov	r13, r1
void vAusgabe(void *pvParameters) {
	(void) pvParameters;
	char ucPI[20] ;
	char ucInteration[20] ;
	int eDisplayupdatetimer = 0;
	int usReset = 0;
    5ba0:	a1 2c       	mov	r10, r1
    5ba2:	b1 2c       	mov	r11, r1

void vAusgabe(void *pvParameters) {
	(void) pvParameters;
	char ucPI[20] ;
	char ucInteration[20] ;
	int eDisplayupdatetimer = 0;
    5ba4:	00 e0       	ldi	r16, 0x00	; 0
    5ba6:	10 e0       	ldi	r17, 0x00	; 0
		if (usReset == 1)
		{
			usReset = 0;
			xEventGroupClearBits(xSettings,1);
			vTaskDelay(10 / portTICK_RATE_MS);
			ulPI = 1;
    5ba8:	0f 2e       	mov	r0, r31
    5baa:	21 2c       	mov	r2, r1
    5bac:	31 2c       	mov	r3, r1
    5bae:	f0 e8       	ldi	r31, 0x80	; 128
    5bb0:	4f 2e       	mov	r4, r31
    5bb2:	ff e3       	ldi	r31, 0x3F	; 63
    5bb4:	5f 2e       	mov	r5, r31
    5bb6:	f0 2d       	mov	r31, r0
		
		if (eDisplayupdatetimer > 50)
		{
			eDisplayupdatetimer = 0;
			char* tempResultString = f_to_string(f64_PI, 20, 20);
			sprintf(ucPI, "%s", tempResultString);
    5bb8:	ce 01       	movw	r24, r28
    5bba:	01 96       	adiw	r24, 0x01	; 1
    5bbc:	3c 01       	movw	r6, r24
			sprintf(ucInteration,"%ld", i);
    5bbe:	4e 01       	movw	r8, r28
    5bc0:	95 e1       	ldi	r25, 0x15	; 21
    5bc2:	89 0e       	add	r8, r25
    5bc4:	91 1c       	adc	r9, r1
			else
			{
				vDisplayWriteStringAtPos(2,0,"Stopped");
			}
			vDisplayWriteStringAtPos(3,0,"t:%d ms",eMilisec);
			vDisplayWriteStringAtPos(3,10,"i: %s",ucInteration);
    5bc6:	0f 2e       	mov	r0, r31
    5bc8:	fa e0       	ldi	r31, 0x0A	; 10
    5bca:	ff 2e       	mov	r15, r31
    5bcc:	f0 2d       	mov	r31, r0
	TCD0.INTCTRLA = 0x03;
	TCD0.PER = 0x7F;
	
	for(;;) {
		
		updateButtons();
    5bce:	0e 94 51 17 	call	0x2ea2	; 0x2ea2 <updateButtons>
		if (getButtonPress(BUTTON1)== SHORT_PRESSED)
    5bd2:	80 e0       	ldi	r24, 0x00	; 0
    5bd4:	0e 94 de 17 	call	0x2fbc	; 0x2fbc <getButtonPress>
    5bd8:	81 30       	cpi	r24, 0x01	; 1
    5bda:	51 f4       	brne	.+20     	; 0x5bf0 <vAusgabe+0xa8>
		{
			xEventGroupSetBits(xSettings,1);
    5bdc:	41 e0       	ldi	r20, 0x01	; 1
    5bde:	50 e0       	ldi	r21, 0x00	; 0
    5be0:	60 e0       	ldi	r22, 0x00	; 0
    5be2:	70 e0       	ldi	r23, 0x00	; 0
    5be4:	80 91 2d 2e 	lds	r24, 0x2E2D	; 0x802e2d <xSettings>
    5be8:	90 91 2e 2e 	lds	r25, 0x2E2E	; 0x802e2e <xSettings+0x1>
    5bec:	0e 94 63 19 	call	0x32c6	; 0x32c6 <xEventGroupSetBits>
		}
		if (getButtonPress(BUTTON2)== SHORT_PRESSED)
    5bf0:	81 e0       	ldi	r24, 0x01	; 1
    5bf2:	0e 94 de 17 	call	0x2fbc	; 0x2fbc <getButtonPress>
    5bf6:	81 30       	cpi	r24, 0x01	; 1
    5bf8:	51 f4       	brne	.+20     	; 0x5c0e <vAusgabe+0xc6>
		{
			xEventGroupClearBits(xSettings,1);
    5bfa:	41 e0       	ldi	r20, 0x01	; 1
    5bfc:	50 e0       	ldi	r21, 0x00	; 0
    5bfe:	60 e0       	ldi	r22, 0x00	; 0
    5c00:	70 e0       	ldi	r23, 0x00	; 0
    5c02:	80 91 2d 2e 	lds	r24, 0x2E2D	; 0x802e2d <xSettings>
    5c06:	90 91 2e 2e 	lds	r25, 0x2E2E	; 0x802e2e <xSettings+0x1>
    5c0a:	0e 94 33 19 	call	0x3266	; 0x3266 <xEventGroupClearBits>
		}
		if (getButtonPress(BUTTON3)== SHORT_PRESSED)
    5c0e:	82 e0       	ldi	r24, 0x02	; 2
    5c10:	0e 94 de 17 	call	0x2fbc	; 0x2fbc <getButtonPress>
    5c14:	81 30       	cpi	r24, 0x01	; 1
    5c16:	19 f4       	brne	.+6      	; 0x5c1e <vAusgabe+0xd6>
		{
			usReset = 1;
    5c18:	aa 24       	eor	r10, r10
    5c1a:	a3 94       	inc	r10
    5c1c:	b1 2c       	mov	r11, r1
		}
		if (getButtonPress(BUTTON4)== SHORT_PRESSED)
    5c1e:	83 e0       	ldi	r24, 0x03	; 3
    5c20:	0e 94 de 17 	call	0x2fbc	; 0x2fbc <getButtonPress>
    5c24:	81 30       	cpi	r24, 0x01	; 1
    5c26:	b1 f4       	brne	.+44     	; 0x5c54 <vAusgabe+0x10c>
		{
			if (usAlgorithmusmodus < 2)
    5c28:	a2 e0       	ldi	r26, 0x02	; 2
    5c2a:	ca 16       	cp	r12, r26
    5c2c:	d1 04       	cpc	r13, r1
    5c2e:	0c f5       	brge	.+66     	; 0x5c72 <vAusgabe+0x12a>
			{
				usAlgorithmusmodus++;
    5c30:	bf ef       	ldi	r27, 0xFF	; 255
    5c32:	cb 1a       	sub	r12, r27
    5c34:	db 0a       	sbc	r13, r27
				usAlgorithmusmodus = 0;
			}
			usReset = 1;
		}
		
		switch (usAlgorithmusmodus)
    5c36:	21 e0       	ldi	r18, 0x01	; 1
    5c38:	c2 16       	cp	r12, r18
    5c3a:	d1 04       	cpc	r13, r1
    5c3c:	09 f4       	brne	.+2      	; 0x5c40 <vAusgabe+0xf8>
    5c3e:	4f c0       	rjmp	.+158    	; 0x5cde <vAusgabe+0x196>
    5c40:	32 e0       	ldi	r19, 0x02	; 2
    5c42:	c3 16       	cp	r12, r19
    5c44:	d1 04       	cpc	r13, r1
    5c46:	09 f4       	brne	.+2      	; 0x5c4a <vAusgabe+0x102>
    5c48:	7d c0       	rjmp	.+250    	; 0x5d44 <vAusgabe+0x1fc>
    5c4a:	c1 14       	cp	r12, r1
    5c4c:	d1 04       	cpc	r13, r1
    5c4e:	09 f0       	breq	.+2      	; 0x5c52 <vAusgabe+0x10a>
    5c50:	97 c0       	rjmp	.+302    	; 0x5d80 <vAusgabe+0x238>
    5c52:	13 c0       	rjmp	.+38     	; 0x5c7a <vAusgabe+0x132>
    5c54:	81 e0       	ldi	r24, 0x01	; 1
    5c56:	c8 16       	cp	r12, r24
    5c58:	d1 04       	cpc	r13, r1
    5c5a:	09 f4       	brne	.+2      	; 0x5c5e <vAusgabe+0x116>
    5c5c:	43 c0       	rjmp	.+134    	; 0x5ce4 <vAusgabe+0x19c>
    5c5e:	92 e0       	ldi	r25, 0x02	; 2
    5c60:	c9 16       	cp	r12, r25
    5c62:	d1 04       	cpc	r13, r1
    5c64:	09 f4       	brne	.+2      	; 0x5c68 <vAusgabe+0x120>
    5c66:	71 c0       	rjmp	.+226    	; 0x5d4a <vAusgabe+0x202>
    5c68:	c1 14       	cp	r12, r1
    5c6a:	d1 04       	cpc	r13, r1
    5c6c:	09 f0       	breq	.+2      	; 0x5c70 <vAusgabe+0x128>
    5c6e:	83 c0       	rjmp	.+262    	; 0x5d76 <vAusgabe+0x22e>
    5c70:	07 c0       	rjmp	.+14     	; 0x5c80 <vAusgabe+0x138>
			}
			else
			{
				usAlgorithmusmodus = 0;
			}
			usReset = 1;
    5c72:	aa 24       	eor	r10, r10
    5c74:	a3 94       	inc	r10
    5c76:	b1 2c       	mov	r11, r1
    5c78:	03 c0       	rjmp	.+6      	; 0x5c80 <vAusgabe+0x138>
    5c7a:	aa 24       	eor	r10, r10
    5c7c:	a3 94       	inc	r10
    5c7e:	b1 2c       	mov	r11, r1
		}
		
		switch (usAlgorithmusmodus)
		{
			case 0:
				vTaskSuspend( Algorytmus3 );
    5c80:	80 91 1f 2e 	lds	r24, 0x2E1F	; 0x802e1f <Algorytmus3>
    5c84:	90 91 20 2e 	lds	r25, 0x2E20	; 0x802e20 <Algorytmus3+0x1>
    5c88:	0e 94 dd 23 	call	0x47ba	; 0x47ba <vTaskSuspend>
				vTaskSuspend( Algorytmus2 );
    5c8c:	80 91 1d 2e 	lds	r24, 0x2E1D	; 0x802e1d <Algorytmus2>
    5c90:	90 91 1e 2e 	lds	r25, 0x2E1E	; 0x802e1e <Algorytmus2+0x1>
    5c94:	0e 94 dd 23 	call	0x47ba	; 0x47ba <vTaskSuspend>
				vTaskResume( Algorytmus1  );
    5c98:	80 91 1b 2e 	lds	r24, 0x2E1B	; 0x802e1b <Algorytmus1>
    5c9c:	90 91 1c 2e 	lds	r25, 0x2E1C	; 0x802e1c <Algorytmus1+0x1>
    5ca0:	0e 94 3e 21 	call	0x427c	; 0x427c <vTaskResume>
				f64_PI = f_sd(ulPI);
    5ca4:	60 91 1c 20 	lds	r22, 0x201C	; 0x80201c <ulPI>
    5ca8:	70 91 1d 20 	lds	r23, 0x201D	; 0x80201d <ulPI+0x1>
    5cac:	80 91 1e 20 	lds	r24, 0x201E	; 0x80201e <ulPI+0x2>
    5cb0:	90 91 1f 20 	lds	r25, 0x201F	; 0x80201f <ulPI+0x3>
    5cb4:	0e 94 79 0a 	call	0x14f2	; 0x14f2 <f_sd>
    5cb8:	20 93 96 2d 	sts	0x2D96, r18	; 0x802d96 <f64_PI>
    5cbc:	30 93 97 2d 	sts	0x2D97, r19	; 0x802d97 <f64_PI+0x1>
    5cc0:	40 93 98 2d 	sts	0x2D98, r20	; 0x802d98 <f64_PI+0x2>
    5cc4:	50 93 99 2d 	sts	0x2D99, r21	; 0x802d99 <f64_PI+0x3>
    5cc8:	60 93 9a 2d 	sts	0x2D9A, r22	; 0x802d9a <f64_PI+0x4>
    5ccc:	70 93 9b 2d 	sts	0x2D9B, r23	; 0x802d9b <f64_PI+0x5>
    5cd0:	80 93 9c 2d 	sts	0x2D9C, r24	; 0x802d9c <f64_PI+0x6>
    5cd4:	90 93 9d 2d 	sts	0x2D9D, r25	; 0x802d9d <f64_PI+0x7>
				break;
    5cd8:	c1 2c       	mov	r12, r1
    5cda:	d1 2c       	mov	r13, r1
    5cdc:	4c c0       	rjmp	.+152    	; 0x5d76 <vAusgabe+0x22e>
			}
			else
			{
				usAlgorithmusmodus = 0;
			}
			usReset = 1;
    5cde:	aa 24       	eor	r10, r10
    5ce0:	a3 94       	inc	r10
    5ce2:	b1 2c       	mov	r11, r1
				vTaskSuspend( Algorytmus2 );
				vTaskResume( Algorytmus1  );
				f64_PI = f_sd(ulPI);
				break;
			case 1:
				vTaskSuspend( Algorytmus3 );
    5ce4:	80 91 1f 2e 	lds	r24, 0x2E1F	; 0x802e1f <Algorytmus3>
    5ce8:	90 91 20 2e 	lds	r25, 0x2E20	; 0x802e20 <Algorytmus3+0x1>
    5cec:	0e 94 dd 23 	call	0x47ba	; 0x47ba <vTaskSuspend>
				vTaskSuspend( Algorytmus1 );
    5cf0:	80 91 1b 2e 	lds	r24, 0x2E1B	; 0x802e1b <Algorytmus1>
    5cf4:	90 91 1c 2e 	lds	r25, 0x2E1C	; 0x802e1c <Algorytmus1+0x1>
    5cf8:	0e 94 dd 23 	call	0x47ba	; 0x47ba <vTaskSuspend>
				vTaskResume( Algorytmus2  );
    5cfc:	80 91 1d 2e 	lds	r24, 0x2E1D	; 0x802e1d <Algorytmus2>
    5d00:	90 91 1e 2e 	lds	r25, 0x2E1E	; 0x802e1e <Algorytmus2+0x1>
    5d04:	0e 94 3e 21 	call	0x427c	; 0x427c <vTaskResume>
				f64_PI = f_sd(ulPI);
    5d08:	60 91 1c 20 	lds	r22, 0x201C	; 0x80201c <ulPI>
    5d0c:	70 91 1d 20 	lds	r23, 0x201D	; 0x80201d <ulPI+0x1>
    5d10:	80 91 1e 20 	lds	r24, 0x201E	; 0x80201e <ulPI+0x2>
    5d14:	90 91 1f 20 	lds	r25, 0x201F	; 0x80201f <ulPI+0x3>
    5d18:	0e 94 79 0a 	call	0x14f2	; 0x14f2 <f_sd>
    5d1c:	20 93 96 2d 	sts	0x2D96, r18	; 0x802d96 <f64_PI>
    5d20:	30 93 97 2d 	sts	0x2D97, r19	; 0x802d97 <f64_PI+0x1>
    5d24:	40 93 98 2d 	sts	0x2D98, r20	; 0x802d98 <f64_PI+0x2>
    5d28:	50 93 99 2d 	sts	0x2D99, r21	; 0x802d99 <f64_PI+0x3>
    5d2c:	60 93 9a 2d 	sts	0x2D9A, r22	; 0x802d9a <f64_PI+0x4>
    5d30:	70 93 9b 2d 	sts	0x2D9B, r23	; 0x802d9b <f64_PI+0x5>
    5d34:	80 93 9c 2d 	sts	0x2D9C, r24	; 0x802d9c <f64_PI+0x6>
    5d38:	90 93 9d 2d 	sts	0x2D9D, r25	; 0x802d9d <f64_PI+0x7>
				break;
    5d3c:	cc 24       	eor	r12, r12
    5d3e:	c3 94       	inc	r12
    5d40:	d1 2c       	mov	r13, r1
    5d42:	19 c0       	rjmp	.+50     	; 0x5d76 <vAusgabe+0x22e>
			}
			else
			{
				usAlgorithmusmodus = 0;
			}
			usReset = 1;
    5d44:	aa 24       	eor	r10, r10
    5d46:	a3 94       	inc	r10
    5d48:	b1 2c       	mov	r11, r1
				vTaskSuspend( Algorytmus1 );
				vTaskResume( Algorytmus2  );
				f64_PI = f_sd(ulPI);
				break;
			case 2:
				vTaskSuspend( Algorytmus2 );
    5d4a:	80 91 1d 2e 	lds	r24, 0x2E1D	; 0x802e1d <Algorytmus2>
    5d4e:	90 91 1e 2e 	lds	r25, 0x2E1E	; 0x802e1e <Algorytmus2+0x1>
    5d52:	0e 94 dd 23 	call	0x47ba	; 0x47ba <vTaskSuspend>
				vTaskSuspend( Algorytmus1 );
    5d56:	80 91 1b 2e 	lds	r24, 0x2E1B	; 0x802e1b <Algorytmus1>
    5d5a:	90 91 1c 2e 	lds	r25, 0x2E1C	; 0x802e1c <Algorytmus1+0x1>
    5d5e:	0e 94 dd 23 	call	0x47ba	; 0x47ba <vTaskSuspend>
				vTaskResume( Algorytmus3  );
    5d62:	80 91 1f 2e 	lds	r24, 0x2E1F	; 0x802e1f <Algorytmus3>
    5d66:	90 91 20 2e 	lds	r25, 0x2E20	; 0x802e20 <Algorytmus3+0x1>
    5d6a:	0e 94 3e 21 	call	0x427c	; 0x427c <vTaskResume>
				break;
    5d6e:	68 94       	set
    5d70:	cc 24       	eor	r12, r12
    5d72:	c1 f8       	bld	r12, 1
    5d74:	d1 2c       	mov	r13, r1
			default:break;
			
		}
		
		if (usReset == 1)
    5d76:	a1 e0       	ldi	r26, 0x01	; 1
    5d78:	aa 16       	cp	r10, r26
    5d7a:	b1 04       	cpc	r11, r1
    5d7c:	09 f0       	breq	.+2      	; 0x5d80 <vAusgabe+0x238>
    5d7e:	b3 c0       	rjmp	.+358    	; 0x5ee6 <vAusgabe+0x39e>
		{
			usReset = 0;
			xEventGroupClearBits(xSettings,1);
    5d80:	41 e0       	ldi	r20, 0x01	; 1
    5d82:	50 e0       	ldi	r21, 0x00	; 0
    5d84:	60 e0       	ldi	r22, 0x00	; 0
    5d86:	70 e0       	ldi	r23, 0x00	; 0
    5d88:	80 91 2d 2e 	lds	r24, 0x2E2D	; 0x802e2d <xSettings>
    5d8c:	90 91 2e 2e 	lds	r25, 0x2E2E	; 0x802e2e <xSettings+0x1>
    5d90:	0e 94 33 19 	call	0x3266	; 0x3266 <xEventGroupClearBits>
			vTaskDelay(10 / portTICK_RATE_MS);
    5d94:	6a e0       	ldi	r22, 0x0A	; 10
    5d96:	70 e0       	ldi	r23, 0x00	; 0
    5d98:	80 e0       	ldi	r24, 0x00	; 0
    5d9a:	90 e0       	ldi	r25, 0x00	; 0
    5d9c:	0e 94 33 23 	call	0x4666	; 0x4666 <vTaskDelay>
			ulPI = 1;
    5da0:	20 92 1c 20 	sts	0x201C, r2	; 0x80201c <ulPI>
    5da4:	30 92 1d 20 	sts	0x201D, r3	; 0x80201d <ulPI+0x1>
    5da8:	40 92 1e 20 	sts	0x201E, r4	; 0x80201e <ulPI+0x2>
    5dac:	50 92 1f 20 	sts	0x201F, r5	; 0x80201f <ulPI+0x3>
			i = 0;
    5db0:	10 92 d8 2d 	sts	0x2DD8, r1	; 0x802dd8 <i>
    5db4:	10 92 d9 2d 	sts	0x2DD9, r1	; 0x802dd9 <i+0x1>
    5db8:	10 92 da 2d 	sts	0x2DDA, r1	; 0x802dda <i+0x2>
    5dbc:	10 92 db 2d 	sts	0x2DDB, r1	; 0x802ddb <i+0x3>
    5dc0:	10 92 dc 2d 	sts	0x2DDC, r1	; 0x802ddc <i+0x4>
    5dc4:	10 92 dd 2d 	sts	0x2DDD, r1	; 0x802ddd <i+0x5>
    5dc8:	10 92 de 2d 	sts	0x2DDE, r1	; 0x802dde <i+0x6>
    5dcc:	10 92 df 2d 	sts	0x2DDF, r1	; 0x802ddf <i+0x7>
			eMilisec = 0;
    5dd0:	10 92 d4 2d 	sts	0x2DD4, r1	; 0x802dd4 <eMilisec>
    5dd4:	10 92 d5 2d 	sts	0x2DD5, r1	; 0x802dd5 <eMilisec+0x1>
    5dd8:	10 92 d6 2d 	sts	0x2DD6, r1	; 0x802dd6 <eMilisec+0x2>
    5ddc:	10 92 d7 2d 	sts	0x2DD7, r1	; 0x802dd7 <eMilisec+0x3>
			ulPI4 = 1;
    5de0:	20 92 18 20 	sts	0x2018, r2	; 0x802018 <ulPI4>
    5de4:	30 92 19 20 	sts	0x2019, r3	; 0x802019 <ulPI4+0x1>
    5de8:	40 92 1a 20 	sts	0x201A, r4	; 0x80201a <ulPI4+0x2>
    5dec:	50 92 1b 20 	sts	0x201B, r5	; 0x80201b <ulPI4+0x3>
			ula = 1;
    5df0:	20 92 10 20 	sts	0x2010, r2	; 0x802010 <ula>
    5df4:	30 92 11 20 	sts	0x2011, r3	; 0x802011 <ula+0x1>
    5df8:	40 92 12 20 	sts	0x2012, r4	; 0x802012 <ula+0x2>
    5dfc:	50 92 13 20 	sts	0x2013, r5	; 0x802013 <ula+0x3>
			ulb = 1/sqrt(2);
    5e00:	83 ef       	ldi	r24, 0xF3	; 243
    5e02:	94 e0       	ldi	r25, 0x04	; 4
    5e04:	a5 e3       	ldi	r26, 0x35	; 53
    5e06:	bf e3       	ldi	r27, 0x3F	; 63
    5e08:	80 93 0c 20 	sts	0x200C, r24	; 0x80200c <ulb>
    5e0c:	90 93 0d 20 	sts	0x200D, r25	; 0x80200d <ulb+0x1>
    5e10:	a0 93 0e 20 	sts	0x200E, r26	; 0x80200e <ulb+0x2>
    5e14:	b0 93 0f 20 	sts	0x200F, r27	; 0x80200f <ulb+0x3>
			uls = 0.25;
    5e18:	80 e0       	ldi	r24, 0x00	; 0
    5e1a:	90 e0       	ldi	r25, 0x00	; 0
    5e1c:	a0 e8       	ldi	r26, 0x80	; 128
    5e1e:	be e3       	ldi	r27, 0x3E	; 62
    5e20:	80 93 08 20 	sts	0x2008, r24	; 0x802008 <uls>
    5e24:	90 93 09 20 	sts	0x2009, r25	; 0x802009 <uls+0x1>
    5e28:	a0 93 0a 20 	sts	0x200A, r26	; 0x80200a <uls+0x2>
    5e2c:	b0 93 0b 20 	sts	0x200B, r27	; 0x80200b <uls+0x3>
			usZeitstop = 0;
    5e30:	10 92 d2 2d 	sts	0x2DD2, r1	; 0x802dd2 <usZeitstop>
    5e34:	10 92 d3 2d 	sts	0x2DD3, r1	; 0x802dd3 <usZeitstop+0x1>
			f64_b = f_sd(1/sqrt(2));
    5e38:	63 ef       	ldi	r22, 0xF3	; 243
    5e3a:	74 e0       	ldi	r23, 0x04	; 4
    5e3c:	85 e3       	ldi	r24, 0x35	; 53
    5e3e:	9f e3       	ldi	r25, 0x3F	; 63
    5e40:	0e 94 79 0a 	call	0x14f2	; 0x14f2 <f_sd>
    5e44:	20 93 b6 2d 	sts	0x2DB6, r18	; 0x802db6 <f64_b>
    5e48:	30 93 b7 2d 	sts	0x2DB7, r19	; 0x802db7 <f64_b+0x1>
    5e4c:	40 93 b8 2d 	sts	0x2DB8, r20	; 0x802db8 <f64_b+0x2>
    5e50:	50 93 b9 2d 	sts	0x2DB9, r21	; 0x802db9 <f64_b+0x3>
    5e54:	60 93 ba 2d 	sts	0x2DBA, r22	; 0x802dba <f64_b+0x4>
    5e58:	70 93 bb 2d 	sts	0x2DBB, r23	; 0x802dbb <f64_b+0x5>
    5e5c:	80 93 bc 2d 	sts	0x2DBC, r24	; 0x802dbc <f64_b+0x6>
    5e60:	90 93 bd 2d 	sts	0x2DBD, r25	; 0x802dbd <f64_b+0x7>
			f64_s = f_sd(0.25);
    5e64:	60 e0       	ldi	r22, 0x00	; 0
    5e66:	70 e0       	ldi	r23, 0x00	; 0
    5e68:	80 e8       	ldi	r24, 0x80	; 128
    5e6a:	9e e3       	ldi	r25, 0x3E	; 62
    5e6c:	0e 94 79 0a 	call	0x14f2	; 0x14f2 <f_sd>
    5e70:	20 93 a6 2d 	sts	0x2DA6, r18	; 0x802da6 <f64_s>
    5e74:	30 93 a7 2d 	sts	0x2DA7, r19	; 0x802da7 <f64_s+0x1>
    5e78:	40 93 a8 2d 	sts	0x2DA8, r20	; 0x802da8 <f64_s+0x2>
    5e7c:	50 93 a9 2d 	sts	0x2DA9, r21	; 0x802da9 <f64_s+0x3>
    5e80:	60 93 aa 2d 	sts	0x2DAA, r22	; 0x802daa <f64_s+0x4>
    5e84:	70 93 ab 2d 	sts	0x2DAB, r23	; 0x802dab <f64_s+0x5>
    5e88:	80 93 ac 2d 	sts	0x2DAC, r24	; 0x802dac <f64_s+0x6>
    5e8c:	90 93 ad 2d 	sts	0x2DAD, r25	; 0x802dad <f64_s+0x7>
			f64_a = f_sd(1);
    5e90:	c2 01       	movw	r24, r4
    5e92:	b1 01       	movw	r22, r2
    5e94:	0e 94 79 0a 	call	0x14f2	; 0x14f2 <f_sd>
    5e98:	20 93 00 20 	sts	0x2000, r18	; 0x802000 <__data_start>
    5e9c:	30 93 01 20 	sts	0x2001, r19	; 0x802001 <__data_start+0x1>
    5ea0:	40 93 02 20 	sts	0x2002, r20	; 0x802002 <__data_start+0x2>
    5ea4:	50 93 03 20 	sts	0x2003, r21	; 0x802003 <__data_start+0x3>
    5ea8:	60 93 04 20 	sts	0x2004, r22	; 0x802004 <__data_start+0x4>
    5eac:	70 93 05 20 	sts	0x2005, r23	; 0x802005 <__data_start+0x5>
    5eb0:	80 93 06 20 	sts	0x2006, r24	; 0x802006 <__data_start+0x6>
    5eb4:	90 93 07 20 	sts	0x2007, r25	; 0x802007 <__data_start+0x7>
			f64_PI = f_sd(0);
    5eb8:	60 e0       	ldi	r22, 0x00	; 0
    5eba:	70 e0       	ldi	r23, 0x00	; 0
    5ebc:	cb 01       	movw	r24, r22
    5ebe:	0e 94 79 0a 	call	0x14f2	; 0x14f2 <f_sd>
    5ec2:	20 93 96 2d 	sts	0x2D96, r18	; 0x802d96 <f64_PI>
    5ec6:	30 93 97 2d 	sts	0x2D97, r19	; 0x802d97 <f64_PI+0x1>
    5eca:	40 93 98 2d 	sts	0x2D98, r20	; 0x802d98 <f64_PI+0x2>
    5ece:	50 93 99 2d 	sts	0x2D99, r21	; 0x802d99 <f64_PI+0x3>
    5ed2:	60 93 9a 2d 	sts	0x2D9A, r22	; 0x802d9a <f64_PI+0x4>
    5ed6:	70 93 9b 2d 	sts	0x2D9B, r23	; 0x802d9b <f64_PI+0x5>
    5eda:	80 93 9c 2d 	sts	0x2D9C, r24	; 0x802d9c <f64_PI+0x6>
    5ede:	90 93 9d 2d 	sts	0x2D9D, r25	; 0x802d9d <f64_PI+0x7>
			
		}
		
		if (usReset == 1)
		{
			usReset = 0;
    5ee2:	a1 2c       	mov	r10, r1
    5ee4:	b1 2c       	mov	r11, r1
			f64_s = f_sd(0.25);
			f64_a = f_sd(1);
			f64_PI = f_sd(0);
		}
		
		if (eDisplayupdatetimer > 50)
    5ee6:	03 33       	cpi	r16, 0x33	; 51
    5ee8:	11 05       	cpc	r17, r1
    5eea:	0c f4       	brge	.+2      	; 0x5eee <vAusgabe+0x3a6>
    5eec:	b1 c0       	rjmp	.+354    	; 0x6050 <vAusgabe+0x508>
		{
			eDisplayupdatetimer = 0;
			char* tempResultString = f_to_string(f64_PI, 20, 20);
    5eee:	20 91 96 2d 	lds	r18, 0x2D96	; 0x802d96 <f64_PI>
    5ef2:	30 91 97 2d 	lds	r19, 0x2D97	; 0x802d97 <f64_PI+0x1>
    5ef6:	40 91 98 2d 	lds	r20, 0x2D98	; 0x802d98 <f64_PI+0x2>
    5efa:	50 91 99 2d 	lds	r21, 0x2D99	; 0x802d99 <f64_PI+0x3>
    5efe:	60 91 9a 2d 	lds	r22, 0x2D9A	; 0x802d9a <f64_PI+0x4>
    5f02:	70 91 9b 2d 	lds	r23, 0x2D9B	; 0x802d9b <f64_PI+0x5>
    5f06:	0f 2e       	mov	r0, r31
    5f08:	f4 e1       	ldi	r31, 0x14	; 20
    5f0a:	ef 2e       	mov	r14, r31
    5f0c:	f0 2d       	mov	r31, r0
    5f0e:	04 e1       	ldi	r16, 0x14	; 20
    5f10:	80 91 9c 2d 	lds	r24, 0x2D9C	; 0x802d9c <f64_PI+0x6>
    5f14:	90 91 9d 2d 	lds	r25, 0x2D9D	; 0x802d9d <f64_PI+0x7>
    5f18:	0e 94 d5 14 	call	0x29aa	; 0x29aa <f_to_string>
			sprintf(ucPI, "%s", tempResultString);
    5f1c:	bc 01       	movw	r22, r24
    5f1e:	c3 01       	movw	r24, r6
    5f20:	0e 94 7c 41 	call	0x82f8	; 0x82f8 <strcpy>
			sprintf(ucInteration,"%ld", i);
    5f24:	80 91 df 2d 	lds	r24, 0x2DDF	; 0x802ddf <i+0x7>
    5f28:	8f 93       	push	r24
    5f2a:	80 91 de 2d 	lds	r24, 0x2DDE	; 0x802dde <i+0x6>
    5f2e:	8f 93       	push	r24
    5f30:	80 91 dd 2d 	lds	r24, 0x2DDD	; 0x802ddd <i+0x5>
    5f34:	8f 93       	push	r24
    5f36:	80 91 dc 2d 	lds	r24, 0x2DDC	; 0x802ddc <i+0x4>
    5f3a:	8f 93       	push	r24
    5f3c:	80 91 db 2d 	lds	r24, 0x2DDB	; 0x802ddb <i+0x3>
    5f40:	8f 93       	push	r24
    5f42:	80 91 da 2d 	lds	r24, 0x2DDA	; 0x802dda <i+0x2>
    5f46:	8f 93       	push	r24
    5f48:	80 91 d9 2d 	lds	r24, 0x2DD9	; 0x802dd9 <i+0x1>
    5f4c:	8f 93       	push	r24
    5f4e:	80 91 d8 2d 	lds	r24, 0x2DD8	; 0x802dd8 <i>
    5f52:	8f 93       	push	r24
    5f54:	a2 e3       	ldi	r26, 0x32	; 50
    5f56:	b0 e2       	ldi	r27, 0x20	; 32
    5f58:	bf 93       	push	r27
    5f5a:	af 93       	push	r26
    5f5c:	9f 92       	push	r9
    5f5e:	8f 92       	push	r8
    5f60:	0e 94 ef 41 	call	0x83de	; 0x83de <sprintf>
			vDisplayClear();
    5f64:	0e 94 b2 33 	call	0x6764	; 0x6764 <vDisplayClear>
			vDisplayWriteStringAtPos(0,0,"alg. %d PI:",usAlgorithmusmodus+1);
    5f68:	c6 01       	movw	r24, r12
    5f6a:	01 96       	adiw	r24, 0x01	; 1
    5f6c:	9f 93       	push	r25
    5f6e:	8f 93       	push	r24
    5f70:	86 e3       	ldi	r24, 0x36	; 54
    5f72:	90 e2       	ldi	r25, 0x20	; 32
    5f74:	9f 93       	push	r25
    5f76:	8f 93       	push	r24
    5f78:	1f 92       	push	r1
    5f7a:	1f 92       	push	r1
    5f7c:	1f 92       	push	r1
    5f7e:	1f 92       	push	r1
    5f80:	0e 94 bd 33 	call	0x677a	; 0x677a <vDisplayWriteStringAtPos>
			vDisplayWriteStringAtPos(1,0,"%s",ucPI);
    5f84:	7f 92       	push	r7
    5f86:	6f 92       	push	r6
    5f88:	2d e5       	ldi	r18, 0x5D	; 93
    5f8a:	30 e2       	ldi	r19, 0x20	; 32
    5f8c:	3f 93       	push	r19
    5f8e:	2f 93       	push	r18
    5f90:	1f 92       	push	r1
    5f92:	1f 92       	push	r1
    5f94:	1f 92       	push	r1
    5f96:	81 e0       	ldi	r24, 0x01	; 1
    5f98:	8f 93       	push	r24
    5f9a:	0e 94 bd 33 	call	0x677a	; 0x677a <vDisplayWriteStringAtPos>
			if ((xEventGroupGetBits(xSettings) && 0x01) == 1)
    5f9e:	40 e0       	ldi	r20, 0x00	; 0
    5fa0:	50 e0       	ldi	r21, 0x00	; 0
    5fa2:	ba 01       	movw	r22, r20
    5fa4:	80 91 2d 2e 	lds	r24, 0x2E2D	; 0x802e2d <xSettings>
    5fa8:	90 91 2e 2e 	lds	r25, 0x2E2E	; 0x802e2e <xSettings+0x1>
    5fac:	0e 94 33 19 	call	0x3266	; 0x3266 <xEventGroupClearBits>
    5fb0:	cd bf       	out	0x3d, r28	; 61
    5fb2:	de bf       	out	0x3e, r29	; 62
    5fb4:	67 2b       	or	r22, r23
    5fb6:	68 2b       	or	r22, r24
    5fb8:	69 2b       	or	r22, r25
    5fba:	91 f0       	breq	.+36     	; 0x5fe0 <vAusgabe+0x498>
			{
				vDisplayWriteStringAtPos(2,0,"Running");
    5fbc:	22 e4       	ldi	r18, 0x42	; 66
    5fbe:	30 e2       	ldi	r19, 0x20	; 32
    5fc0:	3f 93       	push	r19
    5fc2:	2f 93       	push	r18
    5fc4:	1f 92       	push	r1
    5fc6:	1f 92       	push	r1
    5fc8:	1f 92       	push	r1
    5fca:	82 e0       	ldi	r24, 0x02	; 2
    5fcc:	8f 93       	push	r24
    5fce:	0e 94 bd 33 	call	0x677a	; 0x677a <vDisplayWriteStringAtPos>
    5fd2:	0f 90       	pop	r0
    5fd4:	0f 90       	pop	r0
    5fd6:	0f 90       	pop	r0
    5fd8:	0f 90       	pop	r0
    5fda:	0f 90       	pop	r0
    5fdc:	0f 90       	pop	r0
    5fde:	11 c0       	rjmp	.+34     	; 0x6002 <vAusgabe+0x4ba>
			}
			else
			{
				vDisplayWriteStringAtPos(2,0,"Stopped");
    5fe0:	aa e4       	ldi	r26, 0x4A	; 74
    5fe2:	b0 e2       	ldi	r27, 0x20	; 32
    5fe4:	bf 93       	push	r27
    5fe6:	af 93       	push	r26
    5fe8:	1f 92       	push	r1
    5fea:	1f 92       	push	r1
    5fec:	1f 92       	push	r1
    5fee:	82 e0       	ldi	r24, 0x02	; 2
    5ff0:	8f 93       	push	r24
    5ff2:	0e 94 bd 33 	call	0x677a	; 0x677a <vDisplayWriteStringAtPos>
    5ff6:	0f 90       	pop	r0
    5ff8:	0f 90       	pop	r0
    5ffa:	0f 90       	pop	r0
    5ffc:	0f 90       	pop	r0
    5ffe:	0f 90       	pop	r0
    6000:	0f 90       	pop	r0
			}
			vDisplayWriteStringAtPos(3,0,"t:%d ms",eMilisec);
    6002:	80 91 d7 2d 	lds	r24, 0x2DD7	; 0x802dd7 <eMilisec+0x3>
    6006:	8f 93       	push	r24
    6008:	80 91 d6 2d 	lds	r24, 0x2DD6	; 0x802dd6 <eMilisec+0x2>
    600c:	8f 93       	push	r24
    600e:	80 91 d5 2d 	lds	r24, 0x2DD5	; 0x802dd5 <eMilisec+0x1>
    6012:	8f 93       	push	r24
    6014:	80 91 d4 2d 	lds	r24, 0x2DD4	; 0x802dd4 <eMilisec>
    6018:	8f 93       	push	r24
    601a:	82 e5       	ldi	r24, 0x52	; 82
    601c:	90 e2       	ldi	r25, 0x20	; 32
    601e:	9f 93       	push	r25
    6020:	8f 93       	push	r24
    6022:	1f 92       	push	r1
    6024:	1f 92       	push	r1
    6026:	1f 92       	push	r1
    6028:	13 e0       	ldi	r17, 0x03	; 3
    602a:	1f 93       	push	r17
    602c:	0e 94 bd 33 	call	0x677a	; 0x677a <vDisplayWriteStringAtPos>
			vDisplayWriteStringAtPos(3,10,"i: %s",ucInteration);
    6030:	9f 92       	push	r9
    6032:	8f 92       	push	r8
    6034:	2a e5       	ldi	r18, 0x5A	; 90
    6036:	30 e2       	ldi	r19, 0x20	; 32
    6038:	3f 93       	push	r19
    603a:	2f 93       	push	r18
    603c:	1f 92       	push	r1
    603e:	ff 92       	push	r15
    6040:	1f 92       	push	r1
    6042:	1f 93       	push	r17
    6044:	0e 94 bd 33 	call	0x677a	; 0x677a <vDisplayWriteStringAtPos>
    6048:	cd bf       	out	0x3d, r28	; 61
    604a:	de bf       	out	0x3e, r29	; 62
			f64_PI = f_sd(0);
		}
		
		if (eDisplayupdatetimer > 50)
		{
			eDisplayupdatetimer = 0;
    604c:	00 e0       	ldi	r16, 0x00	; 0
    604e:	10 e0       	ldi	r17, 0x00	; 0
				vDisplayWriteStringAtPos(2,0,"Stopped");
			}
			vDisplayWriteStringAtPos(3,0,"t:%d ms",eMilisec);
			vDisplayWriteStringAtPos(3,10,"i: %s",ucInteration);
		}
		eDisplayupdatetimer++;
    6050:	0f 5f       	subi	r16, 0xFF	; 255
    6052:	1f 4f       	sbci	r17, 0xFF	; 255
		vTaskDelay(10 / portTICK_RATE_MS);
    6054:	6a e0       	ldi	r22, 0x0A	; 10
    6056:	70 e0       	ldi	r23, 0x00	; 0
    6058:	80 e0       	ldi	r24, 0x00	; 0
    605a:	90 e0       	ldi	r25, 0x00	; 0
    605c:	0e 94 33 23 	call	0x4666	; 0x4666 <vTaskDelay>
	}
    6060:	b6 cd       	rjmp	.-1172   	; 0x5bce <vAusgabe+0x86>

00006062 <vApplicationIdleHook>:

float64_t f64_PI = 0;


void vApplicationIdleHook( void )
{	
    6062:	08 95       	ret

00006064 <main>:
	
}

int main(void)
{
    6064:	ef 92       	push	r14
    6066:	ff 92       	push	r15
    6068:	0f 93       	push	r16
    606a:	cf 93       	push	r28
    resetReason_t reason = getResetReason();
    606c:	0e 94 60 37 	call	0x6ec0	; 0x6ec0 <getResetReason>
    6070:	c8 2f       	mov	r28, r24

	vInitClock();
    6072:	0e 94 92 28 	call	0x5124	; 0x5124 <vInitClock>
	vInitDisplay();
    6076:	0e 94 36 32 	call	0x646c	; 0x646c <vInitDisplay>
	
	xTaskCreate( vAlgorithmus1, (const char *) "Algorytmus1", configMINIMAL_STACK_SIZE+100, NULL, 1, &Algorytmus1);
    607a:	0f 2e       	mov	r0, r31
    607c:	fb e1       	ldi	r31, 0x1B	; 27
    607e:	ef 2e       	mov	r14, r31
    6080:	fe e2       	ldi	r31, 0x2E	; 46
    6082:	ff 2e       	mov	r15, r31
    6084:	f0 2d       	mov	r31, r0
    6086:	01 e0       	ldi	r16, 0x01	; 1
    6088:	20 e0       	ldi	r18, 0x00	; 0
    608a:	30 e0       	ldi	r19, 0x00	; 0
    608c:	4c e2       	ldi	r20, 0x2C	; 44
    608e:	51 e0       	ldi	r21, 0x01	; 1
    6090:	60 e6       	ldi	r22, 0x60	; 96
    6092:	70 e2       	ldi	r23, 0x20	; 32
    6094:	8a ec       	ldi	r24, 0xCA	; 202
    6096:	98 e2       	ldi	r25, 0x28	; 40
    6098:	0e 94 29 20 	call	0x4052	; 0x4052 <xTaskCreate>
	xTaskCreate( vAlgorithmus2, (const char *) "Algorytmus2", configMINIMAL_STACK_SIZE+100, NULL, 1, &Algorytmus2);
    609c:	0f 2e       	mov	r0, r31
    609e:	fd e1       	ldi	r31, 0x1D	; 29
    60a0:	ef 2e       	mov	r14, r31
    60a2:	fe e2       	ldi	r31, 0x2E	; 46
    60a4:	ff 2e       	mov	r15, r31
    60a6:	f0 2d       	mov	r31, r0
    60a8:	20 e0       	ldi	r18, 0x00	; 0
    60aa:	30 e0       	ldi	r19, 0x00	; 0
    60ac:	4c e2       	ldi	r20, 0x2C	; 44
    60ae:	51 e0       	ldi	r21, 0x01	; 1
    60b0:	6c e6       	ldi	r22, 0x6C	; 108
    60b2:	70 e2       	ldi	r23, 0x20	; 32
    60b4:	8d ea       	ldi	r24, 0xAD	; 173
    60b6:	99 e2       	ldi	r25, 0x29	; 41
    60b8:	0e 94 29 20 	call	0x4052	; 0x4052 <xTaskCreate>
	xTaskCreate( vAlgorithmus3, (const char *) "Algorytmus2", configMINIMAL_STACK_SIZE+200, NULL, 1, &Algorytmus3);
    60bc:	0f 2e       	mov	r0, r31
    60be:	ff e1       	ldi	r31, 0x1F	; 31
    60c0:	ef 2e       	mov	r14, r31
    60c2:	fe e2       	ldi	r31, 0x2E	; 46
    60c4:	ff 2e       	mov	r15, r31
    60c6:	f0 2d       	mov	r31, r0
    60c8:	20 e0       	ldi	r18, 0x00	; 0
    60ca:	30 e0       	ldi	r19, 0x00	; 0
    60cc:	40 e9       	ldi	r20, 0x90	; 144
    60ce:	51 e0       	ldi	r21, 0x01	; 1
    60d0:	6c e6       	ldi	r22, 0x6C	; 108
    60d2:	70 e2       	ldi	r23, 0x20	; 32
    60d4:	80 ef       	ldi	r24, 0xF0	; 240
    60d6:	9a e2       	ldi	r25, 0x2A	; 42
    60d8:	0e 94 29 20 	call	0x4052	; 0x4052 <xTaskCreate>
	xTaskCreate( vAusgabe, (const char *) "Ausgabe", configMINIMAL_STACK_SIZE+300, NULL, 2, &Ausgabe);
    60dc:	0f 2e       	mov	r0, r31
    60de:	fd e0       	ldi	r31, 0x0D	; 13
    60e0:	ef 2e       	mov	r14, r31
    60e2:	fe e2       	ldi	r31, 0x2E	; 46
    60e4:	ff 2e       	mov	r15, r31
    60e6:	f0 2d       	mov	r31, r0
    60e8:	02 e0       	ldi	r16, 0x02	; 2
    60ea:	20 e0       	ldi	r18, 0x00	; 0
    60ec:	30 e0       	ldi	r19, 0x00	; 0
    60ee:	44 ef       	ldi	r20, 0xF4	; 244
    60f0:	51 e0       	ldi	r21, 0x01	; 1
    60f2:	68 e7       	ldi	r22, 0x78	; 120
    60f4:	70 e2       	ldi	r23, 0x20	; 32
    60f6:	84 ea       	ldi	r24, 0xA4	; 164
    60f8:	9d e2       	ldi	r25, 0x2D	; 45
    60fa:	0e 94 29 20 	call	0x4052	; 0x4052 <xTaskCreate>
	
	xSettings = xEventGroupCreate();
    60fe:	0e 94 59 18 	call	0x30b2	; 0x30b2 <xEventGroupCreate>
    6102:	80 93 2d 2e 	sts	0x2E2D, r24	; 0x802e2d <xSettings>
    6106:	90 93 2e 2e 	sts	0x2E2E, r25	; 0x802e2e <xSettings+0x1>

	vDisplayClear();
    610a:	0e 94 b2 33 	call	0x6764	; 0x6764 <vDisplayClear>
	vDisplayWriteStringAtPos(0,0,"FreeRTOS 10.0.1");
    610e:	80 e8       	ldi	r24, 0x80	; 128
    6110:	90 e2       	ldi	r25, 0x20	; 32
    6112:	9f 93       	push	r25
    6114:	8f 93       	push	r24
    6116:	1f 92       	push	r1
    6118:	1f 92       	push	r1
    611a:	1f 92       	push	r1
    611c:	1f 92       	push	r1
    611e:	0e 94 bd 33 	call	0x677a	; 0x677a <vDisplayWriteStringAtPos>
	vDisplayWriteStringAtPos(1,0,"EDUBoard 1.0");
    6122:	80 e9       	ldi	r24, 0x90	; 144
    6124:	90 e2       	ldi	r25, 0x20	; 32
    6126:	9f 93       	push	r25
    6128:	8f 93       	push	r24
    612a:	1f 92       	push	r1
    612c:	1f 92       	push	r1
    612e:	1f 92       	push	r1
    6130:	81 e0       	ldi	r24, 0x01	; 1
    6132:	8f 93       	push	r24
    6134:	0e 94 bd 33 	call	0x677a	; 0x677a <vDisplayWriteStringAtPos>
	vDisplayWriteStringAtPos(2,0,"Template");
    6138:	8d e9       	ldi	r24, 0x9D	; 157
    613a:	90 e2       	ldi	r25, 0x20	; 32
    613c:	9f 93       	push	r25
    613e:	8f 93       	push	r24
    6140:	1f 92       	push	r1
    6142:	1f 92       	push	r1
    6144:	1f 92       	push	r1
    6146:	82 e0       	ldi	r24, 0x02	; 2
    6148:	8f 93       	push	r24
    614a:	0e 94 bd 33 	call	0x677a	; 0x677a <vDisplayWriteStringAtPos>
	vDisplayWriteStringAtPos(3,0,"ResetReason: %d", reason);
    614e:	1f 92       	push	r1
    6150:	cf 93       	push	r28
    6152:	86 ea       	ldi	r24, 0xA6	; 166
    6154:	90 e2       	ldi	r25, 0x20	; 32
    6156:	9f 93       	push	r25
    6158:	8f 93       	push	r24
    615a:	1f 92       	push	r1
    615c:	1f 92       	push	r1
    615e:	1f 92       	push	r1
    6160:	83 e0       	ldi	r24, 0x03	; 3
    6162:	8f 93       	push	r24
    6164:	0e 94 bd 33 	call	0x677a	; 0x677a <vDisplayWriteStringAtPos>
	vTaskStartScheduler();
    6168:	0e 94 8b 21 	call	0x4316	; 0x4316 <vTaskStartScheduler>
    616c:	8d b7       	in	r24, 0x3d	; 61
    616e:	9e b7       	in	r25, 0x3e	; 62
    6170:	4a 96       	adiw	r24, 0x1a	; 26
    6172:	8d bf       	out	0x3d, r24	; 61
    6174:	9e bf       	out	0x3e, r25	; 62
	return 0;
}
    6176:	80 e0       	ldi	r24, 0x00	; 0
    6178:	90 e0       	ldi	r25, 0x00	; 0
    617a:	cf 91       	pop	r28
    617c:	0f 91       	pop	r16
    617e:	ff 90       	pop	r15
    6180:	ef 90       	pop	r14
    6182:	08 95       	ret

00006184 <__vector_77>:
/*--------------------------------------------------------------------------------------*/
/* Der Interrrupt ist zustndig fr die Zeitmessung */
/*--------------------------------------------------------------------------------------*/

ISR(TCD0_OVF_vect)
{
    6184:	1f 92       	push	r1
    6186:	0f 92       	push	r0
    6188:	0f b6       	in	r0, 0x3f	; 63
    618a:	0f 92       	push	r0
    618c:	11 24       	eor	r1, r1
    618e:	0b b6       	in	r0, 0x3b	; 59
    6190:	0f 92       	push	r0
    6192:	2f 93       	push	r18
    6194:	3f 93       	push	r19
    6196:	4f 93       	push	r20
    6198:	5f 93       	push	r21
    619a:	6f 93       	push	r22
    619c:	7f 93       	push	r23
    619e:	8f 93       	push	r24
    61a0:	9f 93       	push	r25
    61a2:	af 93       	push	r26
    61a4:	bf 93       	push	r27
    61a6:	ef 93       	push	r30
    61a8:	ff 93       	push	r31
	sprintf(ucPi_berechnet,"%.5f", ulPI-0.000005);
    61aa:	2c ea       	ldi	r18, 0xAC	; 172
    61ac:	35 ec       	ldi	r19, 0xC5	; 197
    61ae:	47 ea       	ldi	r20, 0xA7	; 167
    61b0:	56 e3       	ldi	r21, 0x36	; 54
    61b2:	60 91 1c 20 	lds	r22, 0x201C	; 0x80201c <ulPI>
    61b6:	70 91 1d 20 	lds	r23, 0x201D	; 0x80201d <ulPI+0x1>
    61ba:	80 91 1e 20 	lds	r24, 0x201E	; 0x80201e <ulPI+0x2>
    61be:	90 91 1f 20 	lds	r25, 0x201F	; 0x80201f <ulPI+0x3>
    61c2:	0e 94 86 37 	call	0x6f0c	; 0x6f0c <__subsf3>
    61c6:	9f 93       	push	r25
    61c8:	8f 93       	push	r24
    61ca:	7f 93       	push	r23
    61cc:	6f 93       	push	r22
    61ce:	8d e2       	ldi	r24, 0x2D	; 45
    61d0:	90 e2       	ldi	r25, 0x20	; 32
    61d2:	9f 93       	push	r25
    61d4:	8f 93       	push	r24
    61d6:	81 e2       	ldi	r24, 0x21	; 33
    61d8:	9e e2       	ldi	r25, 0x2E	; 46
    61da:	9f 93       	push	r25
    61dc:	8f 93       	push	r24
    61de:	0e 94 ef 41 	call	0x83de	; 0x83de <sprintf>
	
	if ((xEventGroupGetBitsFromISR(xSettings) && 0x01) == 1) 
    61e2:	80 91 2d 2e 	lds	r24, 0x2E2D	; 0x802e2d <xSettings>
    61e6:	90 91 2e 2e 	lds	r25, 0x2E2E	; 0x802e2e <xSettings+0x1>
    61ea:	0e 94 54 19 	call	0x32a8	; 0x32a8 <xEventGroupGetBitsFromISR>
    61ee:	2d b7       	in	r18, 0x3d	; 61
    61f0:	3e b7       	in	r19, 0x3e	; 62
    61f2:	28 5f       	subi	r18, 0xF8	; 248
    61f4:	3f 4f       	sbci	r19, 0xFF	; 255
    61f6:	2d bf       	out	0x3d, r18	; 61
    61f8:	3e bf       	out	0x3e, r19	; 62
    61fa:	67 2b       	or	r22, r23
    61fc:	68 2b       	or	r22, r24
    61fe:	69 2b       	or	r22, r25
    6200:	09 f1       	breq	.+66     	; 0x6244 <__vector_77+0xc0>
	{
		if ((strcmp(ucPi_berechnet,ucPi_gegeben)== 0)|| (usZeitstop == 1))
    6202:	6f e0       	ldi	r22, 0x0F	; 15
    6204:	7e e2       	ldi	r23, 0x2E	; 46
    6206:	81 e2       	ldi	r24, 0x21	; 33
    6208:	9e e2       	ldi	r25, 0x2E	; 46
    620a:	0e 94 73 41 	call	0x82e6	; 0x82e6 <strcmp>
    620e:	89 2b       	or	r24, r25
    6210:	c9 f0       	breq	.+50     	; 0x6244 <__vector_77+0xc0>
    6212:	80 91 d2 2d 	lds	r24, 0x2DD2	; 0x802dd2 <usZeitstop>
    6216:	90 91 d3 2d 	lds	r25, 0x2DD3	; 0x802dd3 <usZeitstop+0x1>
    621a:	01 97       	sbiw	r24, 0x01	; 1
    621c:	99 f0       	breq	.+38     	; 0x6244 <__vector_77+0xc0>
		{
			
		}
		else 
		{
			eMilisec++;
    621e:	80 91 d4 2d 	lds	r24, 0x2DD4	; 0x802dd4 <eMilisec>
    6222:	90 91 d5 2d 	lds	r25, 0x2DD5	; 0x802dd5 <eMilisec+0x1>
    6226:	a0 91 d6 2d 	lds	r26, 0x2DD6	; 0x802dd6 <eMilisec+0x2>
    622a:	b0 91 d7 2d 	lds	r27, 0x2DD7	; 0x802dd7 <eMilisec+0x3>
    622e:	01 96       	adiw	r24, 0x01	; 1
    6230:	a1 1d       	adc	r26, r1
    6232:	b1 1d       	adc	r27, r1
    6234:	80 93 d4 2d 	sts	0x2DD4, r24	; 0x802dd4 <eMilisec>
    6238:	90 93 d5 2d 	sts	0x2DD5, r25	; 0x802dd5 <eMilisec+0x1>
    623c:	a0 93 d6 2d 	sts	0x2DD6, r26	; 0x802dd6 <eMilisec+0x2>
    6240:	b0 93 d7 2d 	sts	0x2DD7, r27	; 0x802dd7 <eMilisec+0x3>
		}
	}
    6244:	ff 91       	pop	r31
    6246:	ef 91       	pop	r30
    6248:	bf 91       	pop	r27
    624a:	af 91       	pop	r26
    624c:	9f 91       	pop	r25
    624e:	8f 91       	pop	r24
    6250:	7f 91       	pop	r23
    6252:	6f 91       	pop	r22
    6254:	5f 91       	pop	r21
    6256:	4f 91       	pop	r20
    6258:	3f 91       	pop	r19
    625a:	2f 91       	pop	r18
    625c:	0f 90       	pop	r0
    625e:	0b be       	out	0x3b, r0	; 59
    6260:	0f 90       	pop	r0
    6262:	0f be       	out	0x3f, r0	; 63
    6264:	0f 90       	pop	r0
    6266:	1f 90       	pop	r1
    6268:	18 95       	reti

0000626a <__vector_108>:
 void displayHome() {
	 command(0x02);
 }
 void _displayClear() {
	 command(0x01);
	 delayUS(2000);
    626a:	1f 92       	push	r1
    626c:	0f 92       	push	r0
    626e:	0f b6       	in	r0, 0x3f	; 63
    6270:	0f 92       	push	r0
    6272:	11 24       	eor	r1, r1
    6274:	0b b6       	in	r0, 0x3b	; 59
    6276:	0f 92       	push	r0
    6278:	2f 93       	push	r18
    627a:	3f 93       	push	r19
    627c:	4f 93       	push	r20
    627e:	5f 93       	push	r21
    6280:	6f 93       	push	r22
    6282:	7f 93       	push	r23
    6284:	8f 93       	push	r24
    6286:	9f 93       	push	r25
    6288:	af 93       	push	r26
    628a:	bf 93       	push	r27
    628c:	ef 93       	push	r30
    628e:	ff 93       	push	r31
    6290:	cf 93       	push	r28
    6292:	df 93       	push	r29
    6294:	1f 92       	push	r1
    6296:	cd b7       	in	r28, 0x3d	; 61
    6298:	de b7       	in	r29, 0x3e	; 62
    629a:	19 82       	std	Y+1, r1	; 0x01
    629c:	9e 01       	movw	r18, r28
    629e:	2f 5f       	subi	r18, 0xFF	; 255
    62a0:	3f 4f       	sbci	r19, 0xFF	; 255
    62a2:	41 e0       	ldi	r20, 0x01	; 1
    62a4:	50 e0       	ldi	r21, 0x00	; 0
    62a6:	60 e0       	ldi	r22, 0x00	; 0
    62a8:	70 e0       	ldi	r23, 0x00	; 0
    62aa:	80 91 31 2e 	lds	r24, 0x2E31	; 0x802e31 <egDisplayTiming>
    62ae:	90 91 32 2e 	lds	r25, 0x2E32	; 0x802e32 <egDisplayTiming+0x1>
    62b2:	0e 94 f8 19 	call	0x33f0	; 0x33f0 <xEventGroupSetBitsFromISR>
    62b6:	60 e0       	ldi	r22, 0x00	; 0
    62b8:	80 e0       	ldi	r24, 0x00	; 0
    62ba:	9b e0       	ldi	r25, 0x0B	; 11
    62bc:	0e 94 3d 18 	call	0x307a	; 0x307a <TC0_ConfigClockSource>
    62c0:	10 92 06 0b 	sts	0x0B06, r1	; 0x800b06 <__TEXT_REGION_LENGTH__+0x700b06>
    62c4:	0f 90       	pop	r0
    62c6:	df 91       	pop	r29
    62c8:	cf 91       	pop	r28
    62ca:	ff 91       	pop	r31
    62cc:	ef 91       	pop	r30
    62ce:	bf 91       	pop	r27
    62d0:	af 91       	pop	r26
    62d2:	9f 91       	pop	r25
    62d4:	8f 91       	pop	r24
    62d6:	7f 91       	pop	r23
    62d8:	6f 91       	pop	r22
    62da:	5f 91       	pop	r21
    62dc:	4f 91       	pop	r20
    62de:	3f 91       	pop	r19
    62e0:	2f 91       	pop	r18
    62e2:	0f 90       	pop	r0
    62e4:	0b be       	out	0x3b, r0	; 59
    62e6:	0f 90       	pop	r0
    62e8:	0f be       	out	0x3f, r0	; 63
    62ea:	0f 90       	pop	r0
    62ec:	1f 90       	pop	r1
    62ee:	18 95       	reti

000062f0 <delayUS>:
    62f0:	cf 92       	push	r12
    62f2:	df 92       	push	r13
    62f4:	ef 92       	push	r14
    62f6:	ff 92       	push	r15
    62f8:	0f 93       	push	r16
    62fa:	6b 01       	movw	r12, r22
    62fc:	7c 01       	movw	r14, r24
    62fe:	82 e0       	ldi	r24, 0x02	; 2
    6300:	c8 16       	cp	r12, r24
    6302:	d1 04       	cpc	r13, r1
    6304:	e1 04       	cpc	r14, r1
    6306:	f1 04       	cpc	r15, r1
    6308:	08 f4       	brcc	.+2      	; 0x630c <delayUS+0x1c>
    630a:	4e c0       	rjmp	.+156    	; 0x63a8 <delayUS+0xb8>
    630c:	e0 e0       	ldi	r30, 0x00	; 0
    630e:	fb e0       	ldi	r31, 0x0B	; 11
    6310:	81 e0       	ldi	r24, 0x01	; 1
    6312:	86 83       	std	Z+6, r24	; 0x06
    6314:	10 a2       	std	Z+32, r1	; 0x20
    6316:	11 a2       	std	Z+33, r1	; 0x21
    6318:	60 e0       	ldi	r22, 0x00	; 0
    631a:	80 e0       	ldi	r24, 0x00	; 0
    631c:	9b e0       	ldi	r25, 0x0B	; 11
    631e:	0e 94 43 18 	call	0x3086	; 0x3086 <TC0_ConfigWGM>
    6322:	8e ef       	ldi	r24, 0xFE	; 254
    6324:	c8 16       	cp	r12, r24
    6326:	8f ef       	ldi	r24, 0xFF	; 255
    6328:	d8 06       	cpc	r13, r24
    632a:	e1 04       	cpc	r14, r1
    632c:	f1 04       	cpc	r15, r1
    632e:	70 f4       	brcc	.+28     	; 0x634c <delayUS+0x5c>
    6330:	f6 94       	lsr	r15
    6332:	e7 94       	ror	r14
    6334:	d7 94       	ror	r13
    6336:	c7 94       	ror	r12
    6338:	c0 92 26 0b 	sts	0x0B26, r12	; 0x800b26 <__TEXT_REGION_LENGTH__+0x700b26>
    633c:	d0 92 27 0b 	sts	0x0B27, r13	; 0x800b27 <__TEXT_REGION_LENGTH__+0x700b27>
    6340:	65 e0       	ldi	r22, 0x05	; 5
    6342:	80 e0       	ldi	r24, 0x00	; 0
    6344:	9b e0       	ldi	r25, 0x0B	; 11
    6346:	0e 94 3d 18 	call	0x307a	; 0x307a <TC0_ConfigClockSource>
    634a:	19 c0       	rjmp	.+50     	; 0x637e <delayUS+0x8e>
    634c:	80 e4       	ldi	r24, 0x40	; 64
    634e:	c8 16       	cp	r12, r24
    6350:	82 e4       	ldi	r24, 0x42	; 66
    6352:	d8 06       	cpc	r13, r24
    6354:	8f e0       	ldi	r24, 0x0F	; 15
    6356:	e8 06       	cpc	r14, r24
    6358:	f1 04       	cpc	r15, r1
    635a:	88 f4       	brcc	.+34     	; 0x637e <delayUS+0x8e>
    635c:	68 94       	set
    635e:	14 f8       	bld	r1, 4
    6360:	f6 94       	lsr	r15
    6362:	e7 94       	ror	r14
    6364:	d7 94       	ror	r13
    6366:	c7 94       	ror	r12
    6368:	16 94       	lsr	r1
    636a:	d1 f7       	brne	.-12     	; 0x6360 <delayUS+0x70>
    636c:	c0 92 26 0b 	sts	0x0B26, r12	; 0x800b26 <__TEXT_REGION_LENGTH__+0x700b26>
    6370:	d0 92 27 0b 	sts	0x0B27, r13	; 0x800b27 <__TEXT_REGION_LENGTH__+0x700b27>
    6374:	67 e0       	ldi	r22, 0x07	; 7
    6376:	80 e0       	ldi	r24, 0x00	; 0
    6378:	9b e0       	ldi	r25, 0x0B	; 11
    637a:	0e 94 3d 18 	call	0x307a	; 0x307a <TC0_ConfigClockSource>
    637e:	0f 2e       	mov	r0, r31
    6380:	f4 ef       	ldi	r31, 0xF4	; 244
    6382:	cf 2e       	mov	r12, r31
    6384:	dd 24       	eor	r13, r13
    6386:	d3 94       	inc	r13
    6388:	e1 2c       	mov	r14, r1
    638a:	f1 2c       	mov	r15, r1
    638c:	f0 2d       	mov	r31, r0
    638e:	00 e0       	ldi	r16, 0x00	; 0
    6390:	21 e0       	ldi	r18, 0x01	; 1
    6392:	41 e0       	ldi	r20, 0x01	; 1
    6394:	50 e0       	ldi	r21, 0x00	; 0
    6396:	60 e0       	ldi	r22, 0x00	; 0
    6398:	70 e0       	ldi	r23, 0x00	; 0
    639a:	80 91 31 2e 	lds	r24, 0x2E31	; 0x802e31 <egDisplayTiming>
    639e:	90 91 32 2e 	lds	r25, 0x2E32	; 0x802e32 <egDisplayTiming+0x1>
    63a2:	0e 94 6e 18 	call	0x30dc	; 0x30dc <xEventGroupWaitBits>
    63a6:	11 c0       	rjmp	.+34     	; 0x63ca <delayUS+0xda>
    63a8:	e0 e0       	ldi	r30, 0x00	; 0
    63aa:	fb e0       	ldi	r31, 0x0B	; 11
    63ac:	81 e0       	ldi	r24, 0x01	; 1
    63ae:	86 83       	std	Z+6, r24	; 0x06
    63b0:	10 a2       	std	Z+32, r1	; 0x20
    63b2:	11 a2       	std	Z+33, r1	; 0x21
    63b4:	60 e0       	ldi	r22, 0x00	; 0
    63b6:	80 e0       	ldi	r24, 0x00	; 0
    63b8:	9b e0       	ldi	r25, 0x0B	; 11
    63ba:	0e 94 43 18 	call	0x3086	; 0x3086 <TC0_ConfigWGM>
    63be:	c1 2c       	mov	r12, r1
    63c0:	d1 2c       	mov	r13, r1
    63c2:	76 01       	movw	r14, r12
    63c4:	68 94       	set
    63c6:	c1 f8       	bld	r12, 1
    63c8:	b3 cf       	rjmp	.-154    	; 0x6330 <delayUS+0x40>
    63ca:	0f 91       	pop	r16
    63cc:	ff 90       	pop	r15
    63ce:	ef 90       	pop	r14
    63d0:	df 90       	pop	r13
    63d2:	cf 90       	pop	r12
    63d4:	08 95       	ret

000063d6 <setPort>:
    63d6:	82 95       	swap	r24
    63d8:	80 7f       	andi	r24, 0xF0	; 240
    63da:	e0 e0       	ldi	r30, 0x00	; 0
    63dc:	f6 e0       	ldi	r31, 0x06	; 6
    63de:	94 81       	ldd	r25, Z+4	; 0x04
    63e0:	28 2f       	mov	r18, r24
    63e2:	2f 60       	ori	r18, 0x0F	; 15
    63e4:	92 23       	and	r25, r18
    63e6:	94 83       	std	Z+4, r25	; 0x04
    63e8:	94 81       	ldd	r25, Z+4	; 0x04
    63ea:	89 2b       	or	r24, r25
    63ec:	84 83       	std	Z+4, r24	; 0x04
    63ee:	08 95       	ret

000063f0 <Nybble>:
    63f0:	1f 93       	push	r17
    63f2:	cf 93       	push	r28
    63f4:	df 93       	push	r29
    63f6:	c0 e6       	ldi	r28, 0x60	; 96
    63f8:	d6 e0       	ldi	r29, 0x06	; 6
    63fa:	14 e0       	ldi	r17, 0x04	; 4
    63fc:	1d 83       	std	Y+5, r17	; 0x05
    63fe:	61 e0       	ldi	r22, 0x01	; 1
    6400:	70 e0       	ldi	r23, 0x00	; 0
    6402:	80 e0       	ldi	r24, 0x00	; 0
    6404:	90 e0       	ldi	r25, 0x00	; 0
    6406:	0e 94 78 31 	call	0x62f0	; 0x62f0 <delayUS>
    640a:	1e 83       	std	Y+6, r17	; 0x06
    640c:	df 91       	pop	r29
    640e:	cf 91       	pop	r28
    6410:	1f 91       	pop	r17
    6412:	08 95       	ret

00006414 <command>:
    6414:	cf 93       	push	r28
    6416:	c8 2f       	mov	r28, r24
    6418:	82 95       	swap	r24
    641a:	8f 70       	andi	r24, 0x0F	; 15
    641c:	0e 94 eb 31 	call	0x63d6	; 0x63d6 <setPort>
    6420:	e0 e6       	ldi	r30, 0x60	; 96
    6422:	f6 e0       	ldi	r31, 0x06	; 6
    6424:	81 e0       	ldi	r24, 0x01	; 1
    6426:	86 83       	std	Z+6, r24	; 0x06
    6428:	82 e0       	ldi	r24, 0x02	; 2
    642a:	86 83       	std	Z+6, r24	; 0x06
    642c:	0e 94 f8 31 	call	0x63f0	; 0x63f0 <Nybble>
    6430:	8c 2f       	mov	r24, r28
    6432:	8f 70       	andi	r24, 0x0F	; 15
    6434:	0e 94 eb 31 	call	0x63d6	; 0x63d6 <setPort>
    6438:	0e 94 f8 31 	call	0x63f0	; 0x63f0 <Nybble>
    643c:	cf 91       	pop	r28
    643e:	08 95       	ret

00006440 <write>:
    6440:	cf 93       	push	r28
    6442:	c8 2f       	mov	r28, r24
    6444:	82 95       	swap	r24
    6446:	8f 70       	andi	r24, 0x0F	; 15
    6448:	0e 94 eb 31 	call	0x63d6	; 0x63d6 <setPort>
    644c:	e0 e6       	ldi	r30, 0x60	; 96
    644e:	f6 e0       	ldi	r31, 0x06	; 6
    6450:	81 e0       	ldi	r24, 0x01	; 1
    6452:	85 83       	std	Z+5, r24	; 0x05
    6454:	82 e0       	ldi	r24, 0x02	; 2
    6456:	86 83       	std	Z+6, r24	; 0x06
    6458:	0e 94 f8 31 	call	0x63f0	; 0x63f0 <Nybble>
    645c:	8c 2f       	mov	r24, r28
    645e:	8f 70       	andi	r24, 0x0F	; 15
    6460:	0e 94 eb 31 	call	0x63d6	; 0x63d6 <setPort>
    6464:	0e 94 f8 31 	call	0x63f0	; 0x63f0 <Nybble>
    6468:	cf 91       	pop	r28
    646a:	08 95       	ret

0000646c <vInitDisplay>:
 }
 
 void vInitDisplay() {
    646c:	ef 92       	push	r14
    646e:	ff 92       	push	r15
    6470:	0f 93       	push	r16
	PORTA.DIRSET = PIN4_bm;
    6472:	e0 e0       	ldi	r30, 0x00	; 0
    6474:	f6 e0       	ldi	r31, 0x06	; 6
    6476:	80 e1       	ldi	r24, 0x10	; 16
    6478:	81 83       	std	Z+1, r24	; 0x01
	PORTA.DIRSET = PIN5_bm;
    647a:	80 e2       	ldi	r24, 0x20	; 32
    647c:	81 83       	std	Z+1, r24	; 0x01
	PORTA.DIRSET = PIN6_bm;
    647e:	80 e4       	ldi	r24, 0x40	; 64
    6480:	81 83       	std	Z+1, r24	; 0x01
	PORTA.DIRSET = PIN7_bm;
    6482:	80 e8       	ldi	r24, 0x80	; 128
    6484:	81 83       	std	Z+1, r24	; 0x01
	PORTD.DIRSET = PIN0_bm;
    6486:	a0 e6       	ldi	r26, 0x60	; 96
    6488:	b6 e0       	ldi	r27, 0x06	; 6
    648a:	81 e0       	ldi	r24, 0x01	; 1
    648c:	11 96       	adiw	r26, 0x01	; 1
    648e:	8c 93       	st	X, r24
    6490:	11 97       	sbiw	r26, 0x01	; 1
	PORTD.DIRSET = PIN1_bm;
    6492:	82 e0       	ldi	r24, 0x02	; 2
    6494:	11 96       	adiw	r26, 0x01	; 1
    6496:	8c 93       	st	X, r24
    6498:	11 97       	sbiw	r26, 0x01	; 1
	PORTD.DIRSET = PIN2_bm;
    649a:	84 e0       	ldi	r24, 0x04	; 4
    649c:	11 96       	adiw	r26, 0x01	; 1
    649e:	8c 93       	st	X, r24
    64a0:	11 97       	sbiw	r26, 0x01	; 1
	PORTA.OUT &= 0x0F;
    64a2:	84 81       	ldd	r24, Z+4	; 0x04
    64a4:	8f 70       	andi	r24, 0x0F	; 15
    64a6:	84 83       	std	Z+4, r24	; 0x04
	PORTD.OUT &= 0xF8;
    64a8:	14 96       	adiw	r26, 0x04	; 4
    64aa:	8c 91       	ld	r24, X
    64ac:	14 97       	sbiw	r26, 0x04	; 4
    64ae:	88 7f       	andi	r24, 0xF8	; 248
    64b0:	14 96       	adiw	r26, 0x04	; 4
    64b2:	8c 93       	st	X, r24

	if((displayLineQueue = xQueueCreate(DISPLAY_QUEUE_DEPTH, sizeof(displayLine_t))) == NULL)
    64b4:	40 e0       	ldi	r20, 0x00	; 0
    64b6:	66 e1       	ldi	r22, 0x16	; 22
    64b8:	88 e0       	ldi	r24, 0x08	; 8
    64ba:	0e 94 8f 1d 	call	0x3b1e	; 0x3b1e <xQueueGenericCreate>
    64be:	80 93 2f 2e 	sts	0x2E2F, r24	; 0x802e2f <displayLineQueue>
    64c2:	90 93 30 2e 	sts	0x2E30, r25	; 0x802e30 <displayLineQueue+0x1>
	{
		//error(ERR_QUEUE_CREATE_HANDLE_NULL);
	}
	
	egDisplayTiming = xEventGroupCreate();
    64c6:	0e 94 59 18 	call	0x30b2	; 0x30b2 <xEventGroupCreate>
    64ca:	80 93 31 2e 	sts	0x2E31, r24	; 0x802e31 <egDisplayTiming>
    64ce:	90 93 32 2e 	sts	0x2E32, r25	; 0x802e32 <egDisplayTiming+0x1>
	

	xTaskCreate(vDisplayUpdateTask, (const char*) "dispUpdate", configMINIMAL_STACK_SIZE+150, NULL, 2, NULL);	
    64d2:	e1 2c       	mov	r14, r1
    64d4:	f1 2c       	mov	r15, r1
    64d6:	02 e0       	ldi	r16, 0x02	; 2
    64d8:	20 e0       	ldi	r18, 0x00	; 0
    64da:	30 e0       	ldi	r19, 0x00	; 0
    64dc:	4e e5       	ldi	r20, 0x5E	; 94
    64de:	51 e0       	ldi	r21, 0x01	; 1
    64e0:	66 eb       	ldi	r22, 0xB6	; 182
    64e2:	70 e2       	ldi	r23, 0x20	; 32
    64e4:	84 ed       	ldi	r24, 0xD4	; 212
    64e6:	92 e3       	ldi	r25, 0x32	; 50
    64e8:	0e 94 29 20 	call	0x4052	; 0x4052 <xTaskCreate>
 }
    64ec:	0f 91       	pop	r16
    64ee:	ff 90       	pop	r15
    64f0:	ef 90       	pop	r14
    64f2:	08 95       	ret

000064f4 <_displaySetPos>:
 
 void _displaySetPos(int line, int pos) {
	 switch(line) {
    64f4:	81 30       	cpi	r24, 0x01	; 1
    64f6:	91 05       	cpc	r25, r1
    64f8:	79 f0       	breq	.+30     	; 0x6518 <_displaySetPos+0x24>
    64fa:	1c f4       	brge	.+6      	; 0x6502 <_displaySetPos+0xe>
    64fc:	89 2b       	or	r24, r25
    64fe:	39 f0       	breq	.+14     	; 0x650e <_displaySetPos+0x1a>
    6500:	19 c0       	rjmp	.+50     	; 0x6534 <_displaySetPos+0x40>
    6502:	82 30       	cpi	r24, 0x02	; 2
    6504:	91 05       	cpc	r25, r1
    6506:	69 f0       	breq	.+26     	; 0x6522 <_displaySetPos+0x2e>
    6508:	03 97       	sbiw	r24, 0x03	; 3
    650a:	81 f0       	breq	.+32     	; 0x652c <_displaySetPos+0x38>
    650c:	13 c0       	rjmp	.+38     	; 0x6534 <_displaySetPos+0x40>
		 case 0:
		 command(0x80 + 0x00 + pos);
    650e:	80 e8       	ldi	r24, 0x80	; 128
    6510:	86 0f       	add	r24, r22
    6512:	0e 94 0a 32 	call	0x6414	; 0x6414 <command>
		 break;
    6516:	0e c0       	rjmp	.+28     	; 0x6534 <_displaySetPos+0x40>
		 case 1:
		 command(0x80 + 0x40 + pos);
    6518:	80 ec       	ldi	r24, 0xC0	; 192
    651a:	86 0f       	add	r24, r22
    651c:	0e 94 0a 32 	call	0x6414	; 0x6414 <command>
		 break;
    6520:	09 c0       	rjmp	.+18     	; 0x6534 <_displaySetPos+0x40>
		 case 2:
		 command(0x80 + 0x14 + pos);
    6522:	84 e9       	ldi	r24, 0x94	; 148
    6524:	86 0f       	add	r24, r22
    6526:	0e 94 0a 32 	call	0x6414	; 0x6414 <command>
		 break;
    652a:	04 c0       	rjmp	.+8      	; 0x6534 <_displaySetPos+0x40>
		 case 3:
		 command(0x80 + 0x54 + pos);
    652c:	84 ed       	ldi	r24, 0xD4	; 212
    652e:	86 0f       	add	r24, r22
    6530:	0e 94 0a 32 	call	0x6414	; 0x6414 <command>
		 break;
	 }
	 delayUS(39);
    6534:	67 e2       	ldi	r22, 0x27	; 39
    6536:	70 e0       	ldi	r23, 0x00	; 0
    6538:	80 e0       	ldi	r24, 0x00	; 0
    653a:	90 e0       	ldi	r25, 0x00	; 0
    653c:	0e 94 78 31 	call	0x62f0	; 0x62f0 <delayUS>
    6540:	08 95       	ret

00006542 <_displayWriteChar>:
 }

 void _displayWriteChar(char c) {
	 write(c);
    6542:	0e 94 20 32 	call	0x6440	; 0x6440 <write>
	 delayUS(43);
    6546:	6b e2       	ldi	r22, 0x2B	; 43
    6548:	70 e0       	ldi	r23, 0x00	; 0
    654a:	80 e0       	ldi	r24, 0x00	; 0
    654c:	90 e0       	ldi	r25, 0x00	; 0
    654e:	0e 94 78 31 	call	0x62f0	; 0x62f0 <delayUS>
    6552:	08 95       	ret

00006554 <_displayWriteString>:
 }
 
 void _displayWriteString(char* s) {
    6554:	0f 93       	push	r16
    6556:	1f 93       	push	r17
    6558:	cf 93       	push	r28
    655a:	df 93       	push	r29
    655c:	fc 01       	movw	r30, r24
	 for(int i = 0; i < 20; i++) {
		 if(s[i] == '\0') {
    655e:	80 81       	ld	r24, Z
    6560:	81 11       	cpse	r24, r1
    6562:	0a c0       	rjmp	.+20     	; 0x6578 <_displayWriteString+0x24>
    6564:	11 c0       	rjmp	.+34     	; 0x6588 <_displayWriteString+0x34>
    6566:	89 91       	ld	r24, Y+
    6568:	88 23       	and	r24, r24
    656a:	71 f0       	breq	.+28     	; 0x6588 <_displayWriteString+0x34>
			 break;
		 }
		 _displayWriteChar(s[i]);
    656c:	0e 94 a1 32 	call	0x6542	; 0x6542 <_displayWriteChar>
	 write(c);
	 delayUS(43);
 }
 
 void _displayWriteString(char* s) {
	 for(int i = 0; i < 20; i++) {
    6570:	0c 17       	cp	r16, r28
    6572:	1d 07       	cpc	r17, r29
    6574:	c1 f7       	brne	.-16     	; 0x6566 <_displayWriteString+0x12>
    6576:	08 c0       	rjmp	.+16     	; 0x6588 <_displayWriteString+0x34>
    6578:	8f 01       	movw	r16, r30
		 if(s[i] == '\0') {
			 break;
		 }
		 _displayWriteChar(s[i]);
    657a:	0e 94 a1 32 	call	0x6542	; 0x6542 <_displayWriteChar>
    657e:	e8 01       	movw	r28, r16
    6580:	21 96       	adiw	r28, 0x01	; 1
    6582:	0c 5e       	subi	r16, 0xEC	; 236
    6584:	1f 4f       	sbci	r17, 0xFF	; 255
    6586:	ef cf       	rjmp	.-34     	; 0x6566 <_displayWriteString+0x12>
	 }
 }
    6588:	df 91       	pop	r29
    658a:	cf 91       	pop	r28
    658c:	1f 91       	pop	r17
    658e:	0f 91       	pop	r16
    6590:	08 95       	ret

00006592 <_displayWriteStringAtPos>:

 void _displayWriteStringAtPos(int line, int pos, char* s) {
    6592:	cf 93       	push	r28
    6594:	df 93       	push	r29
    6596:	ea 01       	movw	r28, r20
	 _displaySetPos(line, pos);
    6598:	0e 94 7a 32 	call	0x64f4	; 0x64f4 <_displaySetPos>
	 _displayWriteString(s);
    659c:	ce 01       	movw	r24, r28
    659e:	0e 94 aa 32 	call	0x6554	; 0x6554 <_displayWriteString>
 }
    65a2:	df 91       	pop	r29
    65a4:	cf 91       	pop	r28
    65a6:	08 95       	ret

000065a8 <vDisplayUpdateTask>:

 void vDisplayUpdateTask(void *pvParameters) {
    65a8:	cf 93       	push	r28
    65aa:	df 93       	push	r29
    65ac:	cd b7       	in	r28, 0x3d	; 61
    65ae:	de b7       	in	r29, 0x3e	; 62
    65b0:	c6 56       	subi	r28, 0x66	; 102
    65b2:	d1 09       	sbc	r29, r1
    65b4:	cd bf       	out	0x3d, r28	; 61
    65b6:	de bf       	out	0x3e, r29	; 62
    65b8:	5e 01       	movw	r10, r28
    65ba:	41 e5       	ldi	r20, 0x51	; 81
    65bc:	a4 0e       	add	r10, r20
    65be:	b1 1c       	adc	r11, r1
    65c0:	fe 01       	movw	r30, r28
    65c2:	31 96       	adiw	r30, 0x01	; 1
	 int i = 0;
	 int j = 0;
	 char displayLines[4][20];
	 for(int i = 0; i < 4;i++) {
		for(int j = 0; j < 20; j ++) {
			displayLines[i][j] = 0x20;
    65c4:	20 e2       	ldi	r18, 0x20	; 32
    65c6:	08 c0       	rjmp	.+16     	; 0x65d8 <vDisplayUpdateTask+0x30>
    65c8:	21 93       	st	Z+, r18
 void vDisplayUpdateTask(void *pvParameters) {
	 int i = 0;
	 int j = 0;
	 char displayLines[4][20];
	 for(int i = 0; i < 4;i++) {
		for(int j = 0; j < 20; j ++) {
    65ca:	e8 17       	cp	r30, r24
    65cc:	f9 07       	cpc	r31, r25
    65ce:	e1 f7       	brne	.-8      	; 0x65c8 <vDisplayUpdateTask+0x20>
    65d0:	fc 01       	movw	r30, r24

 void vDisplayUpdateTask(void *pvParameters) {
	 int i = 0;
	 int j = 0;
	 char displayLines[4][20];
	 for(int i = 0; i < 4;i++) {
    65d2:	a8 16       	cp	r10, r24
    65d4:	b9 06       	cpc	r11, r25
    65d6:	19 f0       	breq	.+6      	; 0x65de <vDisplayUpdateTask+0x36>
    65d8:	cf 01       	movw	r24, r30
    65da:	44 96       	adiw	r24, 0x14	; 20
    65dc:	f5 cf       	rjmp	.-22     	; 0x65c8 <vDisplayUpdateTask+0x20>
			displayLines[i][j] = 0x20;
		}
	 }
	 displayLine_t newLine;

	 delayUS(40000);
    65de:	60 e4       	ldi	r22, 0x40	; 64
    65e0:	7c e9       	ldi	r23, 0x9C	; 156
    65e2:	80 e0       	ldi	r24, 0x00	; 0
    65e4:	90 e0       	ldi	r25, 0x00	; 0
    65e6:	0e 94 78 31 	call	0x62f0	; 0x62f0 <delayUS>
	 setPort(0x03);
    65ea:	83 e0       	ldi	r24, 0x03	; 3
    65ec:	0e 94 eb 31 	call	0x63d6	; 0x63d6 <setPort>
	 delayUS(5000);
    65f0:	68 e8       	ldi	r22, 0x88	; 136
    65f2:	73 e1       	ldi	r23, 0x13	; 19
    65f4:	80 e0       	ldi	r24, 0x00	; 0
    65f6:	90 e0       	ldi	r25, 0x00	; 0
    65f8:	0e 94 78 31 	call	0x62f0	; 0x62f0 <delayUS>
	 Nybble();
    65fc:	0e 94 f8 31 	call	0x63f0	; 0x63f0 <Nybble>
	 delayUS(160);
    6600:	60 ea       	ldi	r22, 0xA0	; 160
    6602:	70 e0       	ldi	r23, 0x00	; 0
    6604:	80 e0       	ldi	r24, 0x00	; 0
    6606:	90 e0       	ldi	r25, 0x00	; 0
    6608:	0e 94 78 31 	call	0x62f0	; 0x62f0 <delayUS>
	 Nybble();
    660c:	0e 94 f8 31 	call	0x63f0	; 0x63f0 <Nybble>
	 delayUS(160);
    6610:	60 ea       	ldi	r22, 0xA0	; 160
    6612:	70 e0       	ldi	r23, 0x00	; 0
    6614:	80 e0       	ldi	r24, 0x00	; 0
    6616:	90 e0       	ldi	r25, 0x00	; 0
    6618:	0e 94 78 31 	call	0x62f0	; 0x62f0 <delayUS>
	 Nybble();
    661c:	0e 94 f8 31 	call	0x63f0	; 0x63f0 <Nybble>
	 delayUS(160);
    6620:	60 ea       	ldi	r22, 0xA0	; 160
    6622:	70 e0       	ldi	r23, 0x00	; 0
    6624:	80 e0       	ldi	r24, 0x00	; 0
    6626:	90 e0       	ldi	r25, 0x00	; 0
    6628:	0e 94 78 31 	call	0x62f0	; 0x62f0 <delayUS>
	 setPort(0x02);
    662c:	82 e0       	ldi	r24, 0x02	; 2
    662e:	0e 94 eb 31 	call	0x63d6	; 0x63d6 <setPort>
	 Nybble();
    6632:	0e 94 f8 31 	call	0x63f0	; 0x63f0 <Nybble>
	 command(0x28);
    6636:	88 e2       	ldi	r24, 0x28	; 40
    6638:	0e 94 0a 32 	call	0x6414	; 0x6414 <command>
	 command(0x10);
    663c:	80 e1       	ldi	r24, 0x10	; 16
    663e:	0e 94 0a 32 	call	0x6414	; 0x6414 <command>
	 command(0x0C); //Cursor and Blinking off
    6642:	8c e0       	ldi	r24, 0x0C	; 12
    6644:	0e 94 0a 32 	call	0x6414	; 0x6414 <command>
	 command(0x06);
    6648:	86 e0       	ldi	r24, 0x06	; 6
    664a:	0e 94 0a 32 	call	0x6414	; 0x6414 <command>
		 vTaskDelay(DISPLAY_UPDATE_TIME_MS/portTICK_RATE_MS);
		 if(xEventGroupGetBits(egDisplayTiming) && EG_DISPLAY_CLEAR != 0x00) {
			xEventGroupClearBits(egDisplayTiming, EG_DISPLAY_CLEAR);
			for(i = 0; i < 4;i++) {
				for(j = 0; j < 20; j ++) {
					displayLines[i][j] = 0x20;
    664e:	10 e2       	ldi	r17, 0x20	; 32
				}
			}
		 }
		 while(uxQueueMessagesWaiting(displayLineQueue) > 0) {
			 if(xQueueReceive(displayLineQueue, &newLine, portMAX_DELAY)) {	
    6650:	6e 01       	movw	r12, r28
    6652:	51 e5       	ldi	r21, 0x51	; 81
    6654:	c5 0e       	add	r12, r21
    6656:	d1 1c       	adc	r13, r1
    6658:	0f 2e       	mov	r0, r31
    665a:	f4 e1       	ldi	r31, 0x14	; 20
    665c:	4f 2e       	mov	r4, r31
    665e:	f0 2d       	mov	r31, r0
    6660:	0f 2e       	mov	r0, r31
    6662:	f6 e1       	ldi	r31, 0x16	; 22
    6664:	8f 2e       	mov	r8, r31
    6666:	91 2c       	mov	r9, r1
    6668:	f0 2d       	mov	r31, r0
    666a:	5c 2c       	mov	r5, r12
    666c:	0d 2d       	mov	r16, r13
	 command(0x10);
	 command(0x0C); //Cursor and Blinking off
	 command(0x06);
	 
	 for(;;) {		 
		 vTaskDelay(DISPLAY_UPDATE_TIME_MS/portTICK_RATE_MS);
    666e:	68 ec       	ldi	r22, 0xC8	; 200
    6670:	70 e0       	ldi	r23, 0x00	; 0
    6672:	80 e0       	ldi	r24, 0x00	; 0
    6674:	90 e0       	ldi	r25, 0x00	; 0
    6676:	0e 94 33 23 	call	0x4666	; 0x4666 <vTaskDelay>
		 if(xEventGroupGetBits(egDisplayTiming) && EG_DISPLAY_CLEAR != 0x00) {
    667a:	40 e0       	ldi	r20, 0x00	; 0
    667c:	50 e0       	ldi	r21, 0x00	; 0
    667e:	ba 01       	movw	r22, r20
    6680:	80 91 31 2e 	lds	r24, 0x2E31	; 0x802e31 <egDisplayTiming>
    6684:	90 91 32 2e 	lds	r25, 0x2E32	; 0x802e32 <egDisplayTiming+0x1>
    6688:	0e 94 33 19 	call	0x3266	; 0x3266 <xEventGroupClearBits>
    668c:	67 2b       	or	r22, r23
    668e:	68 2b       	or	r22, r24
    6690:	69 2b       	or	r22, r25
    6692:	09 f4       	brne	.+2      	; 0x6696 <vDisplayUpdateTask+0xee>
    6694:	49 c0       	rjmp	.+146    	; 0x6728 <vDisplayUpdateTask+0x180>
			xEventGroupClearBits(egDisplayTiming, EG_DISPLAY_CLEAR);
    6696:	42 e0       	ldi	r20, 0x02	; 2
    6698:	50 e0       	ldi	r21, 0x00	; 0
    669a:	60 e0       	ldi	r22, 0x00	; 0
    669c:	70 e0       	ldi	r23, 0x00	; 0
    669e:	80 91 31 2e 	lds	r24, 0x2E31	; 0x802e31 <egDisplayTiming>
    66a2:	90 91 32 2e 	lds	r25, 0x2E32	; 0x802e32 <egDisplayTiming+0x1>
    66a6:	0e 94 33 19 	call	0x3266	; 0x3266 <xEventGroupClearBits>
    66aa:	fe 01       	movw	r30, r28
    66ac:	31 96       	adiw	r30, 0x01	; 1
    66ae:	08 c0       	rjmp	.+16     	; 0x66c0 <vDisplayUpdateTask+0x118>
			for(i = 0; i < 4;i++) {
				for(j = 0; j < 20; j ++) {
					displayLines[i][j] = 0x20;
    66b0:	11 93       	st	Z+, r17
	 for(;;) {		 
		 vTaskDelay(DISPLAY_UPDATE_TIME_MS/portTICK_RATE_MS);
		 if(xEventGroupGetBits(egDisplayTiming) && EG_DISPLAY_CLEAR != 0x00) {
			xEventGroupClearBits(egDisplayTiming, EG_DISPLAY_CLEAR);
			for(i = 0; i < 4;i++) {
				for(j = 0; j < 20; j ++) {
    66b2:	e8 17       	cp	r30, r24
    66b4:	f9 07       	cpc	r31, r25
    66b6:	e1 f7       	brne	.-8      	; 0x66b0 <vDisplayUpdateTask+0x108>
    66b8:	fc 01       	movw	r30, r24
	 
	 for(;;) {		 
		 vTaskDelay(DISPLAY_UPDATE_TIME_MS/portTICK_RATE_MS);
		 if(xEventGroupGetBits(egDisplayTiming) && EG_DISPLAY_CLEAR != 0x00) {
			xEventGroupClearBits(egDisplayTiming, EG_DISPLAY_CLEAR);
			for(i = 0; i < 4;i++) {
    66ba:	8a 15       	cp	r24, r10
    66bc:	9b 05       	cpc	r25, r11
    66be:	a1 f1       	breq	.+104    	; 0x6728 <vDisplayUpdateTask+0x180>
    66c0:	cf 01       	movw	r24, r30
    66c2:	44 96       	adiw	r24, 0x14	; 20
    66c4:	f5 cf       	rjmp	.-22     	; 0x66b0 <vDisplayUpdateTask+0x108>
					displayLines[i][j] = 0x20;
				}
			}
		 }
		 while(uxQueueMessagesWaiting(displayLineQueue) > 0) {
			 if(xQueueReceive(displayLineQueue, &newLine, portMAX_DELAY)) {	
    66c6:	2f ef       	ldi	r18, 0xFF	; 255
    66c8:	3f ef       	ldi	r19, 0xFF	; 255
    66ca:	a9 01       	movw	r20, r18
    66cc:	65 2d       	mov	r22, r5
    66ce:	70 2f       	mov	r23, r16
    66d0:	80 91 2f 2e 	lds	r24, 0x2E2F	; 0x802e2f <displayLineQueue>
    66d4:	90 91 30 2e 	lds	r25, 0x2E30	; 0x802e30 <displayLineQueue+0x1>
    66d8:	0e 94 ab 1e 	call	0x3d56	; 0x3d56 <xQueueReceive>
    66dc:	88 23       	and	r24, r24
    66de:	21 f1       	breq	.+72     	; 0x6728 <vDisplayUpdateTask+0x180>
				i=0;			
				while((i+newLine.displayPos < 20) && (newLine.displayBuffer[i] != 0x00)) {				
    66e0:	f6 01       	movw	r30, r12
    66e2:	21 81       	ldd	r18, Z+1	; 0x01
    66e4:	82 2f       	mov	r24, r18
    66e6:	90 e0       	ldi	r25, 0x00	; 0
    66e8:	44 97       	sbiw	r24, 0x14	; 20
    66ea:	f4 f4       	brge	.+60     	; 0x6728 <vDisplayUpdateTask+0x180>
    66ec:	82 81       	ldd	r24, Z+2	; 0x02
    66ee:	88 23       	and	r24, r24
    66f0:	d9 f0       	breq	.+54     	; 0x6728 <vDisplayUpdateTask+0x180>
					displayLines[newLine.displayLine][i+newLine.displayPos] = newLine.displayBuffer[i];
    66f2:	90 81       	ld	r25, Z
    66f4:	30 e0       	ldi	r19, 0x00	; 0
    66f6:	d9 01       	movw	r26, r18
    66f8:	49 9e       	mul	r4, r25
    66fa:	a0 0d       	add	r26, r0
    66fc:	b1 1d       	adc	r27, r1
    66fe:	11 24       	eor	r1, r1
    6700:	41 e0       	ldi	r20, 0x01	; 1
    6702:	50 e0       	ldi	r21, 0x00	; 0
    6704:	4c 0f       	add	r20, r28
    6706:	5d 1f       	adc	r21, r29
    6708:	a4 0f       	add	r26, r20
    670a:	b5 1f       	adc	r27, r21
    670c:	33 96       	adiw	r30, 0x03	; 3
    670e:	a4 01       	movw	r20, r8
    6710:	42 1b       	sub	r20, r18
    6712:	53 0b       	sbc	r21, r19
    6714:	9a 01       	movw	r18, r20
    6716:	2c 0d       	add	r18, r12
    6718:	3d 1d       	adc	r19, r13
    671a:	8d 93       	st	X+, r24
			}
		 }
		 while(uxQueueMessagesWaiting(displayLineQueue) > 0) {
			 if(xQueueReceive(displayLineQueue, &newLine, portMAX_DELAY)) {	
				i=0;			
				while((i+newLine.displayPos < 20) && (newLine.displayBuffer[i] != 0x00)) {				
    671c:	e2 17       	cp	r30, r18
    671e:	f3 07       	cpc	r31, r19
    6720:	19 f0       	breq	.+6      	; 0x6728 <vDisplayUpdateTask+0x180>
    6722:	81 91       	ld	r24, Z+
    6724:	81 11       	cpse	r24, r1
    6726:	f9 cf       	rjmp	.-14     	; 0x671a <vDisplayUpdateTask+0x172>
				for(j = 0; j < 20; j ++) {
					displayLines[i][j] = 0x20;
				}
			}
		 }
		 while(uxQueueMessagesWaiting(displayLineQueue) > 0) {
    6728:	80 91 2f 2e 	lds	r24, 0x2E2F	; 0x802e2f <displayLineQueue>
    672c:	90 91 30 2e 	lds	r25, 0x2E30	; 0x802e30 <displayLineQueue+0x1>
    6730:	0e 94 51 1f 	call	0x3ea2	; 0x3ea2 <uxQueueMessagesWaiting>
    6734:	81 11       	cpse	r24, r1
    6736:	c7 cf       	rjmp	.-114    	; 0x66c6 <vDisplayUpdateTask+0x11e>
    6738:	ce 01       	movw	r24, r28
    673a:	01 96       	adiw	r24, 0x01	; 1
    673c:	7c 01       	movw	r14, r24
    673e:	61 2c       	mov	r6, r1
    6740:	71 2c       	mov	r7, r1
					i++;
				}
			 }
		 }
		 for(i = 0; i < 4; i++) {
			 _displayWriteStringAtPos(i,0,&displayLines[i][0]);
    6742:	a7 01       	movw	r20, r14
    6744:	60 e0       	ldi	r22, 0x00	; 0
    6746:	70 e0       	ldi	r23, 0x00	; 0
    6748:	c3 01       	movw	r24, r6
    674a:	0e 94 c9 32 	call	0x6592	; 0x6592 <_displayWriteStringAtPos>
					displayLines[newLine.displayLine][i+newLine.displayPos] = newLine.displayBuffer[i];
					i++;
				}
			 }
		 }
		 for(i = 0; i < 4; i++) {
    674e:	9f ef       	ldi	r25, 0xFF	; 255
    6750:	69 1a       	sub	r6, r25
    6752:	79 0a       	sbc	r7, r25
    6754:	e4 e1       	ldi	r30, 0x14	; 20
    6756:	ee 0e       	add	r14, r30
    6758:	f1 1c       	adc	r15, r1
    675a:	f4 e0       	ldi	r31, 0x04	; 4
    675c:	6f 16       	cp	r6, r31
    675e:	71 04       	cpc	r7, r1
    6760:	81 f7       	brne	.-32     	; 0x6742 <vDisplayUpdateTask+0x19a>
    6762:	85 cf       	rjmp	.-246    	; 0x666e <vDisplayUpdateTask+0xc6>

00006764 <vDisplayClear>:
	 }
 }
 

void vDisplayClear() {
	xEventGroupSetBits(egDisplayTiming, EG_DISPLAY_CLEAR);
    6764:	42 e0       	ldi	r20, 0x02	; 2
    6766:	50 e0       	ldi	r21, 0x00	; 0
    6768:	60 e0       	ldi	r22, 0x00	; 0
    676a:	70 e0       	ldi	r23, 0x00	; 0
    676c:	80 91 31 2e 	lds	r24, 0x2E31	; 0x802e31 <egDisplayTiming>
    6770:	90 91 32 2e 	lds	r25, 0x2E32	; 0x802e32 <egDisplayTiming+0x1>
    6774:	0e 94 63 19 	call	0x32c6	; 0x32c6 <xEventGroupSetBits>
    6778:	08 95       	ret

0000677a <vDisplayWriteStringAtPos>:
}

void vDisplayWriteStringAtPos(int line, int pos, char const *fmt, ...) {
    677a:	2f 92       	push	r2
    677c:	3f 92       	push	r3
    677e:	4f 92       	push	r4
    6780:	5f 92       	push	r5
    6782:	6f 92       	push	r6
    6784:	7f 92       	push	r7
    6786:	8f 92       	push	r8
    6788:	9f 92       	push	r9
    678a:	af 92       	push	r10
    678c:	bf 92       	push	r11
    678e:	cf 92       	push	r12
    6790:	df 92       	push	r13
    6792:	ef 92       	push	r14
    6794:	ff 92       	push	r15
    6796:	0f 93       	push	r16
    6798:	1f 93       	push	r17
    679a:	cf 93       	push	r28
    679c:	df 93       	push	r29
    679e:	cd b7       	in	r28, 0x3d	; 61
    67a0:	de b7       	in	r29, 0x3e	; 62
    67a2:	6d 97       	sbiw	r28, 0x1d	; 29
    67a4:	cd bf       	out	0x3d, r28	; 61
    67a6:	de bf       	out	0x3e, r29	; 62
    67a8:	2b a9       	ldd	r18, Y+51	; 0x33
    67aa:	2b 8f       	std	Y+27, r18	; 0x1b
    67ac:	af a9       	ldd	r26, Y+55	; 0x37
    67ae:	b8 ad       	ldd	r27, Y+56	; 0x38
	va_list arg;	
	va_start(arg, fmt);
    67b0:	7e 01       	movw	r14, r28
    67b2:	39 e3       	ldi	r19, 0x39	; 57
    67b4:	e3 0e       	add	r14, r19
    67b6:	f1 1c       	adc	r15, r1
    67b8:	28 e0       	ldi	r18, 0x08	; 8
    67ba:	3e e2       	ldi	r19, 0x2E	; 46
	display_vprintf(line, pos, fmt, arg);
    67bc:	e4 ef       	ldi	r30, 0xF4	; 244
    67be:	fd e2       	ldi	r31, 0x2D	; 45
	int length = 0;

	static char buffer[20];
	static char str[20];
	for(int i = 0; i < 20; i++) {
		buffer[i] = 0x00;
    67c0:	11 92       	st	Z+, r1
	char ch;
	int length = 0;

	static char buffer[20];
	static char str[20];
	for(int i = 0; i < 20; i++) {
    67c2:	e2 17       	cp	r30, r18
    67c4:	f3 07       	cpc	r31, r19
    67c6:	e1 f7       	brne	.-8      	; 0x67c0 <vDisplayWriteStringAtPos+0x46>
    67c8:	0f 2e       	mov	r0, r31
    67ca:	f0 ee       	ldi	r31, 0xE0	; 224
    67cc:	af 2e       	mov	r10, r31
    67ce:	fd e2       	ldi	r31, 0x2D	; 45
    67d0:	bf 2e       	mov	r11, r31
    67d2:	f0 2d       	mov	r31, r0
    67d4:	24 ef       	ldi	r18, 0xF4	; 244
    67d6:	3d e2       	ldi	r19, 0x2D	; 45
    67d8:	f5 01       	movw	r30, r10
		buffer[i] = 0x00;
	}
	for(int i = 0; i < 20; i++) {
		str[i] = 0x00;
    67da:	11 92       	st	Z+, r1
	static char buffer[20];
	static char str[20];
	for(int i = 0; i < 20; i++) {
		buffer[i] = 0x00;
	}
	for(int i = 0; i < 20; i++) {
    67dc:	e2 17       	cp	r30, r18
    67de:	f3 07       	cpc	r31, r19
    67e0:	e1 f7       	brne	.-8      	; 0x67da <vDisplayWriteStringAtPos+0x60>
    67e2:	81 2c       	mov	r8, r1
    67e4:	91 2c       	mov	r9, r1
				break;

				case 'e':
				double_temp = va_arg(arg, double);
				ftoa_sci(buffer, double_temp);
				for(int i = 0; i < strlen(buffer);i++) {
    67e6:	0f 2e       	mov	r0, r31
    67e8:	f4 ef       	ldi	r31, 0xF4	; 244
    67ea:	cf 2e       	mov	r12, r31
    67ec:	fd e2       	ldi	r31, 0x2D	; 45
    67ee:	df 2e       	mov	r13, r31
    67f0:	f0 2d       	mov	r31, r0
    67f2:	fc c2       	rjmp	.+1528   	; 0x6dec <vDisplayWriteStringAtPos+0x672>
	}
	for(int i = 0; i < 20; i++) {
		str[i] = 0x00;
	}
	while ((ch = *fmt++)!=false) {
		if ( '%' == ch ) {
    67f4:	85 32       	cpi	r24, 0x25	; 37
    67f6:	09 f0       	breq	.+2      	; 0x67fa <vDisplayWriteStringAtPos+0x80>
    67f8:	e8 c2       	rjmp	.+1488   	; 0x6dca <vDisplayWriteStringAtPos+0x650>
			switch (ch = *fmt++) {
    67fa:	2d 01       	movw	r4, r26
    67fc:	82 e0       	ldi	r24, 0x02	; 2
    67fe:	48 0e       	add	r4, r24
    6800:	51 1c       	adc	r5, r1
    6802:	11 96       	adiw	r26, 0x01	; 1
    6804:	8c 91       	ld	r24, X
    6806:	85 36       	cpi	r24, 0x65	; 101
    6808:	09 f4       	brne	.+2      	; 0x680c <vDisplayWriteStringAtPos+0x92>
    680a:	db c1       	rjmp	.+950    	; 0x6bc2 <vDisplayWriteStringAtPos+0x448>
    680c:	38 f4       	brcc	.+14     	; 0x681c <vDisplayWriteStringAtPos+0xa2>
    680e:	83 36       	cpi	r24, 0x63	; 99
    6810:	c1 f0       	breq	.+48     	; 0x6842 <vDisplayWriteStringAtPos+0xc8>
    6812:	08 f0       	brcs	.+2      	; 0x6816 <vDisplayWriteStringAtPos+0x9c>
    6814:	48 c0       	rjmp	.+144    	; 0x68a6 <vDisplayWriteStringAtPos+0x12c>
    6816:	85 32       	cpi	r24, 0x25	; 37
    6818:	51 f0       	breq	.+20     	; 0x682e <vDisplayWriteStringAtPos+0xb4>
    681a:	e7 c2       	rjmp	.+1486   	; 0x6dea <vDisplayWriteStringAtPos+0x670>
    681c:	83 37       	cpi	r24, 0x73	; 115
    681e:	f9 f0       	breq	.+62     	; 0x685e <vDisplayWriteStringAtPos+0xe4>
    6820:	88 37       	cpi	r24, 0x78	; 120
    6822:	09 f4       	brne	.+2      	; 0x6826 <vDisplayWriteStringAtPos+0xac>
    6824:	68 c0       	rjmp	.+208    	; 0x68f6 <vDisplayWriteStringAtPos+0x17c>
    6826:	86 36       	cpi	r24, 0x66	; 102
    6828:	09 f0       	breq	.+2      	; 0x682c <vDisplayWriteStringAtPos+0xb2>
    682a:	df c2       	rjmp	.+1470   	; 0x6dea <vDisplayWriteStringAtPos+0x670>
    682c:	8c c0       	rjmp	.+280    	; 0x6946 <vDisplayWriteStringAtPos+0x1cc>
				/* %% - print out a single %    */
				case '%':
				str[length] = '%';
    682e:	f4 01       	movw	r30, r8
    6830:	e0 52       	subi	r30, 0x20	; 32
    6832:	f2 4d       	sbci	r31, 0xD2	; 210
    6834:	95 e2       	ldi	r25, 0x25	; 37
    6836:	90 83       	st	Z, r25
				length++;
    6838:	af ef       	ldi	r26, 0xFF	; 255
    683a:	8a 1a       	sub	r8, r26
    683c:	9a 0a       	sbc	r9, r26
	for(int i = 0; i < 20; i++) {
		str[i] = 0x00;
	}
	while ((ch = *fmt++)!=false) {
		if ( '%' == ch ) {
			switch (ch = *fmt++) {
    683e:	d2 01       	movw	r26, r4
    6840:	d5 c2       	rjmp	.+1450   	; 0x6dec <vDisplayWriteStringAtPos+0x672>
				break;

				/* %c: print out a character    */
				case 'c':
				char_temp = va_arg(arg, int);
				str[length] = char_temp;
    6842:	f4 01       	movw	r30, r8
    6844:	e0 52       	subi	r30, 0x20	; 32
    6846:	f2 4d       	sbci	r31, 0xD2	; 210
    6848:	d7 01       	movw	r26, r14
    684a:	8c 91       	ld	r24, X
    684c:	80 83       	st	Z, r24
				length++;
    684e:	bf ef       	ldi	r27, 0xFF	; 255
    6850:	8b 1a       	sub	r8, r27
    6852:	9b 0a       	sbc	r9, r27
				length++;
				break;

				/* %c: print out a character    */
				case 'c':
				char_temp = va_arg(arg, int);
    6854:	f7 01       	movw	r30, r14
    6856:	32 96       	adiw	r30, 0x02	; 2
    6858:	7f 01       	movw	r14, r30
	for(int i = 0; i < 20; i++) {
		str[i] = 0x00;
	}
	while ((ch = *fmt++)!=false) {
		if ( '%' == ch ) {
			switch (ch = *fmt++) {
    685a:	d2 01       	movw	r26, r4
    685c:	c7 c2       	rjmp	.+1422   	; 0x6dec <vDisplayWriteStringAtPos+0x672>
				length++;
				break;

				/* %s: print out a string       */
				case 's':
				string_temp = va_arg(arg, char *);
    685e:	a7 01       	movw	r20, r14
    6860:	4e 5f       	subi	r20, 0xFE	; 254
    6862:	5f 4f       	sbci	r21, 0xFF	; 255
    6864:	d7 01       	movw	r26, r14
    6866:	8d 91       	ld	r24, X+
    6868:	9c 91       	ld	r25, X
    686a:	9c 01       	movw	r18, r24
    686c:	b4 01       	movw	r22, r8
    686e:	f4 01       	movw	r30, r8
    6870:	e0 52       	subi	r30, 0x20	; 32
    6872:	f2 4d       	sbci	r31, 0xD2	; 210
				for(int i = 0; i < strlen(string_temp);i++) {
    6874:	00 e0       	ldi	r16, 0x00	; 0
    6876:	10 e0       	ldi	r17, 0x00	; 0
    6878:	06 c0       	rjmp	.+12     	; 0x6886 <vDisplayWriteStringAtPos+0x10c>
					str[length+i] = string_temp[i];
    687a:	d9 01       	movw	r26, r18
    687c:	fd 90       	ld	r15, X+
    687e:	9d 01       	movw	r18, r26
    6880:	f1 92       	st	Z+, r15
				break;

				/* %s: print out a string       */
				case 's':
				string_temp = va_arg(arg, char *);
				for(int i = 0; i < strlen(string_temp);i++) {
    6882:	0f 5f       	subi	r16, 0xFF	; 255
    6884:	1f 4f       	sbci	r17, 0xFF	; 255
    6886:	dc 01       	movw	r26, r24
    6888:	0d 90       	ld	r0, X+
    688a:	00 20       	and	r0, r0
    688c:	e9 f7       	brne	.-6      	; 0x6888 <vDisplayWriteStringAtPos+0x10e>
    688e:	11 97       	sbiw	r26, 0x01	; 1
    6890:	a8 1b       	sub	r26, r24
    6892:	b9 0b       	sbc	r27, r25
    6894:	0a 17       	cp	r16, r26
    6896:	1b 07       	cpc	r17, r27
    6898:	80 f3       	brcs	.-32     	; 0x687a <vDisplayWriteStringAtPos+0x100>
					str[length+i] = string_temp[i];
				}
				length += strlen(string_temp);
    689a:	4d 01       	movw	r8, r26
    689c:	86 0e       	add	r8, r22
    689e:	97 1e       	adc	r9, r23
				length++;
				break;

				/* %s: print out a string       */
				case 's':
				string_temp = va_arg(arg, char *);
    68a0:	7a 01       	movw	r14, r20
	for(int i = 0; i < 20; i++) {
		str[i] = 0x00;
	}
	while ((ch = *fmt++)!=false) {
		if ( '%' == ch ) {
			switch (ch = *fmt++) {
    68a2:	d2 01       	movw	r26, r4
    68a4:	a3 c2       	rjmp	.+1350   	; 0x6dec <vDisplayWriteStringAtPos+0x672>
				length += strlen(string_temp);
				break;

				/* %d: print out an int         */
				case 'd':
				int_temp = va_arg(arg, int);
    68a6:	87 01       	movw	r16, r14
    68a8:	0e 5f       	subi	r16, 0xFE	; 254
    68aa:	1f 4f       	sbci	r17, 0xFF	; 255
    68ac:	4a e0       	ldi	r20, 0x0A	; 10
    68ae:	b6 01       	movw	r22, r12
    68b0:	f7 01       	movw	r30, r14
    68b2:	80 81       	ld	r24, Z
    68b4:	91 81       	ldd	r25, Z+1	; 0x01
    68b6:	0e 94 8e 41 	call	0x831c	; 0x831c <__itoa_ncheck>
    68ba:	94 01       	movw	r18, r8
    68bc:	d4 01       	movw	r26, r8
    68be:	a0 52       	subi	r26, 0x20	; 32
    68c0:	b2 4d       	sbci	r27, 0xD2	; 210
    68c2:	44 ef       	ldi	r20, 0xF4	; 244
    68c4:	5d e2       	ldi	r21, 0x2D	; 45
				itoa(int_temp, buffer, 10);
				for(int i = 0; i < strlen(buffer);i++) {
    68c6:	80 e0       	ldi	r24, 0x00	; 0
    68c8:	90 e0       	ldi	r25, 0x00	; 0
    68ca:	05 c0       	rjmp	.+10     	; 0x68d6 <vDisplayWriteStringAtPos+0x15c>
					str[length+i] = buffer[i];
    68cc:	fa 01       	movw	r30, r20
    68ce:	61 91       	ld	r22, Z+
    68d0:	af 01       	movw	r20, r30
    68d2:	6d 93       	st	X+, r22

				/* %d: print out an int         */
				case 'd':
				int_temp = va_arg(arg, int);
				itoa(int_temp, buffer, 10);
				for(int i = 0; i < strlen(buffer);i++) {
    68d4:	01 96       	adiw	r24, 0x01	; 1
    68d6:	f6 01       	movw	r30, r12
    68d8:	01 90       	ld	r0, Z+
    68da:	00 20       	and	r0, r0
    68dc:	e9 f7       	brne	.-6      	; 0x68d8 <vDisplayWriteStringAtPos+0x15e>
    68de:	31 97       	sbiw	r30, 0x01	; 1
    68e0:	e4 5f       	subi	r30, 0xF4	; 244
    68e2:	fd 42       	sbci	r31, 0x2D	; 45
    68e4:	8e 17       	cp	r24, r30
    68e6:	9f 07       	cpc	r25, r31
    68e8:	88 f3       	brcs	.-30     	; 0x68cc <vDisplayWriteStringAtPos+0x152>
					str[length+i] = buffer[i];
				}
				length += strlen(buffer);
    68ea:	4f 01       	movw	r8, r30
    68ec:	82 0e       	add	r8, r18
    68ee:	93 1e       	adc	r9, r19
				length += strlen(string_temp);
				break;

				/* %d: print out an int         */
				case 'd':
				int_temp = va_arg(arg, int);
    68f0:	78 01       	movw	r14, r16
	for(int i = 0; i < 20; i++) {
		str[i] = 0x00;
	}
	while ((ch = *fmt++)!=false) {
		if ( '%' == ch ) {
			switch (ch = *fmt++) {
    68f2:	d2 01       	movw	r26, r4
    68f4:	7b c2       	rjmp	.+1270   	; 0x6dec <vDisplayWriteStringAtPos+0x672>
				length += strlen(buffer);
				break;

				/* %x: print out an int in hex  */
				case 'x':
				int_temp = va_arg(arg, int);
    68f6:	87 01       	movw	r16, r14
    68f8:	0e 5f       	subi	r16, 0xFE	; 254
    68fa:	1f 4f       	sbci	r17, 0xFF	; 255
    68fc:	40 e1       	ldi	r20, 0x10	; 16
    68fe:	b6 01       	movw	r22, r12
    6900:	d7 01       	movw	r26, r14
    6902:	8d 91       	ld	r24, X+
    6904:	9c 91       	ld	r25, X
    6906:	0e 94 8e 41 	call	0x831c	; 0x831c <__itoa_ncheck>
    690a:	94 01       	movw	r18, r8
    690c:	f4 01       	movw	r30, r8
    690e:	e0 52       	subi	r30, 0x20	; 32
    6910:	f2 4d       	sbci	r31, 0xD2	; 210
    6912:	44 ef       	ldi	r20, 0xF4	; 244
    6914:	5d e2       	ldi	r21, 0x2D	; 45
				itoa(int_temp, buffer, 16);
				for(int i = 0; i < strlen(buffer);i++) {
    6916:	80 e0       	ldi	r24, 0x00	; 0
    6918:	90 e0       	ldi	r25, 0x00	; 0
    691a:	05 c0       	rjmp	.+10     	; 0x6926 <vDisplayWriteStringAtPos+0x1ac>
					str[length+i] = buffer[i];
    691c:	da 01       	movw	r26, r20
    691e:	6d 91       	ld	r22, X+
    6920:	ad 01       	movw	r20, r26
    6922:	61 93       	st	Z+, r22

				/* %x: print out an int in hex  */
				case 'x':
				int_temp = va_arg(arg, int);
				itoa(int_temp, buffer, 16);
				for(int i = 0; i < strlen(buffer);i++) {
    6924:	01 96       	adiw	r24, 0x01	; 1
    6926:	d6 01       	movw	r26, r12
    6928:	0d 90       	ld	r0, X+
    692a:	00 20       	and	r0, r0
    692c:	e9 f7       	brne	.-6      	; 0x6928 <vDisplayWriteStringAtPos+0x1ae>
    692e:	11 97       	sbiw	r26, 0x01	; 1
    6930:	a4 5f       	subi	r26, 0xF4	; 244
    6932:	bd 42       	sbci	r27, 0x2D	; 45
    6934:	8a 17       	cp	r24, r26
    6936:	9b 07       	cpc	r25, r27
    6938:	88 f3       	brcs	.-30     	; 0x691c <vDisplayWriteStringAtPos+0x1a2>
					str[length+i] = buffer[i];
				}
				length += strlen(buffer);
    693a:	4d 01       	movw	r8, r26
    693c:	82 0e       	add	r8, r18
    693e:	93 1e       	adc	r9, r19
				length += strlen(buffer);
				break;

				/* %x: print out an int in hex  */
				case 'x':
				int_temp = va_arg(arg, int);
    6940:	78 01       	movw	r14, r16
	for(int i = 0; i < 20; i++) {
		str[i] = 0x00;
	}
	while ((ch = *fmt++)!=false) {
		if ( '%' == ch ) {
			switch (ch = *fmt++) {
    6942:	d2 01       	movw	r26, r4
    6944:	53 c2       	rjmp	.+1190   	; 0x6dec <vDisplayWriteStringAtPos+0x672>
				}
				length += strlen(buffer);
				break;

				case 'f':
				double_temp = va_arg(arg, double);
    6946:	17 01       	movw	r2, r14
    6948:	b4 e0       	ldi	r27, 0x04	; 4
    694a:	2b 0e       	add	r2, r27
    694c:	31 1c       	adc	r3, r1
    694e:	d7 01       	movw	r26, r14
    6950:	8d 91       	ld	r24, X+
    6952:	9d 91       	ld	r25, X+
    6954:	0d 90       	ld	r0, X+
    6956:	bc 91       	ld	r27, X
    6958:	a0 2d       	mov	r26, r0
    695a:	8f 8b       	std	Y+23, r24	; 0x17
    695c:	98 8f       	std	Y+24, r25	; 0x18
    695e:	a9 8f       	std	Y+25, r26	; 0x19
    6960:	ba 8f       	std	Y+26, r27	; 0x1a

    int exponent = 0;
    int places = 0;
    static const int width = 4;

    if (value == 0.0) {
    6962:	20 e0       	ldi	r18, 0x00	; 0
    6964:	30 e0       	ldi	r19, 0x00	; 0
    6966:	a9 01       	movw	r20, r18
    6968:	bc 01       	movw	r22, r24
    696a:	cd 01       	movw	r24, r26
    696c:	0e 94 f3 37 	call	0x6fe6	; 0x6fe6 <__cmpsf2>
    6970:	81 11       	cpse	r24, r1
    6972:	05 c0       	rjmp	.+10     	; 0x697e <vDisplayWriteStringAtPos+0x204>
        buffer[0] = '0';
    6974:	20 e3       	ldi	r18, 0x30	; 48
    6976:	f6 01       	movw	r30, r12
    6978:	20 83       	st	Z, r18
        buffer[1] = '\0';
    697a:	11 82       	std	Z+1, r1	; 0x01
    697c:	04 c1       	rjmp	.+520    	; 0x6b86 <vDisplayWriteStringAtPos+0x40c>
        return;
    }         

    if (value < 0.0) {
    697e:	20 e0       	ldi	r18, 0x00	; 0
    6980:	30 e0       	ldi	r19, 0x00	; 0
    6982:	a9 01       	movw	r20, r18
    6984:	6f 89       	ldd	r22, Y+23	; 0x17
    6986:	78 8d       	ldd	r23, Y+24	; 0x18
    6988:	89 8d       	ldd	r24, Y+25	; 0x19
    698a:	9a 8d       	ldd	r25, Y+26	; 0x1a
    698c:	0e 94 f3 37 	call	0x6fe6	; 0x6fe6 <__cmpsf2>
    6990:	88 23       	and	r24, r24
    6992:	9c f4       	brge	.+38     	; 0x69ba <vDisplayWriteStringAtPos+0x240>
        *buffer++ = '-';
    6994:	ed e2       	ldi	r30, 0x2D	; 45
    6996:	d6 01       	movw	r26, r12
    6998:	ec 93       	st	X, r30
        value = -value;
    699a:	8f 89       	ldd	r24, Y+23	; 0x17
    699c:	98 8d       	ldd	r25, Y+24	; 0x18
    699e:	a9 8d       	ldd	r26, Y+25	; 0x19
    69a0:	ba 8d       	ldd	r27, Y+26	; 0x1a
    69a2:	b0 58       	subi	r27, 0x80	; 128
    69a4:	8f 8b       	std	Y+23, r24	; 0x17
    69a6:	98 8f       	std	Y+24, r25	; 0x18
    69a8:	a9 8f       	std	Y+25, r26	; 0x19
    69aa:	ba 8f       	std	Y+26, r27	; 0x1a
        buffer[1] = '\0';
        return;
    }         

    if (value < 0.0) {
        *buffer++ = '-';
    69ac:	0f 2e       	mov	r0, r31
    69ae:	f5 ef       	ldi	r31, 0xF5	; 245
    69b0:	6f 2e       	mov	r6, r31
    69b2:	fd e2       	ldi	r31, 0x2D	; 45
    69b4:	7f 2e       	mov	r7, r31
    69b6:	f0 2d       	mov	r31, r0
    69b8:	01 c0       	rjmp	.+2      	; 0x69bc <vDisplayWriteStringAtPos+0x242>
        buffer[0] = '0';
        buffer[1] = '\0';
        return;
    }         

    if (value < 0.0) {
    69ba:	36 01       	movw	r6, r12

static int normalize(double *val) {
    int exponent = 0;
    double value = *val;

    while (value >= 1.0) {
    69bc:	20 e0       	ldi	r18, 0x00	; 0
    69be:	30 e0       	ldi	r19, 0x00	; 0
    69c0:	40 e8       	ldi	r20, 0x80	; 128
    69c2:	5f e3       	ldi	r21, 0x3F	; 63
    69c4:	6f 89       	ldd	r22, Y+23	; 0x17
    69c6:	78 8d       	ldd	r23, Y+24	; 0x18
    69c8:	89 8d       	ldd	r24, Y+25	; 0x19
    69ca:	9a 8d       	ldd	r25, Y+26	; 0x1a
    69cc:	0e 94 90 39 	call	0x7320	; 0x7320 <__gesf2>
    69d0:	88 23       	and	r24, r24
    69d2:	0c f4       	brge	.+2      	; 0x69d6 <vDisplayWriteStringAtPos+0x25c>
    69d4:	44 c2       	rjmp	.+1160   	; 0x6e5e <vDisplayWriteStringAtPos+0x6e4>
    69d6:	00 e0       	ldi	r16, 0x00	; 0
    69d8:	10 e0       	ldi	r17, 0x00	; 0
        value /= 10.0;
    69da:	20 e0       	ldi	r18, 0x00	; 0
    69dc:	30 e0       	ldi	r19, 0x00	; 0
    69de:	40 e2       	ldi	r20, 0x20	; 32
    69e0:	51 e4       	ldi	r21, 0x41	; 65
    69e2:	6f 89       	ldd	r22, Y+23	; 0x17
    69e4:	78 8d       	ldd	r23, Y+24	; 0x18
    69e6:	89 8d       	ldd	r24, Y+25	; 0x19
    69e8:	9a 8d       	ldd	r25, Y+26	; 0x1a
    69ea:	0e 94 f8 37 	call	0x6ff0	; 0x6ff0 <__divsf3>
    69ee:	6f 8b       	std	Y+23, r22	; 0x17
    69f0:	78 8f       	std	Y+24, r23	; 0x18
    69f2:	89 8f       	std	Y+25, r24	; 0x19
    69f4:	9a 8f       	std	Y+26, r25	; 0x1a
        ++exponent;
    69f6:	0f 5f       	subi	r16, 0xFF	; 255
    69f8:	1f 4f       	sbci	r17, 0xFF	; 255

static int normalize(double *val) {
    int exponent = 0;
    double value = *val;

    while (value >= 1.0) {
    69fa:	20 e0       	ldi	r18, 0x00	; 0
    69fc:	30 e0       	ldi	r19, 0x00	; 0
    69fe:	40 e8       	ldi	r20, 0x80	; 128
    6a00:	5f e3       	ldi	r21, 0x3F	; 63
    6a02:	0e 94 90 39 	call	0x7320	; 0x7320 <__gesf2>
    6a06:	88 23       	and	r24, r24
    6a08:	44 f7       	brge	.-48     	; 0x69da <vDisplayWriteStringAtPos+0x260>
        value /= 10.0;
        ++exponent;
    }

    while (value < 0.1) {
    6a0a:	2d ec       	ldi	r18, 0xCD	; 205
    6a0c:	3c ec       	ldi	r19, 0xCC	; 204
    6a0e:	4c ec       	ldi	r20, 0xCC	; 204
    6a10:	5d e3       	ldi	r21, 0x3D	; 61
    6a12:	6f 89       	ldd	r22, Y+23	; 0x17
    6a14:	78 8d       	ldd	r23, Y+24	; 0x18
    6a16:	89 8d       	ldd	r24, Y+25	; 0x19
    6a18:	9a 8d       	ldd	r25, Y+26	; 0x1a
    6a1a:	0e 94 f3 37 	call	0x6fe6	; 0x6fe6 <__cmpsf2>
    6a1e:	88 23       	and	r24, r24
    6a20:	1c f0       	brlt	.+6      	; 0x6a28 <vDisplayWriteStringAtPos+0x2ae>
    6a22:	1a c0       	rjmp	.+52     	; 0x6a58 <vDisplayWriteStringAtPos+0x2de>
	
	return length;
}

static int normalize(double *val) {
    int exponent = 0;
    6a24:	00 e0       	ldi	r16, 0x00	; 0
    6a26:	10 e0       	ldi	r17, 0x00	; 0
        value /= 10.0;
        ++exponent;
    }

    while (value < 0.1) {
        value *= 10.0;
    6a28:	20 e0       	ldi	r18, 0x00	; 0
    6a2a:	30 e0       	ldi	r19, 0x00	; 0
    6a2c:	40 e2       	ldi	r20, 0x20	; 32
    6a2e:	51 e4       	ldi	r21, 0x41	; 65
    6a30:	6f 89       	ldd	r22, Y+23	; 0x17
    6a32:	78 8d       	ldd	r23, Y+24	; 0x18
    6a34:	89 8d       	ldd	r24, Y+25	; 0x19
    6a36:	9a 8d       	ldd	r25, Y+26	; 0x1a
    6a38:	0e 94 95 39 	call	0x732a	; 0x732a <__mulsf3>
    6a3c:	6f 8b       	std	Y+23, r22	; 0x17
    6a3e:	78 8f       	std	Y+24, r23	; 0x18
    6a40:	89 8f       	std	Y+25, r24	; 0x19
    6a42:	9a 8f       	std	Y+26, r25	; 0x1a
        --exponent;
    6a44:	01 50       	subi	r16, 0x01	; 1
    6a46:	11 09       	sbc	r17, r1
    while (value >= 1.0) {
        value /= 10.0;
        ++exponent;
    }

    while (value < 0.1) {
    6a48:	2d ec       	ldi	r18, 0xCD	; 205
    6a4a:	3c ec       	ldi	r19, 0xCC	; 204
    6a4c:	4c ec       	ldi	r20, 0xCC	; 204
    6a4e:	5d e3       	ldi	r21, 0x3D	; 61
    6a50:	0e 94 f3 37 	call	0x6fe6	; 0x6fe6 <__cmpsf2>
    6a54:	88 23       	and	r24, r24
    6a56:	44 f3       	brlt	.-48     	; 0x6a28 <vDisplayWriteStringAtPos+0x2ae>
        value = -value;
    }

    exponent = normalize(&value);

    while (exponent > 0) {
    6a58:	10 16       	cp	r1, r16
    6a5a:	11 06       	cpc	r1, r17
    6a5c:	ac f5       	brge	.+106    	; 0x6ac8 <vDisplayWriteStringAtPos+0x34e>
    6a5e:	73 01       	movw	r14, r6
    6a60:	d3 01       	movw	r26, r6
    6a62:	a0 0f       	add	r26, r16
    6a64:	b1 1f       	adc	r27, r17
    6a66:	ac 8f       	std	Y+28, r26	; 0x1c
    6a68:	bd 8f       	std	Y+29, r27	; 0x1d
    6a6a:	3d 01       	movw	r6, r26
    6a6c:	6f 89       	ldd	r22, Y+23	; 0x17
    6a6e:	78 8d       	ldd	r23, Y+24	; 0x18
    6a70:	89 8d       	ldd	r24, Y+25	; 0x19
    6a72:	9a 8d       	ldd	r25, Y+26	; 0x1a
        int digit = value * 10;
    6a74:	20 e0       	ldi	r18, 0x00	; 0
    6a76:	30 e0       	ldi	r19, 0x00	; 0
    6a78:	40 e2       	ldi	r20, 0x20	; 32
    6a7a:	51 e4       	ldi	r21, 0x41	; 65
    6a7c:	0e 94 95 39 	call	0x732a	; 0x732a <__mulsf3>
    6a80:	6f 8b       	std	Y+23, r22	; 0x17
    6a82:	78 8f       	std	Y+24, r23	; 0x18
    6a84:	89 8f       	std	Y+25, r24	; 0x19
    6a86:	9a 8f       	std	Y+26, r25	; 0x1a
    6a88:	0e 94 6a 38 	call	0x70d4	; 0x70d4 <__fixsfsi>
        *buffer++ = digit + '0';
    6a8c:	20 e3       	ldi	r18, 0x30	; 48
    6a8e:	26 0f       	add	r18, r22
    6a90:	f7 01       	movw	r30, r14
    6a92:	21 93       	st	Z+, r18
    6a94:	7f 01       	movw	r14, r30
        value = value * 10 - digit;
    6a96:	07 2e       	mov	r0, r23
    6a98:	00 0c       	add	r0, r0
    6a9a:	88 0b       	sbc	r24, r24
    6a9c:	99 0b       	sbc	r25, r25
    6a9e:	0e 94 a2 38 	call	0x7144	; 0x7144 <__floatsisf>
    6aa2:	9b 01       	movw	r18, r22
    6aa4:	ac 01       	movw	r20, r24
    6aa6:	6f 89       	ldd	r22, Y+23	; 0x17
    6aa8:	78 8d       	ldd	r23, Y+24	; 0x18
    6aaa:	89 8d       	ldd	r24, Y+25	; 0x19
    6aac:	9a 8d       	ldd	r25, Y+26	; 0x1a
    6aae:	0e 94 86 37 	call	0x6f0c	; 0x6f0c <__subsf3>
        value = -value;
    }

    exponent = normalize(&value);

    while (exponent > 0) {
    6ab2:	e6 14       	cp	r14, r6
    6ab4:	f7 04       	cpc	r15, r7
    6ab6:	f1 f6       	brne	.-68     	; 0x6a74 <vDisplayWriteStringAtPos+0x2fa>
    6ab8:	6f 8b       	std	Y+23, r22	; 0x17
    6aba:	78 8f       	std	Y+24, r23	; 0x18
    6abc:	89 8f       	std	Y+25, r24	; 0x19
    6abe:	9a 8f       	std	Y+26, r25	; 0x1a
        value = value * 10 - digit;
        ++places;
        --exponent;
    }

    if (places == 0)
    6ac0:	01 15       	cp	r16, r1
    6ac2:	11 05       	cpc	r17, r1
    6ac4:	89 f4       	brne	.+34     	; 0x6ae8 <vDisplayWriteStringAtPos+0x36e>
    6ac6:	db c1       	rjmp	.+950    	; 0x6e7e <vDisplayWriteStringAtPos+0x704>
        value = -value;
    }

    exponent = normalize(&value);

    while (exponent > 0) {
    6ac8:	c8 01       	movw	r24, r16
        ++places;
        --exponent;
    }

    if (places == 0)
        *buffer++ = '0';
    6aca:	e0 e3       	ldi	r30, 0x30	; 48
    6acc:	d3 01       	movw	r26, r6
    6ace:	ec 93       	st	X, r30

    *buffer++ = '.';
    6ad0:	73 01       	movw	r14, r6
    6ad2:	f2 e0       	ldi	r31, 0x02	; 2
    6ad4:	ef 0e       	add	r14, r31
    6ad6:	f1 1c       	adc	r15, r1
    6ad8:	2e e2       	ldi	r18, 0x2E	; 46
    6ada:	11 96       	adiw	r26, 0x01	; 1
    6adc:	2c 93       	st	X, r18

    while (exponent < 0 && places < width) {
    6ade:	99 23       	and	r25, r25
    6ae0:	6c f0       	brlt	.+26     	; 0x6afc <vDisplayWriteStringAtPos+0x382>
    6ae2:	00 e0       	ldi	r16, 0x00	; 0
    6ae4:	10 e0       	ldi	r17, 0x00	; 0
    6ae6:	1f c0       	rjmp	.+62     	; 0x6b26 <vDisplayWriteStringAtPos+0x3ac>
    }

    if (places == 0)
        *buffer++ = '0';

    *buffer++ = '.';
    6ae8:	ec 8c       	ldd	r14, Y+28	; 0x1c
    6aea:	fd 8c       	ldd	r15, Y+29	; 0x1d
    6aec:	3f ef       	ldi	r19, 0xFF	; 255
    6aee:	e3 1a       	sub	r14, r19
    6af0:	f3 0a       	sbc	r15, r19
    6af2:	ee e2       	ldi	r30, 0x2E	; 46
    6af4:	ac 8d       	ldd	r26, Y+28	; 0x1c
    6af6:	bd 8d       	ldd	r27, Y+29	; 0x1d
    6af8:	ec 93       	st	X, r30
    6afa:	12 c0       	rjmp	.+36     	; 0x6b20 <vDisplayWriteStringAtPos+0x3a6>

    while (exponent < 0 && places < width) {
    6afc:	00 e0       	ldi	r16, 0x00	; 0
    6afe:	10 e0       	ldi	r17, 0x00	; 0
        *buffer++ = '0';
    6b00:	ff ef       	ldi	r31, 0xFF	; 255
    6b02:	ef 1a       	sub	r14, r31
    6b04:	ff 0a       	sbc	r15, r31
    6b06:	f7 01       	movw	r30, r14
    6b08:	31 97       	sbiw	r30, 0x01	; 1
    6b0a:	20 e3       	ldi	r18, 0x30	; 48
    6b0c:	20 83       	st	Z, r18
        --exponent;
    6b0e:	01 97       	sbiw	r24, 0x01	; 1
        ++places;
    6b10:	0f 5f       	subi	r16, 0xFF	; 255
    6b12:	1f 4f       	sbci	r17, 0xFF	; 255
    if (places == 0)
        *buffer++ = '0';

    *buffer++ = '.';

    while (exponent < 0 && places < width) {
    6b14:	99 23       	and	r25, r25
    6b16:	24 f4       	brge	.+8      	; 0x6b20 <vDisplayWriteStringAtPos+0x3a6>
    6b18:	04 30       	cpi	r16, 0x04	; 4
    6b1a:	11 05       	cpc	r17, r1
    6b1c:	8c f3       	brlt	.-30     	; 0x6b00 <vDisplayWriteStringAtPos+0x386>
    6b1e:	31 c0       	rjmp	.+98     	; 0x6b82 <vDisplayWriteStringAtPos+0x408>
        *buffer++ = '0';
        --exponent;
        ++places;
    }

    while (places < width) {
    6b20:	04 30       	cpi	r16, 0x04	; 4
    6b22:	11 05       	cpc	r17, r1
    6b24:	74 f5       	brge	.+92     	; 0x6b82 <vDisplayWriteStringAtPos+0x408>
    6b26:	37 01       	movw	r6, r14
    6b28:	84 e0       	ldi	r24, 0x04	; 4
    6b2a:	90 e0       	ldi	r25, 0x00	; 0
    6b2c:	80 1b       	sub	r24, r16
    6b2e:	91 0b       	sbc	r25, r17
    6b30:	e8 0e       	add	r14, r24
    6b32:	f9 1e       	adc	r15, r25
    6b34:	87 01       	movw	r16, r14
    6b36:	6f 89       	ldd	r22, Y+23	; 0x17
    6b38:	78 8d       	ldd	r23, Y+24	; 0x18
    6b3a:	89 8d       	ldd	r24, Y+25	; 0x19
    6b3c:	9a 8d       	ldd	r25, Y+26	; 0x1a
        int digit = value * 10.0;
    6b3e:	20 e0       	ldi	r18, 0x00	; 0
    6b40:	30 e0       	ldi	r19, 0x00	; 0
    6b42:	40 e2       	ldi	r20, 0x20	; 32
    6b44:	51 e4       	ldi	r21, 0x41	; 65
    6b46:	0e 94 95 39 	call	0x732a	; 0x732a <__mulsf3>
    6b4a:	6f 8b       	std	Y+23, r22	; 0x17
    6b4c:	78 8f       	std	Y+24, r23	; 0x18
    6b4e:	89 8f       	std	Y+25, r24	; 0x19
    6b50:	9a 8f       	std	Y+26, r25	; 0x1a
    6b52:	0e 94 6a 38 	call	0x70d4	; 0x70d4 <__fixsfsi>
        *buffer++ = digit + '0';
    6b56:	20 e3       	ldi	r18, 0x30	; 48
    6b58:	26 0f       	add	r18, r22
    6b5a:	d3 01       	movw	r26, r6
    6b5c:	2d 93       	st	X+, r18
    6b5e:	3d 01       	movw	r6, r26
        value = value * 10.0 - digit;
    6b60:	07 2e       	mov	r0, r23
    6b62:	00 0c       	add	r0, r0
    6b64:	88 0b       	sbc	r24, r24
    6b66:	99 0b       	sbc	r25, r25
    6b68:	0e 94 a2 38 	call	0x7144	; 0x7144 <__floatsisf>
    6b6c:	9b 01       	movw	r18, r22
    6b6e:	ac 01       	movw	r20, r24
    6b70:	6f 89       	ldd	r22, Y+23	; 0x17
    6b72:	78 8d       	ldd	r23, Y+24	; 0x18
    6b74:	89 8d       	ldd	r24, Y+25	; 0x19
    6b76:	9a 8d       	ldd	r25, Y+26	; 0x1a
    6b78:	0e 94 86 37 	call	0x6f0c	; 0x6f0c <__subsf3>
        *buffer++ = '0';
        --exponent;
        ++places;
    }

    while (places < width) {
    6b7c:	60 16       	cp	r6, r16
    6b7e:	71 06       	cpc	r7, r17
    6b80:	f1 f6       	brne	.-68     	; 0x6b3e <vDisplayWriteStringAtPos+0x3c4>
        int digit = value * 10.0;
        *buffer++ = digit + '0';
        value = value * 10.0 - digit;
        ++places;
    }
    *buffer = '\0';
    6b82:	f7 01       	movw	r30, r14
    6b84:	10 82       	st	Z, r1
    6b86:	94 01       	movw	r18, r8
    6b88:	f4 01       	movw	r30, r8
    6b8a:	e0 52       	subi	r30, 0x20	; 32
    6b8c:	f2 4d       	sbci	r31, 0xD2	; 210
    if (places == 0)
        *buffer++ = '0';

    *buffer++ = '.';

    while (exponent < 0 && places < width) {
    6b8e:	44 ef       	ldi	r20, 0xF4	; 244
    6b90:	5d e2       	ldi	r21, 0x2D	; 45
    6b92:	80 e0       	ldi	r24, 0x00	; 0
    6b94:	90 e0       	ldi	r25, 0x00	; 0
    6b96:	05 c0       	rjmp	.+10     	; 0x6ba2 <vDisplayWriteStringAtPos+0x428>

				case 'f':
				double_temp = va_arg(arg, double);
				ftoa_fixed(buffer, double_temp);
				for(int i = 0; i < strlen(buffer);i++) {
					str[length+i] = buffer[i];
    6b98:	da 01       	movw	r26, r20
    6b9a:	6d 91       	ld	r22, X+
    6b9c:	ad 01       	movw	r20, r26
    6b9e:	61 93       	st	Z+, r22
				break;

				case 'f':
				double_temp = va_arg(arg, double);
				ftoa_fixed(buffer, double_temp);
				for(int i = 0; i < strlen(buffer);i++) {
    6ba0:	01 96       	adiw	r24, 0x01	; 1
    6ba2:	d6 01       	movw	r26, r12
    6ba4:	0d 90       	ld	r0, X+
    6ba6:	00 20       	and	r0, r0
    6ba8:	e9 f7       	brne	.-6      	; 0x6ba4 <vDisplayWriteStringAtPos+0x42a>
    6baa:	11 97       	sbiw	r26, 0x01	; 1
    6bac:	a4 5f       	subi	r26, 0xF4	; 244
    6bae:	bd 42       	sbci	r27, 0x2D	; 45
    6bb0:	8a 17       	cp	r24, r26
    6bb2:	9b 07       	cpc	r25, r27
    6bb4:	88 f3       	brcs	.-30     	; 0x6b98 <vDisplayWriteStringAtPos+0x41e>
					str[length+i] = buffer[i];
				}
				length += strlen(buffer);
    6bb6:	4d 01       	movw	r8, r26
    6bb8:	82 0e       	add	r8, r18
    6bba:	93 1e       	adc	r9, r19
				}
				length += strlen(buffer);
				break;

				case 'f':
				double_temp = va_arg(arg, double);
    6bbc:	71 01       	movw	r14, r2
	for(int i = 0; i < 20; i++) {
		str[i] = 0x00;
	}
	while ((ch = *fmt++)!=false) {
		if ( '%' == ch ) {
			switch (ch = *fmt++) {
    6bbe:	d2 01       	movw	r26, r4
    6bc0:	15 c1       	rjmp	.+554    	; 0x6dec <vDisplayWriteStringAtPos+0x672>
				}
				length += strlen(buffer);
				break;

				case 'e':
				double_temp = va_arg(arg, double);
    6bc2:	17 01       	movw	r2, r14
    6bc4:	b4 e0       	ldi	r27, 0x04	; 4
    6bc6:	2b 0e       	add	r2, r27
    6bc8:	31 1c       	adc	r3, r1
    6bca:	d7 01       	movw	r26, r14
    6bcc:	8d 91       	ld	r24, X+
    6bce:	9d 91       	ld	r25, X+
    6bd0:	0d 90       	ld	r0, X+
    6bd2:	bc 91       	ld	r27, X
    6bd4:	a0 2d       	mov	r26, r0
    6bd6:	8f 8b       	std	Y+23, r24	; 0x17
    6bd8:	98 8f       	std	Y+24, r25	; 0x18
    6bda:	a9 8f       	std	Y+25, r26	; 0x19
    6bdc:	ba 8f       	std	Y+26, r27	; 0x1a

void ftoa_sci(char *buffer, double value) {
    int exponent = 0;    
    static const int width = 4;

    if (value == 0.0) {
    6bde:	20 e0       	ldi	r18, 0x00	; 0
    6be0:	30 e0       	ldi	r19, 0x00	; 0
    6be2:	a9 01       	movw	r20, r18
    6be4:	bc 01       	movw	r22, r24
    6be6:	cd 01       	movw	r24, r26
    6be8:	0e 94 f3 37 	call	0x6fe6	; 0x6fe6 <__cmpsf2>
    6bec:	81 11       	cpse	r24, r1
    6bee:	05 c0       	rjmp	.+10     	; 0x6bfa <vDisplayWriteStringAtPos+0x480>
        buffer[0] = '0';
    6bf0:	20 e3       	ldi	r18, 0x30	; 48
    6bf2:	f6 01       	movw	r30, r12
    6bf4:	20 83       	st	Z, r18
        buffer[1] = '\0';
    6bf6:	11 82       	std	Z+1, r1	; 0x01
    6bf8:	ca c0       	rjmp	.+404    	; 0x6d8e <vDisplayWriteStringAtPos+0x614>
        return;
    }

    if (value < 0.0) {
    6bfa:	20 e0       	ldi	r18, 0x00	; 0
    6bfc:	30 e0       	ldi	r19, 0x00	; 0
    6bfe:	a9 01       	movw	r20, r18
    6c00:	6f 89       	ldd	r22, Y+23	; 0x17
    6c02:	78 8d       	ldd	r23, Y+24	; 0x18
    6c04:	89 8d       	ldd	r24, Y+25	; 0x19
    6c06:	9a 8d       	ldd	r25, Y+26	; 0x1a
    6c08:	0e 94 f3 37 	call	0x6fe6	; 0x6fe6 <__cmpsf2>
    6c0c:	88 23       	and	r24, r24
    6c0e:	9c f4       	brge	.+38     	; 0x6c36 <vDisplayWriteStringAtPos+0x4bc>
        *buffer++ = '-';
    6c10:	ed e2       	ldi	r30, 0x2D	; 45
    6c12:	d6 01       	movw	r26, r12
    6c14:	ec 93       	st	X, r30
        value = -value;
    6c16:	8f 89       	ldd	r24, Y+23	; 0x17
    6c18:	98 8d       	ldd	r25, Y+24	; 0x18
    6c1a:	a9 8d       	ldd	r26, Y+25	; 0x19
    6c1c:	ba 8d       	ldd	r27, Y+26	; 0x1a
    6c1e:	b0 58       	subi	r27, 0x80	; 128
    6c20:	8f 8b       	std	Y+23, r24	; 0x17
    6c22:	98 8f       	std	Y+24, r25	; 0x18
    6c24:	a9 8f       	std	Y+25, r26	; 0x19
    6c26:	ba 8f       	std	Y+26, r27	; 0x1a
        buffer[1] = '\0';
        return;
    }

    if (value < 0.0) {
        *buffer++ = '-';
    6c28:	0f 2e       	mov	r0, r31
    6c2a:	f5 ef       	ldi	r31, 0xF5	; 245
    6c2c:	6f 2e       	mov	r6, r31
    6c2e:	fd e2       	ldi	r31, 0x2D	; 45
    6c30:	7f 2e       	mov	r7, r31
    6c32:	f0 2d       	mov	r31, r0
    6c34:	01 c0       	rjmp	.+2      	; 0x6c38 <vDisplayWriteStringAtPos+0x4be>
        buffer[0] = '0';
        buffer[1] = '\0';
        return;
    }

    if (value < 0.0) {
    6c36:	36 01       	movw	r6, r12

static int normalize(double *val) {
    int exponent = 0;
    double value = *val;

    while (value >= 1.0) {
    6c38:	20 e0       	ldi	r18, 0x00	; 0
    6c3a:	30 e0       	ldi	r19, 0x00	; 0
    6c3c:	40 e8       	ldi	r20, 0x80	; 128
    6c3e:	5f e3       	ldi	r21, 0x3F	; 63
    6c40:	6f 89       	ldd	r22, Y+23	; 0x17
    6c42:	78 8d       	ldd	r23, Y+24	; 0x18
    6c44:	89 8d       	ldd	r24, Y+25	; 0x19
    6c46:	9a 8d       	ldd	r25, Y+26	; 0x1a
    6c48:	0e 94 90 39 	call	0x7320	; 0x7320 <__gesf2>
    6c4c:	88 23       	and	r24, r24
    6c4e:	dc f0       	brlt	.+54     	; 0x6c86 <vDisplayWriteStringAtPos+0x50c>
    6c50:	00 e0       	ldi	r16, 0x00	; 0
    6c52:	10 e0       	ldi	r17, 0x00	; 0
        value /= 10.0;
    6c54:	20 e0       	ldi	r18, 0x00	; 0
    6c56:	30 e0       	ldi	r19, 0x00	; 0
    6c58:	40 e2       	ldi	r20, 0x20	; 32
    6c5a:	51 e4       	ldi	r21, 0x41	; 65
    6c5c:	6f 89       	ldd	r22, Y+23	; 0x17
    6c5e:	78 8d       	ldd	r23, Y+24	; 0x18
    6c60:	89 8d       	ldd	r24, Y+25	; 0x19
    6c62:	9a 8d       	ldd	r25, Y+26	; 0x1a
    6c64:	0e 94 f8 37 	call	0x6ff0	; 0x6ff0 <__divsf3>
    6c68:	6f 8b       	std	Y+23, r22	; 0x17
    6c6a:	78 8f       	std	Y+24, r23	; 0x18
    6c6c:	89 8f       	std	Y+25, r24	; 0x19
    6c6e:	9a 8f       	std	Y+26, r25	; 0x1a
        ++exponent;
    6c70:	0f 5f       	subi	r16, 0xFF	; 255
    6c72:	1f 4f       	sbci	r17, 0xFF	; 255

static int normalize(double *val) {
    int exponent = 0;
    double value = *val;

    while (value >= 1.0) {
    6c74:	20 e0       	ldi	r18, 0x00	; 0
    6c76:	30 e0       	ldi	r19, 0x00	; 0
    6c78:	40 e8       	ldi	r20, 0x80	; 128
    6c7a:	5f e3       	ldi	r21, 0x3F	; 63
    6c7c:	0e 94 90 39 	call	0x7320	; 0x7320 <__gesf2>
    6c80:	88 23       	and	r24, r24
    6c82:	44 f7       	brge	.-48     	; 0x6c54 <vDisplayWriteStringAtPos+0x4da>
    6c84:	02 c0       	rjmp	.+4      	; 0x6c8a <vDisplayWriteStringAtPos+0x510>
	
	return length;
}

static int normalize(double *val) {
    int exponent = 0;
    6c86:	00 e0       	ldi	r16, 0x00	; 0
    6c88:	10 e0       	ldi	r17, 0x00	; 0
    while (value >= 1.0) {
        value /= 10.0;
        ++exponent;
    }

    while (value < 0.1) {
    6c8a:	2d ec       	ldi	r18, 0xCD	; 205
    6c8c:	3c ec       	ldi	r19, 0xCC	; 204
    6c8e:	4c ec       	ldi	r20, 0xCC	; 204
    6c90:	5d e3       	ldi	r21, 0x3D	; 61
    6c92:	6f 89       	ldd	r22, Y+23	; 0x17
    6c94:	78 8d       	ldd	r23, Y+24	; 0x18
    6c96:	89 8d       	ldd	r24, Y+25	; 0x19
    6c98:	9a 8d       	ldd	r25, Y+26	; 0x1a
    6c9a:	0e 94 f3 37 	call	0x6fe6	; 0x6fe6 <__cmpsf2>
    6c9e:	88 23       	and	r24, r24
    6ca0:	c4 f4       	brge	.+48     	; 0x6cd2 <vDisplayWriteStringAtPos+0x558>
        value *= 10.0;
    6ca2:	20 e0       	ldi	r18, 0x00	; 0
    6ca4:	30 e0       	ldi	r19, 0x00	; 0
    6ca6:	40 e2       	ldi	r20, 0x20	; 32
    6ca8:	51 e4       	ldi	r21, 0x41	; 65
    6caa:	6f 89       	ldd	r22, Y+23	; 0x17
    6cac:	78 8d       	ldd	r23, Y+24	; 0x18
    6cae:	89 8d       	ldd	r24, Y+25	; 0x19
    6cb0:	9a 8d       	ldd	r25, Y+26	; 0x1a
    6cb2:	0e 94 95 39 	call	0x732a	; 0x732a <__mulsf3>
    6cb6:	6f 8b       	std	Y+23, r22	; 0x17
    6cb8:	78 8f       	std	Y+24, r23	; 0x18
    6cba:	89 8f       	std	Y+25, r24	; 0x19
    6cbc:	9a 8f       	std	Y+26, r25	; 0x1a
        --exponent;
    6cbe:	01 50       	subi	r16, 0x01	; 1
    6cc0:	11 09       	sbc	r17, r1
    while (value >= 1.0) {
        value /= 10.0;
        ++exponent;
    }

    while (value < 0.1) {
    6cc2:	2d ec       	ldi	r18, 0xCD	; 205
    6cc4:	3c ec       	ldi	r19, 0xCC	; 204
    6cc6:	4c ec       	ldi	r20, 0xCC	; 204
    6cc8:	5d e3       	ldi	r21, 0x3D	; 61
    6cca:	0e 94 f3 37 	call	0x6fe6	; 0x6fe6 <__cmpsf2>
    6cce:	88 23       	and	r24, r24
    6cd0:	44 f3       	brlt	.-48     	; 0x6ca2 <vDisplayWriteStringAtPos+0x528>
        value = -value;
    }

    exponent = normalize(&value);

    int digit = value * 10.0;
    6cd2:	20 e0       	ldi	r18, 0x00	; 0
    6cd4:	30 e0       	ldi	r19, 0x00	; 0
    6cd6:	40 e2       	ldi	r20, 0x20	; 32
    6cd8:	51 e4       	ldi	r21, 0x41	; 65
    6cda:	6f 89       	ldd	r22, Y+23	; 0x17
    6cdc:	78 8d       	ldd	r23, Y+24	; 0x18
    6cde:	89 8d       	ldd	r24, Y+25	; 0x19
    6ce0:	9a 8d       	ldd	r25, Y+26	; 0x1a
    6ce2:	0e 94 95 39 	call	0x732a	; 0x732a <__mulsf3>
    6ce6:	6f 8b       	std	Y+23, r22	; 0x17
    6ce8:	78 8f       	std	Y+24, r23	; 0x18
    6cea:	89 8f       	std	Y+25, r24	; 0x19
    6cec:	9a 8f       	std	Y+26, r25	; 0x1a
    6cee:	0e 94 6a 38 	call	0x70d4	; 0x70d4 <__fixsfsi>
    *buffer++ = digit + '0';
    6cf2:	20 e3       	ldi	r18, 0x30	; 48
    6cf4:	26 0f       	add	r18, r22
    6cf6:	d3 01       	movw	r26, r6
    6cf8:	2c 93       	st	X, r18
    value = value * 10.0 - digit;
    6cfa:	07 2e       	mov	r0, r23
    6cfc:	00 0c       	add	r0, r0
    6cfe:	88 0b       	sbc	r24, r24
    6d00:	99 0b       	sbc	r25, r25
    6d02:	0e 94 a2 38 	call	0x7144	; 0x7144 <__floatsisf>
    6d06:	9b 01       	movw	r18, r22
    6d08:	ac 01       	movw	r20, r24
    6d0a:	6f 89       	ldd	r22, Y+23	; 0x17
    6d0c:	78 8d       	ldd	r23, Y+24	; 0x18
    6d0e:	89 8d       	ldd	r24, Y+25	; 0x19
    6d10:	9a 8d       	ldd	r25, Y+26	; 0x1a
    6d12:	0e 94 86 37 	call	0x6f0c	; 0x6f0c <__subsf3>
    --exponent;
    6d16:	f8 01       	movw	r30, r16
    6d18:	31 97       	sbiw	r30, 0x01	; 1
    6d1a:	ec 8f       	std	Y+28, r30	; 0x1c
    6d1c:	fd 8f       	std	Y+29, r31	; 0x1d

    *buffer++ = '.';
    6d1e:	ee e2       	ldi	r30, 0x2E	; 46
    6d20:	d3 01       	movw	r26, r6
    6d22:	11 96       	adiw	r26, 0x01	; 1
    6d24:	ec 93       	st	X, r30
    6d26:	83 01       	movw	r16, r6
    6d28:	0e 5f       	subi	r16, 0xFE	; 254
    6d2a:	1f 4f       	sbci	r17, 0xFF	; 255
    6d2c:	73 01       	movw	r14, r6
    6d2e:	f6 e0       	ldi	r31, 0x06	; 6
    6d30:	ef 0e       	add	r14, r31
    6d32:	f1 1c       	adc	r15, r1

    for (int i = 0; i < width; i++) {
        int digit = value * 10.0;
    6d34:	20 e0       	ldi	r18, 0x00	; 0
    6d36:	30 e0       	ldi	r19, 0x00	; 0
    6d38:	40 e2       	ldi	r20, 0x20	; 32
    6d3a:	51 e4       	ldi	r21, 0x41	; 65
    6d3c:	0e 94 95 39 	call	0x732a	; 0x732a <__mulsf3>
    6d40:	6f 8b       	std	Y+23, r22	; 0x17
    6d42:	78 8f       	std	Y+24, r23	; 0x18
    6d44:	89 8f       	std	Y+25, r24	; 0x19
    6d46:	9a 8f       	std	Y+26, r25	; 0x1a
    6d48:	0e 94 6a 38 	call	0x70d4	; 0x70d4 <__fixsfsi>
        *buffer++ = digit + '0';
    6d4c:	20 e3       	ldi	r18, 0x30	; 48
    6d4e:	26 0f       	add	r18, r22
    6d50:	d8 01       	movw	r26, r16
    6d52:	2d 93       	st	X+, r18
    6d54:	8d 01       	movw	r16, r26
        value = value * 10.0 - digit;
    6d56:	07 2e       	mov	r0, r23
    6d58:	00 0c       	add	r0, r0
    6d5a:	88 0b       	sbc	r24, r24
    6d5c:	99 0b       	sbc	r25, r25
    6d5e:	0e 94 a2 38 	call	0x7144	; 0x7144 <__floatsisf>
    6d62:	9b 01       	movw	r18, r22
    6d64:	ac 01       	movw	r20, r24
    6d66:	6f 89       	ldd	r22, Y+23	; 0x17
    6d68:	78 8d       	ldd	r23, Y+24	; 0x18
    6d6a:	89 8d       	ldd	r24, Y+25	; 0x19
    6d6c:	9a 8d       	ldd	r25, Y+26	; 0x1a
    6d6e:	0e 94 86 37 	call	0x6f0c	; 0x6f0c <__subsf3>
    value = value * 10.0 - digit;
    --exponent;

    *buffer++ = '.';

    for (int i = 0; i < width; i++) {
    6d72:	0e 15       	cp	r16, r14
    6d74:	1f 05       	cpc	r17, r15
    6d76:	f1 f6       	brne	.-68     	; 0x6d34 <vDisplayWriteStringAtPos+0x5ba>
        int digit = value * 10.0;
        *buffer++ = digit + '0';
        value = value * 10.0 - digit;
    }

    *buffer++ = 'e';
    6d78:	25 e6       	ldi	r18, 0x65	; 101
    6d7a:	f3 01       	movw	r30, r6
    6d7c:	26 83       	std	Z+6, r18	; 0x06
    6d7e:	b3 01       	movw	r22, r6
    6d80:	69 5f       	subi	r22, 0xF9	; 249
    6d82:	7f 4f       	sbci	r23, 0xFF	; 255
    6d84:	4a e0       	ldi	r20, 0x0A	; 10
    6d86:	8c 8d       	ldd	r24, Y+28	; 0x1c
    6d88:	9d 8d       	ldd	r25, Y+29	; 0x1d
    6d8a:	0e 94 8e 41 	call	0x831c	; 0x831c <__itoa_ncheck>
    6d8e:	94 01       	movw	r18, r8
    6d90:	f4 01       	movw	r30, r8
    6d92:	e0 52       	subi	r30, 0x20	; 32
    6d94:	f2 4d       	sbci	r31, 0xD2	; 210
	
	return length;
}

static int normalize(double *val) {
    int exponent = 0;
    6d96:	44 ef       	ldi	r20, 0xF4	; 244
    6d98:	5d e2       	ldi	r21, 0x2D	; 45
    6d9a:	80 e0       	ldi	r24, 0x00	; 0
    6d9c:	90 e0       	ldi	r25, 0x00	; 0
    6d9e:	05 c0       	rjmp	.+10     	; 0x6daa <vDisplayWriteStringAtPos+0x630>

				case 'e':
				double_temp = va_arg(arg, double);
				ftoa_sci(buffer, double_temp);
				for(int i = 0; i < strlen(buffer);i++) {
					str[length+i] = buffer[i];
    6da0:	da 01       	movw	r26, r20
    6da2:	6d 91       	ld	r22, X+
    6da4:	ad 01       	movw	r20, r26
    6da6:	61 93       	st	Z+, r22
				break;

				case 'e':
				double_temp = va_arg(arg, double);
				ftoa_sci(buffer, double_temp);
				for(int i = 0; i < strlen(buffer);i++) {
    6da8:	01 96       	adiw	r24, 0x01	; 1
    6daa:	d6 01       	movw	r26, r12
    6dac:	0d 90       	ld	r0, X+
    6dae:	00 20       	and	r0, r0
    6db0:	e9 f7       	brne	.-6      	; 0x6dac <vDisplayWriteStringAtPos+0x632>
    6db2:	11 97       	sbiw	r26, 0x01	; 1
    6db4:	a4 5f       	subi	r26, 0xF4	; 244
    6db6:	bd 42       	sbci	r27, 0x2D	; 45
    6db8:	8a 17       	cp	r24, r26
    6dba:	9b 07       	cpc	r25, r27
    6dbc:	88 f3       	brcs	.-30     	; 0x6da0 <vDisplayWriteStringAtPos+0x626>
					str[length+i] = buffer[i];
				}
				length += strlen(buffer);
    6dbe:	4d 01       	movw	r8, r26
    6dc0:	82 0e       	add	r8, r18
    6dc2:	93 1e       	adc	r9, r19
				}
				length += strlen(buffer);
				break;

				case 'e':
				double_temp = va_arg(arg, double);
    6dc4:	71 01       	movw	r14, r2
	for(int i = 0; i < 20; i++) {
		str[i] = 0x00;
	}
	while ((ch = *fmt++)!=false) {
		if ( '%' == ch ) {
			switch (ch = *fmt++) {
    6dc6:	d2 01       	movw	r26, r4
    6dc8:	11 c0       	rjmp	.+34     	; 0x6dec <vDisplayWriteStringAtPos+0x672>
				break;
			}
		}
		else {
			str[length] = ch;
			if(str[length] == '\n') {
    6dca:	8a 30       	cpi	r24, 0x0A	; 10
    6dcc:	29 f0       	breq	.+10     	; 0x6dd8 <vDisplayWriteStringAtPos+0x65e>
				length += strlen(buffer);
				break;
			}
		}
		else {
			str[length] = ch;
    6dce:	f4 01       	movw	r30, r8
    6dd0:	e0 52       	subi	r30, 0x20	; 32
    6dd2:	f2 4d       	sbci	r31, 0xD2	; 210
    6dd4:	80 83       	st	Z, r24
    6dd6:	04 c0       	rjmp	.+8      	; 0x6de0 <vDisplayWriteStringAtPos+0x666>
			if(str[length] == '\n') {
				str[length] = '\0';				
    6dd8:	f4 01       	movw	r30, r8
    6dda:	e0 52       	subi	r30, 0x20	; 32
    6ddc:	f2 4d       	sbci	r31, 0xD2	; 210
    6dde:	10 82       	st	Z, r1
		buffer[i] = 0x00;
	}
	for(int i = 0; i < 20; i++) {
		str[i] = 0x00;
	}
	while ((ch = *fmt++)!=false) {
    6de0:	11 96       	adiw	r26, 0x01	; 1
		else {
			str[length] = ch;
			if(str[length] == '\n') {
				str[length] = '\0';				
			}
			length++;
    6de2:	ef ef       	ldi	r30, 0xFF	; 255
    6de4:	8e 1a       	sub	r8, r30
    6de6:	9e 0a       	sbc	r9, r30
    6de8:	01 c0       	rjmp	.+2      	; 0x6dec <vDisplayWriteStringAtPos+0x672>
	for(int i = 0; i < 20; i++) {
		str[i] = 0x00;
	}
	while ((ch = *fmt++)!=false) {
		if ( '%' == ch ) {
			switch (ch = *fmt++) {
    6dea:	d2 01       	movw	r26, r4
		buffer[i] = 0x00;
	}
	for(int i = 0; i < 20; i++) {
		str[i] = 0x00;
	}
	while ((ch = *fmt++)!=false) {
    6dec:	8c 91       	ld	r24, X
    6dee:	81 11       	cpse	r24, r1
    6df0:	01 cd       	rjmp	.-1534   	; 0x67f4 <vDisplayWriteStringAtPos+0x7a>
				str[length] = '\0';				
			}
			length++;
		}
	}
	if(length + pos >= 20) {
    6df2:	8d a9       	ldd	r24, Y+53	; 0x35
    6df4:	9e a9       	ldd	r25, Y+54	; 0x36
    6df6:	88 0d       	add	r24, r8
    6df8:	99 1d       	adc	r25, r9
    6dfa:	44 97       	sbiw	r24, 0x14	; 20
    6dfc:	3c f0       	brlt	.+14     	; 0x6e0c <vDisplayWriteStringAtPos+0x692>
		length = 20-pos;
    6dfe:	84 e1       	ldi	r24, 0x14	; 20
    6e00:	90 e0       	ldi	r25, 0x00	; 0
    6e02:	4c 01       	movw	r8, r24
    6e04:	2d a9       	ldd	r18, Y+53	; 0x35
    6e06:	3e a9       	ldd	r19, Y+54	; 0x36
    6e08:	82 1a       	sub	r8, r18
    6e0a:	93 0a       	sbc	r9, r19
    6e0c:	fe 01       	movw	r30, r28
    6e0e:	33 96       	adiw	r30, 0x03	; 3
    6e10:	ce 01       	movw	r24, r28
    6e12:	47 96       	adiw	r24, 0x17	; 23
	static char buffer[20];
	static char str[20];
	for(int i = 0; i < 20; i++) {
		buffer[i] = 0x00;
	}
	for(int i = 0; i < 20; i++) {
    6e14:	df 01       	movw	r26, r30
	if(length + pos >= 20) {
		length = 20-pos;
	}
	displayLine_t newLine;
	for(int i = 0; i < 20; i++) {
		newLine.displayBuffer[i] = 0x00;
    6e16:	1d 92       	st	X+, r1
	}
	if(length + pos >= 20) {
		length = 20-pos;
	}
	displayLine_t newLine;
	for(int i = 0; i < 20; i++) {
    6e18:	a8 17       	cp	r26, r24
    6e1a:	b9 07       	cpc	r27, r25
    6e1c:	e1 f7       	brne	.-8      	; 0x6e16 <vDisplayWriteStringAtPos+0x69c>
		newLine.displayBuffer[i] = 0x00;
	}
	newLine.displayLine = line;
    6e1e:	3b 8d       	ldd	r19, Y+27	; 0x1b
    6e20:	39 83       	std	Y+1, r19	; 0x01
	newLine.displayPos = pos;
    6e22:	8d a9       	ldd	r24, Y+53	; 0x35
    6e24:	8a 83       	std	Y+2, r24	; 0x02
	for(int i = 0; i < length;i++) {
    6e26:	18 14       	cp	r1, r8
    6e28:	19 04       	cpc	r1, r9
    6e2a:	5c f4       	brge	.+22     	; 0x6e42 <vDisplayWriteStringAtPos+0x6c8>
    6e2c:	ce 01       	movw	r24, r28
    6e2e:	88 0d       	add	r24, r8
    6e30:	99 1d       	adc	r25, r9
    6e32:	03 96       	adiw	r24, 0x03	; 3
		newLine.displayBuffer[i] = str[i];
    6e34:	d5 01       	movw	r26, r10
    6e36:	2d 91       	ld	r18, X+
    6e38:	5d 01       	movw	r10, r26
    6e3a:	21 93       	st	Z+, r18
	for(int i = 0; i < 20; i++) {
		newLine.displayBuffer[i] = 0x00;
	}
	newLine.displayLine = line;
	newLine.displayPos = pos;
	for(int i = 0; i < length;i++) {
    6e3c:	8e 17       	cp	r24, r30
    6e3e:	9f 07       	cpc	r25, r31
    6e40:	c9 f7       	brne	.-14     	; 0x6e34 <vDisplayWriteStringAtPos+0x6ba>
		newLine.displayBuffer[i] = str[i];
	}	
	xQueueSend(displayLineQueue, (void *) &newLine, portMAX_DELAY);
    6e42:	00 e0       	ldi	r16, 0x00	; 0
    6e44:	2f ef       	ldi	r18, 0xFF	; 255
    6e46:	3f ef       	ldi	r19, 0xFF	; 255
    6e48:	a9 01       	movw	r20, r18
    6e4a:	be 01       	movw	r22, r28
    6e4c:	6f 5f       	subi	r22, 0xFF	; 255
    6e4e:	7f 4f       	sbci	r23, 0xFF	; 255
    6e50:	80 91 2f 2e 	lds	r24, 0x2E2F	; 0x802e2f <displayLineQueue>
    6e54:	90 91 30 2e 	lds	r25, 0x2E30	; 0x802e30 <displayLineQueue+0x1>
    6e58:	0e 94 c0 1d 	call	0x3b80	; 0x3b80 <xQueueGenericSend>
void vDisplayWriteStringAtPos(int line, int pos, char const *fmt, ...) {
	va_list arg;	
	va_start(arg, fmt);
	display_vprintf(line, pos, fmt, arg);
	va_end(arg);	
}
    6e5c:	1b c0       	rjmp	.+54     	; 0x6e94 <vDisplayWriteStringAtPos+0x71a>
    while (value >= 1.0) {
        value /= 10.0;
        ++exponent;
    }

    while (value < 0.1) {
    6e5e:	2d ec       	ldi	r18, 0xCD	; 205
    6e60:	3c ec       	ldi	r19, 0xCC	; 204
    6e62:	4c ec       	ldi	r20, 0xCC	; 204
    6e64:	5d e3       	ldi	r21, 0x3D	; 61
    6e66:	6f 89       	ldd	r22, Y+23	; 0x17
    6e68:	78 8d       	ldd	r23, Y+24	; 0x18
    6e6a:	89 8d       	ldd	r24, Y+25	; 0x19
    6e6c:	9a 8d       	ldd	r25, Y+26	; 0x1a
    6e6e:	0e 94 f3 37 	call	0x6fe6	; 0x6fe6 <__cmpsf2>
    6e72:	88 23       	and	r24, r24
    6e74:	0c f4       	brge	.+2      	; 0x6e78 <vDisplayWriteStringAtPos+0x6fe>
    6e76:	d6 cd       	rjmp	.-1108   	; 0x6a24 <vDisplayWriteStringAtPos+0x2aa>
	
	return length;
}

static int normalize(double *val) {
    int exponent = 0;
    6e78:	80 e0       	ldi	r24, 0x00	; 0
    6e7a:	90 e0       	ldi	r25, 0x00	; 0
    6e7c:	26 ce       	rjmp	.-948    	; 0x6aca <vDisplayWriteStringAtPos+0x350>
        ++places;
        --exponent;
    }

    if (places == 0)
        *buffer++ = '0';
    6e7e:	20 e3       	ldi	r18, 0x30	; 48
    6e80:	ec 8d       	ldd	r30, Y+28	; 0x1c
    6e82:	fd 8d       	ldd	r31, Y+29	; 0x1d
    6e84:	20 83       	st	Z, r18

    *buffer++ = '.';
    6e86:	7f 01       	movw	r14, r30
    6e88:	32 e0       	ldi	r19, 0x02	; 2
    6e8a:	e3 0e       	add	r14, r19
    6e8c:	f1 1c       	adc	r15, r1
    6e8e:	8e e2       	ldi	r24, 0x2E	; 46
    6e90:	81 83       	std	Z+1, r24	; 0x01
    6e92:	46 ce       	rjmp	.-884    	; 0x6b20 <vDisplayWriteStringAtPos+0x3a6>
void vDisplayWriteStringAtPos(int line, int pos, char const *fmt, ...) {
	va_list arg;	
	va_start(arg, fmt);
	display_vprintf(line, pos, fmt, arg);
	va_end(arg);	
}
    6e94:	6d 96       	adiw	r28, 0x1d	; 29
    6e96:	cd bf       	out	0x3d, r28	; 61
    6e98:	de bf       	out	0x3e, r29	; 62
    6e9a:	df 91       	pop	r29
    6e9c:	cf 91       	pop	r28
    6e9e:	1f 91       	pop	r17
    6ea0:	0f 91       	pop	r16
    6ea2:	ff 90       	pop	r15
    6ea4:	ef 90       	pop	r14
    6ea6:	df 90       	pop	r13
    6ea8:	cf 90       	pop	r12
    6eaa:	bf 90       	pop	r11
    6eac:	af 90       	pop	r10
    6eae:	9f 90       	pop	r9
    6eb0:	8f 90       	pop	r8
    6eb2:	7f 90       	pop	r7
    6eb4:	6f 90       	pop	r6
    6eb6:	5f 90       	pop	r5
    6eb8:	4f 90       	pop	r4
    6eba:	3f 90       	pop	r3
    6ebc:	2f 90       	pop	r2
    6ebe:	08 95       	ret

00006ec0 <getResetReason>:
 #include "utils.h"

 resetReason_t getResetReason(void) {
	 resetReason_t returnValue = RESETREASON_POWERONRESET;
	 // software reset ?
	 if( RST.STATUS & RST_SRF_bm )
    6ec0:	80 91 78 00 	lds	r24, 0x0078	; 0x800078 <__TEXT_REGION_LENGTH__+0x700078>
    6ec4:	85 ff       	sbrs	r24, 5
    6ec6:	05 c0       	rjmp	.+10     	; 0x6ed2 <getResetReason+0x12>
	 {
		 // reset this bit
		 RST.STATUS = RST_SRF_bm;
    6ec8:	80 e2       	ldi	r24, 0x20	; 32
    6eca:	80 93 78 00 	sts	0x0078, r24	; 0x800078 <__TEXT_REGION_LENGTH__+0x700078>
		 returnValue = RESETREASON_SOFTWARERESET;
    6ece:	81 e0       	ldi	r24, 0x01	; 1
    6ed0:	08 95       	ret
	 }
	 // power on reset ?
	 else if( RST.STATUS & RST_PORF_bm)
    6ed2:	80 91 78 00 	lds	r24, 0x0078	; 0x800078 <__TEXT_REGION_LENGTH__+0x700078>
    6ed6:	80 ff       	sbrs	r24, 0
    6ed8:	05 c0       	rjmp	.+10     	; 0x6ee4 <getResetReason+0x24>
	 {
		 // reset this bit
		 RST.STATUS = RST_PORF_bm;
    6eda:	81 e0       	ldi	r24, 0x01	; 1
    6edc:	80 93 78 00 	sts	0x0078, r24	; 0x800078 <__TEXT_REGION_LENGTH__+0x700078>
		 returnValue = RESETREASON_POWERONRESET;
    6ee0:	82 e0       	ldi	r24, 0x02	; 2
    6ee2:	08 95       	ret
	 }
	 // debugger reset ?
	 else if( RST.STATUS & RST_PDIRF_bm)
    6ee4:	80 91 78 00 	lds	r24, 0x0078	; 0x800078 <__TEXT_REGION_LENGTH__+0x700078>
    6ee8:	84 ff       	sbrs	r24, 4
    6eea:	05 c0       	rjmp	.+10     	; 0x6ef6 <getResetReason+0x36>
	 {
		 // reset this bit
		 RST.STATUS = RST_PDIRF_bm;
    6eec:	80 e1       	ldi	r24, 0x10	; 16
    6eee:	80 93 78 00 	sts	0x0078, r24	; 0x800078 <__TEXT_REGION_LENGTH__+0x700078>
		 returnValue = RESETREASON_DEBUGGERRESET;
    6ef2:	83 e0       	ldi	r24, 0x03	; 3
    6ef4:	08 95       	ret
	 }
	 // external reset ?
	 else if( RST.STATUS & RST_EXTRF_bm)
    6ef6:	80 91 78 00 	lds	r24, 0x0078	; 0x800078 <__TEXT_REGION_LENGTH__+0x700078>
    6efa:	81 ff       	sbrs	r24, 1
    6efc:	05 c0       	rjmp	.+10     	; 0x6f08 <getResetReason+0x48>
	 {
		 // reset this bit
		 RST.STATUS = RST_EXTRF_bm;
    6efe:	82 e0       	ldi	r24, 0x02	; 2
    6f00:	80 93 78 00 	sts	0x0078, r24	; 0x800078 <__TEXT_REGION_LENGTH__+0x700078>
		 returnValue = RESETREASON_EXTERNALRESET;
    6f04:	84 e0       	ldi	r24, 0x04	; 4
    6f06:	08 95       	ret
 */ 
 #include "avr_compiler.h"
 #include "utils.h"

 resetReason_t getResetReason(void) {
	 resetReason_t returnValue = RESETREASON_POWERONRESET;
    6f08:	82 e0       	ldi	r24, 0x02	; 2
		 // reset this bit
		 RST.STATUS = RST_EXTRF_bm;
		 returnValue = RESETREASON_EXTERNALRESET;
	 }
	 return returnValue;
    6f0a:	08 95       	ret

00006f0c <__subsf3>:
    6f0c:	50 58       	subi	r21, 0x80	; 128

00006f0e <__addsf3>:
    6f0e:	bb 27       	eor	r27, r27
    6f10:	aa 27       	eor	r26, r26
    6f12:	0e 94 9e 37 	call	0x6f3c	; 0x6f3c <__addsf3x>
    6f16:	0c 94 56 39 	jmp	0x72ac	; 0x72ac <__fp_round>
    6f1a:	0e 94 48 39 	call	0x7290	; 0x7290 <__fp_pscA>
    6f1e:	38 f0       	brcs	.+14     	; 0x6f2e <__addsf3+0x20>
    6f20:	0e 94 4f 39 	call	0x729e	; 0x729e <__fp_pscB>
    6f24:	20 f0       	brcs	.+8      	; 0x6f2e <__addsf3+0x20>
    6f26:	39 f4       	brne	.+14     	; 0x6f36 <__addsf3+0x28>
    6f28:	9f 3f       	cpi	r25, 0xFF	; 255
    6f2a:	19 f4       	brne	.+6      	; 0x6f32 <__addsf3+0x24>
    6f2c:	26 f4       	brtc	.+8      	; 0x6f36 <__addsf3+0x28>
    6f2e:	0c 94 45 39 	jmp	0x728a	; 0x728a <__fp_nan>
    6f32:	0e f4       	brtc	.+2      	; 0x6f36 <__addsf3+0x28>
    6f34:	e0 95       	com	r30
    6f36:	e7 fb       	bst	r30, 7
    6f38:	0c 94 3f 39 	jmp	0x727e	; 0x727e <__fp_inf>

00006f3c <__addsf3x>:
    6f3c:	e9 2f       	mov	r30, r25
    6f3e:	0e 94 67 39 	call	0x72ce	; 0x72ce <__fp_split3>
    6f42:	58 f3       	brcs	.-42     	; 0x6f1a <__addsf3+0xc>
    6f44:	ba 17       	cp	r27, r26
    6f46:	62 07       	cpc	r22, r18
    6f48:	73 07       	cpc	r23, r19
    6f4a:	84 07       	cpc	r24, r20
    6f4c:	95 07       	cpc	r25, r21
    6f4e:	20 f0       	brcs	.+8      	; 0x6f58 <__addsf3x+0x1c>
    6f50:	79 f4       	brne	.+30     	; 0x6f70 <__addsf3x+0x34>
    6f52:	a6 f5       	brtc	.+104    	; 0x6fbc <__addsf3x+0x80>
    6f54:	0c 94 89 39 	jmp	0x7312	; 0x7312 <__fp_zero>
    6f58:	0e f4       	brtc	.+2      	; 0x6f5c <__addsf3x+0x20>
    6f5a:	e0 95       	com	r30
    6f5c:	0b 2e       	mov	r0, r27
    6f5e:	ba 2f       	mov	r27, r26
    6f60:	a0 2d       	mov	r26, r0
    6f62:	0b 01       	movw	r0, r22
    6f64:	b9 01       	movw	r22, r18
    6f66:	90 01       	movw	r18, r0
    6f68:	0c 01       	movw	r0, r24
    6f6a:	ca 01       	movw	r24, r20
    6f6c:	a0 01       	movw	r20, r0
    6f6e:	11 24       	eor	r1, r1
    6f70:	ff 27       	eor	r31, r31
    6f72:	59 1b       	sub	r21, r25
    6f74:	99 f0       	breq	.+38     	; 0x6f9c <__addsf3x+0x60>
    6f76:	59 3f       	cpi	r21, 0xF9	; 249
    6f78:	50 f4       	brcc	.+20     	; 0x6f8e <__addsf3x+0x52>
    6f7a:	50 3e       	cpi	r21, 0xE0	; 224
    6f7c:	68 f1       	brcs	.+90     	; 0x6fd8 <__addsf3x+0x9c>
    6f7e:	1a 16       	cp	r1, r26
    6f80:	f0 40       	sbci	r31, 0x00	; 0
    6f82:	a2 2f       	mov	r26, r18
    6f84:	23 2f       	mov	r18, r19
    6f86:	34 2f       	mov	r19, r20
    6f88:	44 27       	eor	r20, r20
    6f8a:	58 5f       	subi	r21, 0xF8	; 248
    6f8c:	f3 cf       	rjmp	.-26     	; 0x6f74 <__addsf3x+0x38>
    6f8e:	46 95       	lsr	r20
    6f90:	37 95       	ror	r19
    6f92:	27 95       	ror	r18
    6f94:	a7 95       	ror	r26
    6f96:	f0 40       	sbci	r31, 0x00	; 0
    6f98:	53 95       	inc	r21
    6f9a:	c9 f7       	brne	.-14     	; 0x6f8e <__addsf3x+0x52>
    6f9c:	7e f4       	brtc	.+30     	; 0x6fbc <__addsf3x+0x80>
    6f9e:	1f 16       	cp	r1, r31
    6fa0:	ba 0b       	sbc	r27, r26
    6fa2:	62 0b       	sbc	r22, r18
    6fa4:	73 0b       	sbc	r23, r19
    6fa6:	84 0b       	sbc	r24, r20
    6fa8:	ba f0       	brmi	.+46     	; 0x6fd8 <__addsf3x+0x9c>
    6faa:	91 50       	subi	r25, 0x01	; 1
    6fac:	a1 f0       	breq	.+40     	; 0x6fd6 <__addsf3x+0x9a>
    6fae:	ff 0f       	add	r31, r31
    6fb0:	bb 1f       	adc	r27, r27
    6fb2:	66 1f       	adc	r22, r22
    6fb4:	77 1f       	adc	r23, r23
    6fb6:	88 1f       	adc	r24, r24
    6fb8:	c2 f7       	brpl	.-16     	; 0x6faa <__addsf3x+0x6e>
    6fba:	0e c0       	rjmp	.+28     	; 0x6fd8 <__addsf3x+0x9c>
    6fbc:	ba 0f       	add	r27, r26
    6fbe:	62 1f       	adc	r22, r18
    6fc0:	73 1f       	adc	r23, r19
    6fc2:	84 1f       	adc	r24, r20
    6fc4:	48 f4       	brcc	.+18     	; 0x6fd8 <__addsf3x+0x9c>
    6fc6:	87 95       	ror	r24
    6fc8:	77 95       	ror	r23
    6fca:	67 95       	ror	r22
    6fcc:	b7 95       	ror	r27
    6fce:	f7 95       	ror	r31
    6fd0:	9e 3f       	cpi	r25, 0xFE	; 254
    6fd2:	08 f0       	brcs	.+2      	; 0x6fd6 <__addsf3x+0x9a>
    6fd4:	b0 cf       	rjmp	.-160    	; 0x6f36 <__addsf3+0x28>
    6fd6:	93 95       	inc	r25
    6fd8:	88 0f       	add	r24, r24
    6fda:	08 f0       	brcs	.+2      	; 0x6fde <__addsf3x+0xa2>
    6fdc:	99 27       	eor	r25, r25
    6fde:	ee 0f       	add	r30, r30
    6fe0:	97 95       	ror	r25
    6fe2:	87 95       	ror	r24
    6fe4:	08 95       	ret

00006fe6 <__cmpsf2>:
    6fe6:	0e 94 1b 39 	call	0x7236	; 0x7236 <__fp_cmp>
    6fea:	08 f4       	brcc	.+2      	; 0x6fee <__cmpsf2+0x8>
    6fec:	81 e0       	ldi	r24, 0x01	; 1
    6fee:	08 95       	ret

00006ff0 <__divsf3>:
    6ff0:	0e 94 0c 38 	call	0x7018	; 0x7018 <__divsf3x>
    6ff4:	0c 94 56 39 	jmp	0x72ac	; 0x72ac <__fp_round>
    6ff8:	0e 94 4f 39 	call	0x729e	; 0x729e <__fp_pscB>
    6ffc:	58 f0       	brcs	.+22     	; 0x7014 <__divsf3+0x24>
    6ffe:	0e 94 48 39 	call	0x7290	; 0x7290 <__fp_pscA>
    7002:	40 f0       	brcs	.+16     	; 0x7014 <__divsf3+0x24>
    7004:	29 f4       	brne	.+10     	; 0x7010 <__divsf3+0x20>
    7006:	5f 3f       	cpi	r21, 0xFF	; 255
    7008:	29 f0       	breq	.+10     	; 0x7014 <__divsf3+0x24>
    700a:	0c 94 3f 39 	jmp	0x727e	; 0x727e <__fp_inf>
    700e:	51 11       	cpse	r21, r1
    7010:	0c 94 8a 39 	jmp	0x7314	; 0x7314 <__fp_szero>
    7014:	0c 94 45 39 	jmp	0x728a	; 0x728a <__fp_nan>

00007018 <__divsf3x>:
    7018:	0e 94 67 39 	call	0x72ce	; 0x72ce <__fp_split3>
    701c:	68 f3       	brcs	.-38     	; 0x6ff8 <__divsf3+0x8>

0000701e <__divsf3_pse>:
    701e:	99 23       	and	r25, r25
    7020:	b1 f3       	breq	.-20     	; 0x700e <__divsf3+0x1e>
    7022:	55 23       	and	r21, r21
    7024:	91 f3       	breq	.-28     	; 0x700a <__divsf3+0x1a>
    7026:	95 1b       	sub	r25, r21
    7028:	55 0b       	sbc	r21, r21
    702a:	bb 27       	eor	r27, r27
    702c:	aa 27       	eor	r26, r26
    702e:	62 17       	cp	r22, r18
    7030:	73 07       	cpc	r23, r19
    7032:	84 07       	cpc	r24, r20
    7034:	38 f0       	brcs	.+14     	; 0x7044 <__divsf3_pse+0x26>
    7036:	9f 5f       	subi	r25, 0xFF	; 255
    7038:	5f 4f       	sbci	r21, 0xFF	; 255
    703a:	22 0f       	add	r18, r18
    703c:	33 1f       	adc	r19, r19
    703e:	44 1f       	adc	r20, r20
    7040:	aa 1f       	adc	r26, r26
    7042:	a9 f3       	breq	.-22     	; 0x702e <__divsf3_pse+0x10>
    7044:	35 d0       	rcall	.+106    	; 0x70b0 <__divsf3_pse+0x92>
    7046:	0e 2e       	mov	r0, r30
    7048:	3a f0       	brmi	.+14     	; 0x7058 <__divsf3_pse+0x3a>
    704a:	e0 e8       	ldi	r30, 0x80	; 128
    704c:	32 d0       	rcall	.+100    	; 0x70b2 <__divsf3_pse+0x94>
    704e:	91 50       	subi	r25, 0x01	; 1
    7050:	50 40       	sbci	r21, 0x00	; 0
    7052:	e6 95       	lsr	r30
    7054:	00 1c       	adc	r0, r0
    7056:	ca f7       	brpl	.-14     	; 0x704a <__divsf3_pse+0x2c>
    7058:	2b d0       	rcall	.+86     	; 0x70b0 <__divsf3_pse+0x92>
    705a:	fe 2f       	mov	r31, r30
    705c:	29 d0       	rcall	.+82     	; 0x70b0 <__divsf3_pse+0x92>
    705e:	66 0f       	add	r22, r22
    7060:	77 1f       	adc	r23, r23
    7062:	88 1f       	adc	r24, r24
    7064:	bb 1f       	adc	r27, r27
    7066:	26 17       	cp	r18, r22
    7068:	37 07       	cpc	r19, r23
    706a:	48 07       	cpc	r20, r24
    706c:	ab 07       	cpc	r26, r27
    706e:	b0 e8       	ldi	r27, 0x80	; 128
    7070:	09 f0       	breq	.+2      	; 0x7074 <__divsf3_pse+0x56>
    7072:	bb 0b       	sbc	r27, r27
    7074:	80 2d       	mov	r24, r0
    7076:	bf 01       	movw	r22, r30
    7078:	ff 27       	eor	r31, r31
    707a:	93 58       	subi	r25, 0x83	; 131
    707c:	5f 4f       	sbci	r21, 0xFF	; 255
    707e:	3a f0       	brmi	.+14     	; 0x708e <__divsf3_pse+0x70>
    7080:	9e 3f       	cpi	r25, 0xFE	; 254
    7082:	51 05       	cpc	r21, r1
    7084:	78 f0       	brcs	.+30     	; 0x70a4 <__divsf3_pse+0x86>
    7086:	0c 94 3f 39 	jmp	0x727e	; 0x727e <__fp_inf>
    708a:	0c 94 8a 39 	jmp	0x7314	; 0x7314 <__fp_szero>
    708e:	5f 3f       	cpi	r21, 0xFF	; 255
    7090:	e4 f3       	brlt	.-8      	; 0x708a <__divsf3_pse+0x6c>
    7092:	98 3e       	cpi	r25, 0xE8	; 232
    7094:	d4 f3       	brlt	.-12     	; 0x708a <__divsf3_pse+0x6c>
    7096:	86 95       	lsr	r24
    7098:	77 95       	ror	r23
    709a:	67 95       	ror	r22
    709c:	b7 95       	ror	r27
    709e:	f7 95       	ror	r31
    70a0:	9f 5f       	subi	r25, 0xFF	; 255
    70a2:	c9 f7       	brne	.-14     	; 0x7096 <__divsf3_pse+0x78>
    70a4:	88 0f       	add	r24, r24
    70a6:	91 1d       	adc	r25, r1
    70a8:	96 95       	lsr	r25
    70aa:	87 95       	ror	r24
    70ac:	97 f9       	bld	r25, 7
    70ae:	08 95       	ret
    70b0:	e1 e0       	ldi	r30, 0x01	; 1
    70b2:	66 0f       	add	r22, r22
    70b4:	77 1f       	adc	r23, r23
    70b6:	88 1f       	adc	r24, r24
    70b8:	bb 1f       	adc	r27, r27
    70ba:	62 17       	cp	r22, r18
    70bc:	73 07       	cpc	r23, r19
    70be:	84 07       	cpc	r24, r20
    70c0:	ba 07       	cpc	r27, r26
    70c2:	20 f0       	brcs	.+8      	; 0x70cc <__divsf3_pse+0xae>
    70c4:	62 1b       	sub	r22, r18
    70c6:	73 0b       	sbc	r23, r19
    70c8:	84 0b       	sbc	r24, r20
    70ca:	ba 0b       	sbc	r27, r26
    70cc:	ee 1f       	adc	r30, r30
    70ce:	88 f7       	brcc	.-30     	; 0x70b2 <__divsf3_pse+0x94>
    70d0:	e0 95       	com	r30
    70d2:	08 95       	ret

000070d4 <__fixsfsi>:
    70d4:	0e 94 71 38 	call	0x70e2	; 0x70e2 <__fixunssfsi>
    70d8:	68 94       	set
    70da:	b1 11       	cpse	r27, r1
    70dc:	0c 94 8a 39 	jmp	0x7314	; 0x7314 <__fp_szero>
    70e0:	08 95       	ret

000070e2 <__fixunssfsi>:
    70e2:	0e 94 6f 39 	call	0x72de	; 0x72de <__fp_splitA>
    70e6:	88 f0       	brcs	.+34     	; 0x710a <__fixunssfsi+0x28>
    70e8:	9f 57       	subi	r25, 0x7F	; 127
    70ea:	98 f0       	brcs	.+38     	; 0x7112 <__fixunssfsi+0x30>
    70ec:	b9 2f       	mov	r27, r25
    70ee:	99 27       	eor	r25, r25
    70f0:	b7 51       	subi	r27, 0x17	; 23
    70f2:	b0 f0       	brcs	.+44     	; 0x7120 <__fixunssfsi+0x3e>
    70f4:	e1 f0       	breq	.+56     	; 0x712e <__fixunssfsi+0x4c>
    70f6:	66 0f       	add	r22, r22
    70f8:	77 1f       	adc	r23, r23
    70fa:	88 1f       	adc	r24, r24
    70fc:	99 1f       	adc	r25, r25
    70fe:	1a f0       	brmi	.+6      	; 0x7106 <__fixunssfsi+0x24>
    7100:	ba 95       	dec	r27
    7102:	c9 f7       	brne	.-14     	; 0x70f6 <__fixunssfsi+0x14>
    7104:	14 c0       	rjmp	.+40     	; 0x712e <__fixunssfsi+0x4c>
    7106:	b1 30       	cpi	r27, 0x01	; 1
    7108:	91 f0       	breq	.+36     	; 0x712e <__fixunssfsi+0x4c>
    710a:	0e 94 89 39 	call	0x7312	; 0x7312 <__fp_zero>
    710e:	b1 e0       	ldi	r27, 0x01	; 1
    7110:	08 95       	ret
    7112:	0c 94 89 39 	jmp	0x7312	; 0x7312 <__fp_zero>
    7116:	67 2f       	mov	r22, r23
    7118:	78 2f       	mov	r23, r24
    711a:	88 27       	eor	r24, r24
    711c:	b8 5f       	subi	r27, 0xF8	; 248
    711e:	39 f0       	breq	.+14     	; 0x712e <__fixunssfsi+0x4c>
    7120:	b9 3f       	cpi	r27, 0xF9	; 249
    7122:	cc f3       	brlt	.-14     	; 0x7116 <__fixunssfsi+0x34>
    7124:	86 95       	lsr	r24
    7126:	77 95       	ror	r23
    7128:	67 95       	ror	r22
    712a:	b3 95       	inc	r27
    712c:	d9 f7       	brne	.-10     	; 0x7124 <__fixunssfsi+0x42>
    712e:	3e f4       	brtc	.+14     	; 0x713e <__fixunssfsi+0x5c>
    7130:	90 95       	com	r25
    7132:	80 95       	com	r24
    7134:	70 95       	com	r23
    7136:	61 95       	neg	r22
    7138:	7f 4f       	sbci	r23, 0xFF	; 255
    713a:	8f 4f       	sbci	r24, 0xFF	; 255
    713c:	9f 4f       	sbci	r25, 0xFF	; 255
    713e:	08 95       	ret

00007140 <__floatunsisf>:
    7140:	e8 94       	clt
    7142:	09 c0       	rjmp	.+18     	; 0x7156 <__floatsisf+0x12>

00007144 <__floatsisf>:
    7144:	97 fb       	bst	r25, 7
    7146:	3e f4       	brtc	.+14     	; 0x7156 <__floatsisf+0x12>
    7148:	90 95       	com	r25
    714a:	80 95       	com	r24
    714c:	70 95       	com	r23
    714e:	61 95       	neg	r22
    7150:	7f 4f       	sbci	r23, 0xFF	; 255
    7152:	8f 4f       	sbci	r24, 0xFF	; 255
    7154:	9f 4f       	sbci	r25, 0xFF	; 255
    7156:	99 23       	and	r25, r25
    7158:	a9 f0       	breq	.+42     	; 0x7184 <__floatsisf+0x40>
    715a:	f9 2f       	mov	r31, r25
    715c:	96 e9       	ldi	r25, 0x96	; 150
    715e:	bb 27       	eor	r27, r27
    7160:	93 95       	inc	r25
    7162:	f6 95       	lsr	r31
    7164:	87 95       	ror	r24
    7166:	77 95       	ror	r23
    7168:	67 95       	ror	r22
    716a:	b7 95       	ror	r27
    716c:	f1 11       	cpse	r31, r1
    716e:	f8 cf       	rjmp	.-16     	; 0x7160 <__floatsisf+0x1c>
    7170:	fa f4       	brpl	.+62     	; 0x71b0 <__floatsisf+0x6c>
    7172:	bb 0f       	add	r27, r27
    7174:	11 f4       	brne	.+4      	; 0x717a <__floatsisf+0x36>
    7176:	60 ff       	sbrs	r22, 0
    7178:	1b c0       	rjmp	.+54     	; 0x71b0 <__floatsisf+0x6c>
    717a:	6f 5f       	subi	r22, 0xFF	; 255
    717c:	7f 4f       	sbci	r23, 0xFF	; 255
    717e:	8f 4f       	sbci	r24, 0xFF	; 255
    7180:	9f 4f       	sbci	r25, 0xFF	; 255
    7182:	16 c0       	rjmp	.+44     	; 0x71b0 <__floatsisf+0x6c>
    7184:	88 23       	and	r24, r24
    7186:	11 f0       	breq	.+4      	; 0x718c <__floatsisf+0x48>
    7188:	96 e9       	ldi	r25, 0x96	; 150
    718a:	11 c0       	rjmp	.+34     	; 0x71ae <__floatsisf+0x6a>
    718c:	77 23       	and	r23, r23
    718e:	21 f0       	breq	.+8      	; 0x7198 <__floatsisf+0x54>
    7190:	9e e8       	ldi	r25, 0x8E	; 142
    7192:	87 2f       	mov	r24, r23
    7194:	76 2f       	mov	r23, r22
    7196:	05 c0       	rjmp	.+10     	; 0x71a2 <__floatsisf+0x5e>
    7198:	66 23       	and	r22, r22
    719a:	71 f0       	breq	.+28     	; 0x71b8 <__floatsisf+0x74>
    719c:	96 e8       	ldi	r25, 0x86	; 134
    719e:	86 2f       	mov	r24, r22
    71a0:	70 e0       	ldi	r23, 0x00	; 0
    71a2:	60 e0       	ldi	r22, 0x00	; 0
    71a4:	2a f0       	brmi	.+10     	; 0x71b0 <__floatsisf+0x6c>
    71a6:	9a 95       	dec	r25
    71a8:	66 0f       	add	r22, r22
    71aa:	77 1f       	adc	r23, r23
    71ac:	88 1f       	adc	r24, r24
    71ae:	da f7       	brpl	.-10     	; 0x71a6 <__floatsisf+0x62>
    71b0:	88 0f       	add	r24, r24
    71b2:	96 95       	lsr	r25
    71b4:	87 95       	ror	r24
    71b6:	97 f9       	bld	r25, 7
    71b8:	08 95       	ret

000071ba <__floatundisf>:
    71ba:	e8 94       	clt

000071bc <__fp_di2sf>:
    71bc:	f9 2f       	mov	r31, r25
    71be:	96 eb       	ldi	r25, 0xB6	; 182
    71c0:	ff 23       	and	r31, r31
    71c2:	81 f0       	breq	.+32     	; 0x71e4 <__fp_di2sf+0x28>
    71c4:	12 16       	cp	r1, r18
    71c6:	13 06       	cpc	r1, r19
    71c8:	14 06       	cpc	r1, r20
    71ca:	44 0b       	sbc	r20, r20
    71cc:	93 95       	inc	r25
    71ce:	f6 95       	lsr	r31
    71d0:	87 95       	ror	r24
    71d2:	77 95       	ror	r23
    71d4:	67 95       	ror	r22
    71d6:	57 95       	ror	r21
    71d8:	40 40       	sbci	r20, 0x00	; 0
    71da:	ff 23       	and	r31, r31
    71dc:	b9 f7       	brne	.-18     	; 0x71cc <__fp_di2sf+0x10>
    71de:	1b c0       	rjmp	.+54     	; 0x7216 <__fp_di2sf+0x5a>
    71e0:	99 27       	eor	r25, r25
    71e2:	08 95       	ret
    71e4:	88 23       	and	r24, r24
    71e6:	51 f4       	brne	.+20     	; 0x71fc <__fp_di2sf+0x40>
    71e8:	98 50       	subi	r25, 0x08	; 8
    71ea:	d2 f7       	brpl	.-12     	; 0x71e0 <__fp_di2sf+0x24>
    71ec:	87 2b       	or	r24, r23
    71ee:	76 2f       	mov	r23, r22
    71f0:	65 2f       	mov	r22, r21
    71f2:	54 2f       	mov	r21, r20
    71f4:	43 2f       	mov	r20, r19
    71f6:	32 2f       	mov	r19, r18
    71f8:	20 e0       	ldi	r18, 0x00	; 0
    71fa:	b1 f3       	breq	.-20     	; 0x71e8 <__fp_di2sf+0x2c>
    71fc:	12 16       	cp	r1, r18
    71fe:	13 06       	cpc	r1, r19
    7200:	14 06       	cpc	r1, r20
    7202:	44 0b       	sbc	r20, r20
    7204:	88 23       	and	r24, r24
    7206:	3a f0       	brmi	.+14     	; 0x7216 <__fp_di2sf+0x5a>
    7208:	9a 95       	dec	r25
    720a:	44 0f       	add	r20, r20
    720c:	55 1f       	adc	r21, r21
    720e:	66 1f       	adc	r22, r22
    7210:	77 1f       	adc	r23, r23
    7212:	88 1f       	adc	r24, r24
    7214:	ca f7       	brpl	.-14     	; 0x7208 <__fp_di2sf+0x4c>
    7216:	55 23       	and	r21, r21
    7218:	4a f4       	brpl	.+18     	; 0x722c <__fp_di2sf+0x70>
    721a:	44 0f       	add	r20, r20
    721c:	55 1f       	adc	r21, r21
    721e:	11 f4       	brne	.+4      	; 0x7224 <__fp_di2sf+0x68>
    7220:	60 ff       	sbrs	r22, 0
    7222:	04 c0       	rjmp	.+8      	; 0x722c <__fp_di2sf+0x70>
    7224:	6f 5f       	subi	r22, 0xFF	; 255
    7226:	7f 4f       	sbci	r23, 0xFF	; 255
    7228:	8f 4f       	sbci	r24, 0xFF	; 255
    722a:	9f 4f       	sbci	r25, 0xFF	; 255
    722c:	88 0f       	add	r24, r24
    722e:	96 95       	lsr	r25
    7230:	87 95       	ror	r24
    7232:	97 f9       	bld	r25, 7
    7234:	08 95       	ret

00007236 <__fp_cmp>:
    7236:	99 0f       	add	r25, r25
    7238:	00 08       	sbc	r0, r0
    723a:	55 0f       	add	r21, r21
    723c:	aa 0b       	sbc	r26, r26
    723e:	e0 e8       	ldi	r30, 0x80	; 128
    7240:	fe ef       	ldi	r31, 0xFE	; 254
    7242:	16 16       	cp	r1, r22
    7244:	17 06       	cpc	r1, r23
    7246:	e8 07       	cpc	r30, r24
    7248:	f9 07       	cpc	r31, r25
    724a:	c0 f0       	brcs	.+48     	; 0x727c <__fp_cmp+0x46>
    724c:	12 16       	cp	r1, r18
    724e:	13 06       	cpc	r1, r19
    7250:	e4 07       	cpc	r30, r20
    7252:	f5 07       	cpc	r31, r21
    7254:	98 f0       	brcs	.+38     	; 0x727c <__fp_cmp+0x46>
    7256:	62 1b       	sub	r22, r18
    7258:	73 0b       	sbc	r23, r19
    725a:	84 0b       	sbc	r24, r20
    725c:	95 0b       	sbc	r25, r21
    725e:	39 f4       	brne	.+14     	; 0x726e <__fp_cmp+0x38>
    7260:	0a 26       	eor	r0, r26
    7262:	61 f0       	breq	.+24     	; 0x727c <__fp_cmp+0x46>
    7264:	23 2b       	or	r18, r19
    7266:	24 2b       	or	r18, r20
    7268:	25 2b       	or	r18, r21
    726a:	21 f4       	brne	.+8      	; 0x7274 <__fp_cmp+0x3e>
    726c:	08 95       	ret
    726e:	0a 26       	eor	r0, r26
    7270:	09 f4       	brne	.+2      	; 0x7274 <__fp_cmp+0x3e>
    7272:	a1 40       	sbci	r26, 0x01	; 1
    7274:	a6 95       	lsr	r26
    7276:	8f ef       	ldi	r24, 0xFF	; 255
    7278:	81 1d       	adc	r24, r1
    727a:	81 1d       	adc	r24, r1
    727c:	08 95       	ret

0000727e <__fp_inf>:
    727e:	97 f9       	bld	r25, 7
    7280:	9f 67       	ori	r25, 0x7F	; 127
    7282:	80 e8       	ldi	r24, 0x80	; 128
    7284:	70 e0       	ldi	r23, 0x00	; 0
    7286:	60 e0       	ldi	r22, 0x00	; 0
    7288:	08 95       	ret

0000728a <__fp_nan>:
    728a:	9f ef       	ldi	r25, 0xFF	; 255
    728c:	80 ec       	ldi	r24, 0xC0	; 192
    728e:	08 95       	ret

00007290 <__fp_pscA>:
    7290:	00 24       	eor	r0, r0
    7292:	0a 94       	dec	r0
    7294:	16 16       	cp	r1, r22
    7296:	17 06       	cpc	r1, r23
    7298:	18 06       	cpc	r1, r24
    729a:	09 06       	cpc	r0, r25
    729c:	08 95       	ret

0000729e <__fp_pscB>:
    729e:	00 24       	eor	r0, r0
    72a0:	0a 94       	dec	r0
    72a2:	12 16       	cp	r1, r18
    72a4:	13 06       	cpc	r1, r19
    72a6:	14 06       	cpc	r1, r20
    72a8:	05 06       	cpc	r0, r21
    72aa:	08 95       	ret

000072ac <__fp_round>:
    72ac:	09 2e       	mov	r0, r25
    72ae:	03 94       	inc	r0
    72b0:	00 0c       	add	r0, r0
    72b2:	11 f4       	brne	.+4      	; 0x72b8 <__fp_round+0xc>
    72b4:	88 23       	and	r24, r24
    72b6:	52 f0       	brmi	.+20     	; 0x72cc <__fp_round+0x20>
    72b8:	bb 0f       	add	r27, r27
    72ba:	40 f4       	brcc	.+16     	; 0x72cc <__fp_round+0x20>
    72bc:	bf 2b       	or	r27, r31
    72be:	11 f4       	brne	.+4      	; 0x72c4 <__fp_round+0x18>
    72c0:	60 ff       	sbrs	r22, 0
    72c2:	04 c0       	rjmp	.+8      	; 0x72cc <__fp_round+0x20>
    72c4:	6f 5f       	subi	r22, 0xFF	; 255
    72c6:	7f 4f       	sbci	r23, 0xFF	; 255
    72c8:	8f 4f       	sbci	r24, 0xFF	; 255
    72ca:	9f 4f       	sbci	r25, 0xFF	; 255
    72cc:	08 95       	ret

000072ce <__fp_split3>:
    72ce:	57 fd       	sbrc	r21, 7
    72d0:	90 58       	subi	r25, 0x80	; 128
    72d2:	44 0f       	add	r20, r20
    72d4:	55 1f       	adc	r21, r21
    72d6:	59 f0       	breq	.+22     	; 0x72ee <__fp_splitA+0x10>
    72d8:	5f 3f       	cpi	r21, 0xFF	; 255
    72da:	71 f0       	breq	.+28     	; 0x72f8 <__fp_splitA+0x1a>
    72dc:	47 95       	ror	r20

000072de <__fp_splitA>:
    72de:	88 0f       	add	r24, r24
    72e0:	97 fb       	bst	r25, 7
    72e2:	99 1f       	adc	r25, r25
    72e4:	61 f0       	breq	.+24     	; 0x72fe <__fp_splitA+0x20>
    72e6:	9f 3f       	cpi	r25, 0xFF	; 255
    72e8:	79 f0       	breq	.+30     	; 0x7308 <__fp_splitA+0x2a>
    72ea:	87 95       	ror	r24
    72ec:	08 95       	ret
    72ee:	12 16       	cp	r1, r18
    72f0:	13 06       	cpc	r1, r19
    72f2:	14 06       	cpc	r1, r20
    72f4:	55 1f       	adc	r21, r21
    72f6:	f2 cf       	rjmp	.-28     	; 0x72dc <__fp_split3+0xe>
    72f8:	46 95       	lsr	r20
    72fa:	f1 df       	rcall	.-30     	; 0x72de <__fp_splitA>
    72fc:	08 c0       	rjmp	.+16     	; 0x730e <__fp_splitA+0x30>
    72fe:	16 16       	cp	r1, r22
    7300:	17 06       	cpc	r1, r23
    7302:	18 06       	cpc	r1, r24
    7304:	99 1f       	adc	r25, r25
    7306:	f1 cf       	rjmp	.-30     	; 0x72ea <__fp_splitA+0xc>
    7308:	86 95       	lsr	r24
    730a:	71 05       	cpc	r23, r1
    730c:	61 05       	cpc	r22, r1
    730e:	08 94       	sec
    7310:	08 95       	ret

00007312 <__fp_zero>:
    7312:	e8 94       	clt

00007314 <__fp_szero>:
    7314:	bb 27       	eor	r27, r27
    7316:	66 27       	eor	r22, r22
    7318:	77 27       	eor	r23, r23
    731a:	cb 01       	movw	r24, r22
    731c:	97 f9       	bld	r25, 7
    731e:	08 95       	ret

00007320 <__gesf2>:
    7320:	0e 94 1b 39 	call	0x7236	; 0x7236 <__fp_cmp>
    7324:	08 f4       	brcc	.+2      	; 0x7328 <__gesf2+0x8>
    7326:	8f ef       	ldi	r24, 0xFF	; 255
    7328:	08 95       	ret

0000732a <__mulsf3>:
    732a:	0e 94 a8 39 	call	0x7350	; 0x7350 <__mulsf3x>
    732e:	0c 94 56 39 	jmp	0x72ac	; 0x72ac <__fp_round>
    7332:	0e 94 48 39 	call	0x7290	; 0x7290 <__fp_pscA>
    7336:	38 f0       	brcs	.+14     	; 0x7346 <__mulsf3+0x1c>
    7338:	0e 94 4f 39 	call	0x729e	; 0x729e <__fp_pscB>
    733c:	20 f0       	brcs	.+8      	; 0x7346 <__mulsf3+0x1c>
    733e:	95 23       	and	r25, r21
    7340:	11 f0       	breq	.+4      	; 0x7346 <__mulsf3+0x1c>
    7342:	0c 94 3f 39 	jmp	0x727e	; 0x727e <__fp_inf>
    7346:	0c 94 45 39 	jmp	0x728a	; 0x728a <__fp_nan>
    734a:	11 24       	eor	r1, r1
    734c:	0c 94 8a 39 	jmp	0x7314	; 0x7314 <__fp_szero>

00007350 <__mulsf3x>:
    7350:	0e 94 67 39 	call	0x72ce	; 0x72ce <__fp_split3>
    7354:	70 f3       	brcs	.-36     	; 0x7332 <__mulsf3+0x8>

00007356 <__mulsf3_pse>:
    7356:	95 9f       	mul	r25, r21
    7358:	c1 f3       	breq	.-16     	; 0x734a <__mulsf3+0x20>
    735a:	95 0f       	add	r25, r21
    735c:	50 e0       	ldi	r21, 0x00	; 0
    735e:	55 1f       	adc	r21, r21
    7360:	62 9f       	mul	r22, r18
    7362:	f0 01       	movw	r30, r0
    7364:	72 9f       	mul	r23, r18
    7366:	bb 27       	eor	r27, r27
    7368:	f0 0d       	add	r31, r0
    736a:	b1 1d       	adc	r27, r1
    736c:	63 9f       	mul	r22, r19
    736e:	aa 27       	eor	r26, r26
    7370:	f0 0d       	add	r31, r0
    7372:	b1 1d       	adc	r27, r1
    7374:	aa 1f       	adc	r26, r26
    7376:	64 9f       	mul	r22, r20
    7378:	66 27       	eor	r22, r22
    737a:	b0 0d       	add	r27, r0
    737c:	a1 1d       	adc	r26, r1
    737e:	66 1f       	adc	r22, r22
    7380:	82 9f       	mul	r24, r18
    7382:	22 27       	eor	r18, r18
    7384:	b0 0d       	add	r27, r0
    7386:	a1 1d       	adc	r26, r1
    7388:	62 1f       	adc	r22, r18
    738a:	73 9f       	mul	r23, r19
    738c:	b0 0d       	add	r27, r0
    738e:	a1 1d       	adc	r26, r1
    7390:	62 1f       	adc	r22, r18
    7392:	83 9f       	mul	r24, r19
    7394:	a0 0d       	add	r26, r0
    7396:	61 1d       	adc	r22, r1
    7398:	22 1f       	adc	r18, r18
    739a:	74 9f       	mul	r23, r20
    739c:	33 27       	eor	r19, r19
    739e:	a0 0d       	add	r26, r0
    73a0:	61 1d       	adc	r22, r1
    73a2:	23 1f       	adc	r18, r19
    73a4:	84 9f       	mul	r24, r20
    73a6:	60 0d       	add	r22, r0
    73a8:	21 1d       	adc	r18, r1
    73aa:	82 2f       	mov	r24, r18
    73ac:	76 2f       	mov	r23, r22
    73ae:	6a 2f       	mov	r22, r26
    73b0:	11 24       	eor	r1, r1
    73b2:	9f 57       	subi	r25, 0x7F	; 127
    73b4:	50 40       	sbci	r21, 0x00	; 0
    73b6:	9a f0       	brmi	.+38     	; 0x73de <__mulsf3_pse+0x88>
    73b8:	f1 f0       	breq	.+60     	; 0x73f6 <__mulsf3_pse+0xa0>
    73ba:	88 23       	and	r24, r24
    73bc:	4a f0       	brmi	.+18     	; 0x73d0 <__mulsf3_pse+0x7a>
    73be:	ee 0f       	add	r30, r30
    73c0:	ff 1f       	adc	r31, r31
    73c2:	bb 1f       	adc	r27, r27
    73c4:	66 1f       	adc	r22, r22
    73c6:	77 1f       	adc	r23, r23
    73c8:	88 1f       	adc	r24, r24
    73ca:	91 50       	subi	r25, 0x01	; 1
    73cc:	50 40       	sbci	r21, 0x00	; 0
    73ce:	a9 f7       	brne	.-22     	; 0x73ba <__mulsf3_pse+0x64>
    73d0:	9e 3f       	cpi	r25, 0xFE	; 254
    73d2:	51 05       	cpc	r21, r1
    73d4:	80 f0       	brcs	.+32     	; 0x73f6 <__mulsf3_pse+0xa0>
    73d6:	0c 94 3f 39 	jmp	0x727e	; 0x727e <__fp_inf>
    73da:	0c 94 8a 39 	jmp	0x7314	; 0x7314 <__fp_szero>
    73de:	5f 3f       	cpi	r21, 0xFF	; 255
    73e0:	e4 f3       	brlt	.-8      	; 0x73da <__mulsf3_pse+0x84>
    73e2:	98 3e       	cpi	r25, 0xE8	; 232
    73e4:	d4 f3       	brlt	.-12     	; 0x73da <__mulsf3_pse+0x84>
    73e6:	86 95       	lsr	r24
    73e8:	77 95       	ror	r23
    73ea:	67 95       	ror	r22
    73ec:	b7 95       	ror	r27
    73ee:	f7 95       	ror	r31
    73f0:	e7 95       	ror	r30
    73f2:	9f 5f       	subi	r25, 0xFF	; 255
    73f4:	c1 f7       	brne	.-16     	; 0x73e6 <__mulsf3_pse+0x90>
    73f6:	fe 2b       	or	r31, r30
    73f8:	88 0f       	add	r24, r24
    73fa:	91 1d       	adc	r25, r1
    73fc:	96 95       	lsr	r25
    73fe:	87 95       	ror	r24
    7400:	97 f9       	bld	r25, 7
    7402:	08 95       	ret

00007404 <pow>:
    7404:	fa 01       	movw	r30, r20
    7406:	ee 0f       	add	r30, r30
    7408:	ff 1f       	adc	r31, r31
    740a:	30 96       	adiw	r30, 0x00	; 0
    740c:	21 05       	cpc	r18, r1
    740e:	31 05       	cpc	r19, r1
    7410:	a1 f1       	breq	.+104    	; 0x747a <pow+0x76>
    7412:	61 15       	cp	r22, r1
    7414:	71 05       	cpc	r23, r1
    7416:	61 f4       	brne	.+24     	; 0x7430 <pow+0x2c>
    7418:	80 38       	cpi	r24, 0x80	; 128
    741a:	bf e3       	ldi	r27, 0x3F	; 63
    741c:	9b 07       	cpc	r25, r27
    741e:	49 f1       	breq	.+82     	; 0x7472 <pow+0x6e>
    7420:	68 94       	set
    7422:	90 38       	cpi	r25, 0x80	; 128
    7424:	81 05       	cpc	r24, r1
    7426:	61 f0       	breq	.+24     	; 0x7440 <pow+0x3c>
    7428:	80 38       	cpi	r24, 0x80	; 128
    742a:	bf ef       	ldi	r27, 0xFF	; 255
    742c:	9b 07       	cpc	r25, r27
    742e:	41 f0       	breq	.+16     	; 0x7440 <pow+0x3c>
    7430:	99 23       	and	r25, r25
    7432:	4a f5       	brpl	.+82     	; 0x7486 <pow+0x82>
    7434:	ff 3f       	cpi	r31, 0xFF	; 255
    7436:	e1 05       	cpc	r30, r1
    7438:	31 05       	cpc	r19, r1
    743a:	21 05       	cpc	r18, r1
    743c:	19 f1       	breq	.+70     	; 0x7484 <pow+0x80>
    743e:	e8 94       	clt
    7440:	08 94       	sec
    7442:	e7 95       	ror	r30
    7444:	d9 01       	movw	r26, r18
    7446:	aa 23       	and	r26, r26
    7448:	29 f4       	brne	.+10     	; 0x7454 <pow+0x50>
    744a:	ab 2f       	mov	r26, r27
    744c:	be 2f       	mov	r27, r30
    744e:	f8 5f       	subi	r31, 0xF8	; 248
    7450:	d0 f3       	brcs	.-12     	; 0x7446 <pow+0x42>
    7452:	10 c0       	rjmp	.+32     	; 0x7474 <pow+0x70>
    7454:	ff 5f       	subi	r31, 0xFF	; 255
    7456:	70 f4       	brcc	.+28     	; 0x7474 <pow+0x70>
    7458:	a6 95       	lsr	r26
    745a:	e0 f7       	brcc	.-8      	; 0x7454 <pow+0x50>
    745c:	f7 39       	cpi	r31, 0x97	; 151
    745e:	50 f0       	brcs	.+20     	; 0x7474 <pow+0x70>
    7460:	19 f0       	breq	.+6      	; 0x7468 <pow+0x64>
    7462:	ff 3a       	cpi	r31, 0xAF	; 175
    7464:	38 f4       	brcc	.+14     	; 0x7474 <pow+0x70>
    7466:	9f 77       	andi	r25, 0x7F	; 127
    7468:	9f 93       	push	r25
    746a:	0d d0       	rcall	.+26     	; 0x7486 <pow+0x82>
    746c:	0f 90       	pop	r0
    746e:	07 fc       	sbrc	r0, 7
    7470:	90 58       	subi	r25, 0x80	; 128
    7472:	08 95       	ret
    7474:	46 f0       	brts	.+16     	; 0x7486 <pow+0x82>
    7476:	0c 94 45 39 	jmp	0x728a	; 0x728a <__fp_nan>
    747a:	60 e0       	ldi	r22, 0x00	; 0
    747c:	70 e0       	ldi	r23, 0x00	; 0
    747e:	80 e8       	ldi	r24, 0x80	; 128
    7480:	9f e3       	ldi	r25, 0x3F	; 63
    7482:	08 95       	ret
    7484:	4f e7       	ldi	r20, 0x7F	; 127
    7486:	9f 77       	andi	r25, 0x7F	; 127
    7488:	5f 93       	push	r21
    748a:	4f 93       	push	r20
    748c:	3f 93       	push	r19
    748e:	2f 93       	push	r18
    7490:	0e 94 58 3b 	call	0x76b0	; 0x76b0 <log>
    7494:	2f 91       	pop	r18
    7496:	3f 91       	pop	r19
    7498:	4f 91       	pop	r20
    749a:	5f 91       	pop	r21
    749c:	0e 94 95 39 	call	0x732a	; 0x732a <__mulsf3>
    74a0:	0c 94 a0 3a 	jmp	0x7540	; 0x7540 <exp>
    74a4:	19 f4       	brne	.+6      	; 0x74ac <pow+0xa8>
    74a6:	16 f4       	brtc	.+4      	; 0x74ac <pow+0xa8>
    74a8:	0c 94 45 39 	jmp	0x728a	; 0x728a <__fp_nan>
    74ac:	0c 94 d2 3a 	jmp	0x75a4	; 0x75a4 <__fp_mpack>

000074b0 <sqrt>:
    74b0:	0e 94 6f 39 	call	0x72de	; 0x72de <__fp_splitA>
    74b4:	b8 f3       	brcs	.-18     	; 0x74a4 <pow+0xa0>
    74b6:	99 23       	and	r25, r25
    74b8:	c9 f3       	breq	.-14     	; 0x74ac <pow+0xa8>
    74ba:	b6 f3       	brts	.-20     	; 0x74a8 <pow+0xa4>
    74bc:	9f 57       	subi	r25, 0x7F	; 127
    74be:	55 0b       	sbc	r21, r21
    74c0:	87 ff       	sbrs	r24, 7
    74c2:	0e 94 e0 3a 	call	0x75c0	; 0x75c0 <__fp_norm2>
    74c6:	00 24       	eor	r0, r0
    74c8:	a0 e6       	ldi	r26, 0x60	; 96
    74ca:	40 ea       	ldi	r20, 0xA0	; 160
    74cc:	90 01       	movw	r18, r0
    74ce:	80 58       	subi	r24, 0x80	; 128
    74d0:	56 95       	lsr	r21
    74d2:	97 95       	ror	r25
    74d4:	28 f4       	brcc	.+10     	; 0x74e0 <sqrt+0x30>
    74d6:	80 5c       	subi	r24, 0xC0	; 192
    74d8:	66 0f       	add	r22, r22
    74da:	77 1f       	adc	r23, r23
    74dc:	88 1f       	adc	r24, r24
    74de:	20 f0       	brcs	.+8      	; 0x74e8 <sqrt+0x38>
    74e0:	26 17       	cp	r18, r22
    74e2:	37 07       	cpc	r19, r23
    74e4:	48 07       	cpc	r20, r24
    74e6:	30 f4       	brcc	.+12     	; 0x74f4 <sqrt+0x44>
    74e8:	62 1b       	sub	r22, r18
    74ea:	73 0b       	sbc	r23, r19
    74ec:	84 0b       	sbc	r24, r20
    74ee:	20 29       	or	r18, r0
    74f0:	31 29       	or	r19, r1
    74f2:	4a 2b       	or	r20, r26
    74f4:	a6 95       	lsr	r26
    74f6:	17 94       	ror	r1
    74f8:	07 94       	ror	r0
    74fa:	20 25       	eor	r18, r0
    74fc:	31 25       	eor	r19, r1
    74fe:	4a 27       	eor	r20, r26
    7500:	58 f7       	brcc	.-42     	; 0x74d8 <sqrt+0x28>
    7502:	66 0f       	add	r22, r22
    7504:	77 1f       	adc	r23, r23
    7506:	88 1f       	adc	r24, r24
    7508:	20 f0       	brcs	.+8      	; 0x7512 <sqrt+0x62>
    750a:	26 17       	cp	r18, r22
    750c:	37 07       	cpc	r19, r23
    750e:	48 07       	cpc	r20, r24
    7510:	30 f4       	brcc	.+12     	; 0x751e <sqrt+0x6e>
    7512:	62 0b       	sbc	r22, r18
    7514:	73 0b       	sbc	r23, r19
    7516:	84 0b       	sbc	r24, r20
    7518:	20 0d       	add	r18, r0
    751a:	31 1d       	adc	r19, r1
    751c:	41 1d       	adc	r20, r1
    751e:	a0 95       	com	r26
    7520:	81 f7       	brne	.-32     	; 0x7502 <sqrt+0x52>
    7522:	b9 01       	movw	r22, r18
    7524:	84 2f       	mov	r24, r20
    7526:	91 58       	subi	r25, 0x81	; 129
    7528:	88 0f       	add	r24, r24
    752a:	96 95       	lsr	r25
    752c:	87 95       	ror	r24
    752e:	08 95       	ret
    7530:	29 f4       	brne	.+10     	; 0x753c <sqrt+0x8c>
    7532:	16 f0       	brts	.+4      	; 0x7538 <sqrt+0x88>
    7534:	0c 94 3f 39 	jmp	0x727e	; 0x727e <__fp_inf>
    7538:	0c 94 89 39 	jmp	0x7312	; 0x7312 <__fp_zero>
    753c:	0c 94 45 39 	jmp	0x728a	; 0x728a <__fp_nan>

00007540 <exp>:
    7540:	0e 94 6f 39 	call	0x72de	; 0x72de <__fp_splitA>
    7544:	a8 f3       	brcs	.-22     	; 0x7530 <sqrt+0x80>
    7546:	96 38       	cpi	r25, 0x86	; 134
    7548:	a0 f7       	brcc	.-24     	; 0x7532 <sqrt+0x82>
    754a:	07 f8       	bld	r0, 7
    754c:	0f 92       	push	r0
    754e:	e8 94       	clt
    7550:	2b e3       	ldi	r18, 0x3B	; 59
    7552:	3a ea       	ldi	r19, 0xAA	; 170
    7554:	48 eb       	ldi	r20, 0xB8	; 184
    7556:	5f e7       	ldi	r21, 0x7F	; 127
    7558:	0e 94 ab 39 	call	0x7356	; 0x7356 <__mulsf3_pse>
    755c:	0f 92       	push	r0
    755e:	0f 92       	push	r0
    7560:	0f 92       	push	r0
    7562:	4d b7       	in	r20, 0x3d	; 61
    7564:	5e b7       	in	r21, 0x3e	; 62
    7566:	0f 92       	push	r0
    7568:	0e 94 a0 3b 	call	0x7740	; 0x7740 <modf>
    756c:	e0 e1       	ldi	r30, 0x10	; 16
    756e:	f2 e0       	ldi	r31, 0x02	; 2
    7570:	0e 94 e7 3a 	call	0x75ce	; 0x75ce <__fp_powser>
    7574:	4f 91       	pop	r20
    7576:	5f 91       	pop	r21
    7578:	ef 91       	pop	r30
    757a:	ff 91       	pop	r31
    757c:	e5 95       	asr	r30
    757e:	ee 1f       	adc	r30, r30
    7580:	ff 1f       	adc	r31, r31
    7582:	49 f0       	breq	.+18     	; 0x7596 <exp+0x56>
    7584:	fe 57       	subi	r31, 0x7E	; 126
    7586:	e0 68       	ori	r30, 0x80	; 128
    7588:	44 27       	eor	r20, r20
    758a:	ee 0f       	add	r30, r30
    758c:	44 1f       	adc	r20, r20
    758e:	fa 95       	dec	r31
    7590:	e1 f7       	brne	.-8      	; 0x758a <exp+0x4a>
    7592:	41 95       	neg	r20
    7594:	55 0b       	sbc	r21, r21
    7596:	0e 94 1a 3b 	call	0x7634	; 0x7634 <ldexp>
    759a:	0f 90       	pop	r0
    759c:	07 fe       	sbrs	r0, 7
    759e:	0c 94 0e 3b 	jmp	0x761c	; 0x761c <inverse>
    75a2:	08 95       	ret

000075a4 <__fp_mpack>:
    75a4:	9f 3f       	cpi	r25, 0xFF	; 255
    75a6:	31 f0       	breq	.+12     	; 0x75b4 <__fp_mpack_finite+0xc>

000075a8 <__fp_mpack_finite>:
    75a8:	91 50       	subi	r25, 0x01	; 1
    75aa:	20 f4       	brcc	.+8      	; 0x75b4 <__fp_mpack_finite+0xc>
    75ac:	87 95       	ror	r24
    75ae:	77 95       	ror	r23
    75b0:	67 95       	ror	r22
    75b2:	b7 95       	ror	r27
    75b4:	88 0f       	add	r24, r24
    75b6:	91 1d       	adc	r25, r1
    75b8:	96 95       	lsr	r25
    75ba:	87 95       	ror	r24
    75bc:	97 f9       	bld	r25, 7
    75be:	08 95       	ret

000075c0 <__fp_norm2>:
    75c0:	91 50       	subi	r25, 0x01	; 1
    75c2:	50 40       	sbci	r21, 0x00	; 0
    75c4:	66 0f       	add	r22, r22
    75c6:	77 1f       	adc	r23, r23
    75c8:	88 1f       	adc	r24, r24
    75ca:	d2 f7       	brpl	.-12     	; 0x75c0 <__fp_norm2>
    75cc:	08 95       	ret

000075ce <__fp_powser>:
    75ce:	df 93       	push	r29
    75d0:	cf 93       	push	r28
    75d2:	1f 93       	push	r17
    75d4:	0f 93       	push	r16
    75d6:	ff 92       	push	r15
    75d8:	ef 92       	push	r14
    75da:	df 92       	push	r13
    75dc:	7b 01       	movw	r14, r22
    75de:	8c 01       	movw	r16, r24
    75e0:	68 94       	set
    75e2:	06 c0       	rjmp	.+12     	; 0x75f0 <__fp_powser+0x22>
    75e4:	da 2e       	mov	r13, r26
    75e6:	ef 01       	movw	r28, r30
    75e8:	0e 94 a8 39 	call	0x7350	; 0x7350 <__mulsf3x>
    75ec:	fe 01       	movw	r30, r28
    75ee:	e8 94       	clt
    75f0:	a5 91       	lpm	r26, Z+
    75f2:	25 91       	lpm	r18, Z+
    75f4:	35 91       	lpm	r19, Z+
    75f6:	45 91       	lpm	r20, Z+
    75f8:	55 91       	lpm	r21, Z+
    75fa:	a6 f3       	brts	.-24     	; 0x75e4 <__fp_powser+0x16>
    75fc:	ef 01       	movw	r28, r30
    75fe:	0e 94 9e 37 	call	0x6f3c	; 0x6f3c <__addsf3x>
    7602:	fe 01       	movw	r30, r28
    7604:	97 01       	movw	r18, r14
    7606:	a8 01       	movw	r20, r16
    7608:	da 94       	dec	r13
    760a:	69 f7       	brne	.-38     	; 0x75e6 <__fp_powser+0x18>
    760c:	df 90       	pop	r13
    760e:	ef 90       	pop	r14
    7610:	ff 90       	pop	r15
    7612:	0f 91       	pop	r16
    7614:	1f 91       	pop	r17
    7616:	cf 91       	pop	r28
    7618:	df 91       	pop	r29
    761a:	08 95       	ret

0000761c <inverse>:
    761c:	9b 01       	movw	r18, r22
    761e:	ac 01       	movw	r20, r24
    7620:	60 e0       	ldi	r22, 0x00	; 0
    7622:	70 e0       	ldi	r23, 0x00	; 0
    7624:	80 e8       	ldi	r24, 0x80	; 128
    7626:	9f e3       	ldi	r25, 0x3F	; 63
    7628:	0c 94 f8 37 	jmp	0x6ff0	; 0x6ff0 <__divsf3>
    762c:	0c 94 3f 39 	jmp	0x727e	; 0x727e <__fp_inf>
    7630:	0c 94 d2 3a 	jmp	0x75a4	; 0x75a4 <__fp_mpack>

00007634 <ldexp>:
    7634:	0e 94 6f 39 	call	0x72de	; 0x72de <__fp_splitA>
    7638:	d8 f3       	brcs	.-10     	; 0x7630 <inverse+0x14>
    763a:	99 23       	and	r25, r25
    763c:	c9 f3       	breq	.-14     	; 0x7630 <inverse+0x14>
    763e:	94 0f       	add	r25, r20
    7640:	51 1d       	adc	r21, r1
    7642:	a3 f3       	brvs	.-24     	; 0x762c <inverse+0x10>
    7644:	91 50       	subi	r25, 0x01	; 1
    7646:	50 40       	sbci	r21, 0x00	; 0
    7648:	94 f0       	brlt	.+36     	; 0x766e <ldexp+0x3a>
    764a:	59 f0       	breq	.+22     	; 0x7662 <ldexp+0x2e>
    764c:	88 23       	and	r24, r24
    764e:	32 f0       	brmi	.+12     	; 0x765c <ldexp+0x28>
    7650:	66 0f       	add	r22, r22
    7652:	77 1f       	adc	r23, r23
    7654:	88 1f       	adc	r24, r24
    7656:	91 50       	subi	r25, 0x01	; 1
    7658:	50 40       	sbci	r21, 0x00	; 0
    765a:	c1 f7       	brne	.-16     	; 0x764c <ldexp+0x18>
    765c:	9e 3f       	cpi	r25, 0xFE	; 254
    765e:	51 05       	cpc	r21, r1
    7660:	2c f7       	brge	.-54     	; 0x762c <inverse+0x10>
    7662:	88 0f       	add	r24, r24
    7664:	91 1d       	adc	r25, r1
    7666:	96 95       	lsr	r25
    7668:	87 95       	ror	r24
    766a:	97 f9       	bld	r25, 7
    766c:	08 95       	ret
    766e:	5f 3f       	cpi	r21, 0xFF	; 255
    7670:	ac f0       	brlt	.+42     	; 0x769c <ldexp+0x68>
    7672:	98 3e       	cpi	r25, 0xE8	; 232
    7674:	9c f0       	brlt	.+38     	; 0x769c <ldexp+0x68>
    7676:	bb 27       	eor	r27, r27
    7678:	86 95       	lsr	r24
    767a:	77 95       	ror	r23
    767c:	67 95       	ror	r22
    767e:	b7 95       	ror	r27
    7680:	08 f4       	brcc	.+2      	; 0x7684 <ldexp+0x50>
    7682:	b1 60       	ori	r27, 0x01	; 1
    7684:	93 95       	inc	r25
    7686:	c1 f7       	brne	.-16     	; 0x7678 <ldexp+0x44>
    7688:	bb 0f       	add	r27, r27
    768a:	58 f7       	brcc	.-42     	; 0x7662 <ldexp+0x2e>
    768c:	11 f4       	brne	.+4      	; 0x7692 <ldexp+0x5e>
    768e:	60 ff       	sbrs	r22, 0
    7690:	e8 cf       	rjmp	.-48     	; 0x7662 <ldexp+0x2e>
    7692:	6f 5f       	subi	r22, 0xFF	; 255
    7694:	7f 4f       	sbci	r23, 0xFF	; 255
    7696:	8f 4f       	sbci	r24, 0xFF	; 255
    7698:	9f 4f       	sbci	r25, 0xFF	; 255
    769a:	e3 cf       	rjmp	.-58     	; 0x7662 <ldexp+0x2e>
    769c:	0c 94 8a 39 	jmp	0x7314	; 0x7314 <__fp_szero>
    76a0:	16 f0       	brts	.+4      	; 0x76a6 <ldexp+0x72>
    76a2:	0c 94 d2 3a 	jmp	0x75a4	; 0x75a4 <__fp_mpack>
    76a6:	0c 94 45 39 	jmp	0x728a	; 0x728a <__fp_nan>
    76aa:	68 94       	set
    76ac:	0c 94 3f 39 	jmp	0x727e	; 0x727e <__fp_inf>

000076b0 <log>:
    76b0:	0e 94 6f 39 	call	0x72de	; 0x72de <__fp_splitA>
    76b4:	a8 f3       	brcs	.-22     	; 0x76a0 <ldexp+0x6c>
    76b6:	99 23       	and	r25, r25
    76b8:	c1 f3       	breq	.-16     	; 0x76aa <ldexp+0x76>
    76ba:	ae f3       	brts	.-22     	; 0x76a6 <ldexp+0x72>
    76bc:	df 93       	push	r29
    76be:	cf 93       	push	r28
    76c0:	1f 93       	push	r17
    76c2:	0f 93       	push	r16
    76c4:	ff 92       	push	r15
    76c6:	c9 2f       	mov	r28, r25
    76c8:	dd 27       	eor	r29, r29
    76ca:	88 23       	and	r24, r24
    76cc:	2a f0       	brmi	.+10     	; 0x76d8 <log+0x28>
    76ce:	21 97       	sbiw	r28, 0x01	; 1
    76d0:	66 0f       	add	r22, r22
    76d2:	77 1f       	adc	r23, r23
    76d4:	88 1f       	adc	r24, r24
    76d6:	da f7       	brpl	.-10     	; 0x76ce <log+0x1e>
    76d8:	20 e0       	ldi	r18, 0x00	; 0
    76da:	30 e0       	ldi	r19, 0x00	; 0
    76dc:	40 e8       	ldi	r20, 0x80	; 128
    76de:	5f eb       	ldi	r21, 0xBF	; 191
    76e0:	9f e3       	ldi	r25, 0x3F	; 63
    76e2:	88 39       	cpi	r24, 0x98	; 152
    76e4:	20 f0       	brcs	.+8      	; 0x76ee <log+0x3e>
    76e6:	80 3e       	cpi	r24, 0xE0	; 224
    76e8:	38 f0       	brcs	.+14     	; 0x76f8 <log+0x48>
    76ea:	21 96       	adiw	r28, 0x01	; 1
    76ec:	8f 77       	andi	r24, 0x7F	; 127
    76ee:	0e 94 87 37 	call	0x6f0e	; 0x6f0e <__addsf3>
    76f2:	e8 e3       	ldi	r30, 0x38	; 56
    76f4:	f2 e0       	ldi	r31, 0x02	; 2
    76f6:	04 c0       	rjmp	.+8      	; 0x7700 <log+0x50>
    76f8:	0e 94 87 37 	call	0x6f0e	; 0x6f0e <__addsf3>
    76fc:	e5 e6       	ldi	r30, 0x65	; 101
    76fe:	f2 e0       	ldi	r31, 0x02	; 2
    7700:	0e 94 e7 3a 	call	0x75ce	; 0x75ce <__fp_powser>
    7704:	8b 01       	movw	r16, r22
    7706:	be 01       	movw	r22, r28
    7708:	ec 01       	movw	r28, r24
    770a:	fb 2e       	mov	r15, r27
    770c:	6f 57       	subi	r22, 0x7F	; 127
    770e:	71 09       	sbc	r23, r1
    7710:	75 95       	asr	r23
    7712:	77 1f       	adc	r23, r23
    7714:	88 0b       	sbc	r24, r24
    7716:	99 0b       	sbc	r25, r25
    7718:	0e 94 a2 38 	call	0x7144	; 0x7144 <__floatsisf>
    771c:	28 e1       	ldi	r18, 0x18	; 24
    771e:	32 e7       	ldi	r19, 0x72	; 114
    7720:	41 e3       	ldi	r20, 0x31	; 49
    7722:	5f e3       	ldi	r21, 0x3F	; 63
    7724:	0e 94 a8 39 	call	0x7350	; 0x7350 <__mulsf3x>
    7728:	af 2d       	mov	r26, r15
    772a:	98 01       	movw	r18, r16
    772c:	ae 01       	movw	r20, r28
    772e:	ff 90       	pop	r15
    7730:	0f 91       	pop	r16
    7732:	1f 91       	pop	r17
    7734:	cf 91       	pop	r28
    7736:	df 91       	pop	r29
    7738:	0e 94 9e 37 	call	0x6f3c	; 0x6f3c <__addsf3x>
    773c:	0c 94 56 39 	jmp	0x72ac	; 0x72ac <__fp_round>

00007740 <modf>:
    7740:	fa 01       	movw	r30, r20
    7742:	dc 01       	movw	r26, r24
    7744:	aa 0f       	add	r26, r26
    7746:	bb 1f       	adc	r27, r27
    7748:	9b 01       	movw	r18, r22
    774a:	ac 01       	movw	r20, r24
    774c:	bf 57       	subi	r27, 0x7F	; 127
    774e:	28 f4       	brcc	.+10     	; 0x775a <modf+0x1a>
    7750:	22 27       	eor	r18, r18
    7752:	33 27       	eor	r19, r19
    7754:	44 27       	eor	r20, r20
    7756:	50 78       	andi	r21, 0x80	; 128
    7758:	20 c0       	rjmp	.+64     	; 0x779a <modf+0x5a>
    775a:	b7 51       	subi	r27, 0x17	; 23
    775c:	90 f4       	brcc	.+36     	; 0x7782 <modf+0x42>
    775e:	ab 2f       	mov	r26, r27
    7760:	00 24       	eor	r0, r0
    7762:	46 95       	lsr	r20
    7764:	37 95       	ror	r19
    7766:	27 95       	ror	r18
    7768:	01 1c       	adc	r0, r1
    776a:	a3 95       	inc	r26
    776c:	d2 f3       	brmi	.-12     	; 0x7762 <modf+0x22>
    776e:	00 20       	and	r0, r0
    7770:	71 f0       	breq	.+28     	; 0x778e <modf+0x4e>
    7772:	22 0f       	add	r18, r18
    7774:	33 1f       	adc	r19, r19
    7776:	44 1f       	adc	r20, r20
    7778:	b3 95       	inc	r27
    777a:	da f3       	brmi	.-10     	; 0x7772 <modf+0x32>
    777c:	0e d0       	rcall	.+28     	; 0x779a <modf+0x5a>
    777e:	0c 94 86 37 	jmp	0x6f0c	; 0x6f0c <__subsf3>
    7782:	61 30       	cpi	r22, 0x01	; 1
    7784:	71 05       	cpc	r23, r1
    7786:	a0 e8       	ldi	r26, 0x80	; 128
    7788:	8a 07       	cpc	r24, r26
    778a:	b9 46       	sbci	r27, 0x69	; 105
    778c:	30 f4       	brcc	.+12     	; 0x779a <modf+0x5a>
    778e:	9b 01       	movw	r18, r22
    7790:	ac 01       	movw	r20, r24
    7792:	66 27       	eor	r22, r22
    7794:	77 27       	eor	r23, r23
    7796:	88 27       	eor	r24, r24
    7798:	90 78       	andi	r25, 0x80	; 128
    779a:	30 96       	adiw	r30, 0x00	; 0
    779c:	21 f0       	breq	.+8      	; 0x77a6 <modf+0x66>
    779e:	20 83       	st	Z, r18
    77a0:	31 83       	std	Z+1, r19	; 0x01
    77a2:	42 83       	std	Z+2, r20	; 0x02
    77a4:	53 83       	std	Z+3, r21	; 0x03
    77a6:	08 95       	ret

000077a8 <vfprintf>:
    77a8:	2f 92       	push	r2
    77aa:	3f 92       	push	r3
    77ac:	4f 92       	push	r4
    77ae:	5f 92       	push	r5
    77b0:	6f 92       	push	r6
    77b2:	7f 92       	push	r7
    77b4:	8f 92       	push	r8
    77b6:	9f 92       	push	r9
    77b8:	af 92       	push	r10
    77ba:	bf 92       	push	r11
    77bc:	cf 92       	push	r12
    77be:	df 92       	push	r13
    77c0:	ef 92       	push	r14
    77c2:	ff 92       	push	r15
    77c4:	0f 93       	push	r16
    77c6:	1f 93       	push	r17
    77c8:	cf 93       	push	r28
    77ca:	df 93       	push	r29
    77cc:	cd b7       	in	r28, 0x3d	; 61
    77ce:	de b7       	in	r29, 0x3e	; 62
    77d0:	60 97       	sbiw	r28, 0x10	; 16
    77d2:	cd bf       	out	0x3d, r28	; 61
    77d4:	de bf       	out	0x3e, r29	; 62
    77d6:	7c 01       	movw	r14, r24
    77d8:	1b 01       	movw	r2, r22
    77da:	6a 01       	movw	r12, r20
    77dc:	fc 01       	movw	r30, r24
    77de:	16 82       	std	Z+6, r1	; 0x06
    77e0:	17 82       	std	Z+7, r1	; 0x07
    77e2:	83 81       	ldd	r24, Z+3	; 0x03
    77e4:	81 ff       	sbrs	r24, 1
    77e6:	44 c3       	rjmp	.+1672   	; 0x7e70 <vfprintf+0x6c8>
    77e8:	9e 01       	movw	r18, r28
    77ea:	2f 5f       	subi	r18, 0xFF	; 255
    77ec:	3f 4f       	sbci	r19, 0xFF	; 255
    77ee:	39 01       	movw	r6, r18
    77f0:	f7 01       	movw	r30, r14
    77f2:	93 81       	ldd	r25, Z+3	; 0x03
    77f4:	f1 01       	movw	r30, r2
    77f6:	93 fd       	sbrc	r25, 3
    77f8:	85 91       	lpm	r24, Z+
    77fa:	93 ff       	sbrs	r25, 3
    77fc:	81 91       	ld	r24, Z+
    77fe:	1f 01       	movw	r2, r30
    7800:	88 23       	and	r24, r24
    7802:	09 f4       	brne	.+2      	; 0x7806 <vfprintf+0x5e>
    7804:	31 c3       	rjmp	.+1634   	; 0x7e68 <vfprintf+0x6c0>
    7806:	85 32       	cpi	r24, 0x25	; 37
    7808:	39 f4       	brne	.+14     	; 0x7818 <vfprintf+0x70>
    780a:	93 fd       	sbrc	r25, 3
    780c:	85 91       	lpm	r24, Z+
    780e:	93 ff       	sbrs	r25, 3
    7810:	81 91       	ld	r24, Z+
    7812:	1f 01       	movw	r2, r30
    7814:	85 32       	cpi	r24, 0x25	; 37
    7816:	39 f4       	brne	.+14     	; 0x7826 <vfprintf+0x7e>
    7818:	b7 01       	movw	r22, r14
    781a:	90 e0       	ldi	r25, 0x00	; 0
    781c:	0e 94 b3 41 	call	0x8366	; 0x8366 <fputc>
    7820:	56 01       	movw	r10, r12
    7822:	65 01       	movw	r12, r10
    7824:	e5 cf       	rjmp	.-54     	; 0x77f0 <vfprintf+0x48>
    7826:	10 e0       	ldi	r17, 0x00	; 0
    7828:	51 2c       	mov	r5, r1
    782a:	91 2c       	mov	r9, r1
    782c:	ff e1       	ldi	r31, 0x1F	; 31
    782e:	f9 15       	cp	r31, r9
    7830:	d8 f0       	brcs	.+54     	; 0x7868 <vfprintf+0xc0>
    7832:	8b 32       	cpi	r24, 0x2B	; 43
    7834:	79 f0       	breq	.+30     	; 0x7854 <vfprintf+0xac>
    7836:	38 f4       	brcc	.+14     	; 0x7846 <vfprintf+0x9e>
    7838:	80 32       	cpi	r24, 0x20	; 32
    783a:	79 f0       	breq	.+30     	; 0x785a <vfprintf+0xb2>
    783c:	83 32       	cpi	r24, 0x23	; 35
    783e:	a1 f4       	brne	.+40     	; 0x7868 <vfprintf+0xc0>
    7840:	f9 2d       	mov	r31, r9
    7842:	f0 61       	ori	r31, 0x10	; 16
    7844:	2e c0       	rjmp	.+92     	; 0x78a2 <vfprintf+0xfa>
    7846:	8d 32       	cpi	r24, 0x2D	; 45
    7848:	61 f0       	breq	.+24     	; 0x7862 <vfprintf+0xba>
    784a:	80 33       	cpi	r24, 0x30	; 48
    784c:	69 f4       	brne	.+26     	; 0x7868 <vfprintf+0xc0>
    784e:	29 2d       	mov	r18, r9
    7850:	21 60       	ori	r18, 0x01	; 1
    7852:	2d c0       	rjmp	.+90     	; 0x78ae <vfprintf+0x106>
    7854:	39 2d       	mov	r19, r9
    7856:	32 60       	ori	r19, 0x02	; 2
    7858:	93 2e       	mov	r9, r19
    785a:	89 2d       	mov	r24, r9
    785c:	84 60       	ori	r24, 0x04	; 4
    785e:	98 2e       	mov	r9, r24
    7860:	2a c0       	rjmp	.+84     	; 0x78b6 <vfprintf+0x10e>
    7862:	e9 2d       	mov	r30, r9
    7864:	e8 60       	ori	r30, 0x08	; 8
    7866:	15 c0       	rjmp	.+42     	; 0x7892 <vfprintf+0xea>
    7868:	97 fc       	sbrc	r9, 7
    786a:	2d c0       	rjmp	.+90     	; 0x78c6 <vfprintf+0x11e>
    786c:	20 ed       	ldi	r18, 0xD0	; 208
    786e:	28 0f       	add	r18, r24
    7870:	2a 30       	cpi	r18, 0x0A	; 10
    7872:	88 f4       	brcc	.+34     	; 0x7896 <vfprintf+0xee>
    7874:	96 fe       	sbrs	r9, 6
    7876:	06 c0       	rjmp	.+12     	; 0x7884 <vfprintf+0xdc>
    7878:	3a e0       	ldi	r19, 0x0A	; 10
    787a:	13 9f       	mul	r17, r19
    787c:	20 0d       	add	r18, r0
    787e:	11 24       	eor	r1, r1
    7880:	12 2f       	mov	r17, r18
    7882:	19 c0       	rjmp	.+50     	; 0x78b6 <vfprintf+0x10e>
    7884:	8a e0       	ldi	r24, 0x0A	; 10
    7886:	58 9e       	mul	r5, r24
    7888:	20 0d       	add	r18, r0
    788a:	11 24       	eor	r1, r1
    788c:	52 2e       	mov	r5, r18
    788e:	e9 2d       	mov	r30, r9
    7890:	e0 62       	ori	r30, 0x20	; 32
    7892:	9e 2e       	mov	r9, r30
    7894:	10 c0       	rjmp	.+32     	; 0x78b6 <vfprintf+0x10e>
    7896:	8e 32       	cpi	r24, 0x2E	; 46
    7898:	31 f4       	brne	.+12     	; 0x78a6 <vfprintf+0xfe>
    789a:	96 fc       	sbrc	r9, 6
    789c:	e5 c2       	rjmp	.+1482   	; 0x7e68 <vfprintf+0x6c0>
    789e:	f9 2d       	mov	r31, r9
    78a0:	f0 64       	ori	r31, 0x40	; 64
    78a2:	9f 2e       	mov	r9, r31
    78a4:	08 c0       	rjmp	.+16     	; 0x78b6 <vfprintf+0x10e>
    78a6:	8c 36       	cpi	r24, 0x6C	; 108
    78a8:	21 f4       	brne	.+8      	; 0x78b2 <vfprintf+0x10a>
    78aa:	29 2d       	mov	r18, r9
    78ac:	20 68       	ori	r18, 0x80	; 128
    78ae:	92 2e       	mov	r9, r18
    78b0:	02 c0       	rjmp	.+4      	; 0x78b6 <vfprintf+0x10e>
    78b2:	88 36       	cpi	r24, 0x68	; 104
    78b4:	41 f4       	brne	.+16     	; 0x78c6 <vfprintf+0x11e>
    78b6:	f1 01       	movw	r30, r2
    78b8:	93 fd       	sbrc	r25, 3
    78ba:	85 91       	lpm	r24, Z+
    78bc:	93 ff       	sbrs	r25, 3
    78be:	81 91       	ld	r24, Z+
    78c0:	1f 01       	movw	r2, r30
    78c2:	81 11       	cpse	r24, r1
    78c4:	b3 cf       	rjmp	.-154    	; 0x782c <vfprintf+0x84>
    78c6:	9b eb       	ldi	r25, 0xBB	; 187
    78c8:	98 0f       	add	r25, r24
    78ca:	93 30       	cpi	r25, 0x03	; 3
    78cc:	20 f4       	brcc	.+8      	; 0x78d6 <vfprintf+0x12e>
    78ce:	99 2d       	mov	r25, r9
    78d0:	90 61       	ori	r25, 0x10	; 16
    78d2:	80 5e       	subi	r24, 0xE0	; 224
    78d4:	07 c0       	rjmp	.+14     	; 0x78e4 <vfprintf+0x13c>
    78d6:	9b e9       	ldi	r25, 0x9B	; 155
    78d8:	98 0f       	add	r25, r24
    78da:	93 30       	cpi	r25, 0x03	; 3
    78dc:	08 f0       	brcs	.+2      	; 0x78e0 <vfprintf+0x138>
    78de:	66 c1       	rjmp	.+716    	; 0x7bac <vfprintf+0x404>
    78e0:	99 2d       	mov	r25, r9
    78e2:	9f 7e       	andi	r25, 0xEF	; 239
    78e4:	96 ff       	sbrs	r25, 6
    78e6:	16 e0       	ldi	r17, 0x06	; 6
    78e8:	9f 73       	andi	r25, 0x3F	; 63
    78ea:	99 2e       	mov	r9, r25
    78ec:	85 36       	cpi	r24, 0x65	; 101
    78ee:	19 f4       	brne	.+6      	; 0x78f6 <vfprintf+0x14e>
    78f0:	90 64       	ori	r25, 0x40	; 64
    78f2:	99 2e       	mov	r9, r25
    78f4:	08 c0       	rjmp	.+16     	; 0x7906 <vfprintf+0x15e>
    78f6:	86 36       	cpi	r24, 0x66	; 102
    78f8:	21 f4       	brne	.+8      	; 0x7902 <vfprintf+0x15a>
    78fa:	39 2f       	mov	r19, r25
    78fc:	30 68       	ori	r19, 0x80	; 128
    78fe:	93 2e       	mov	r9, r19
    7900:	02 c0       	rjmp	.+4      	; 0x7906 <vfprintf+0x15e>
    7902:	11 11       	cpse	r17, r1
    7904:	11 50       	subi	r17, 0x01	; 1
    7906:	97 fe       	sbrs	r9, 7
    7908:	07 c0       	rjmp	.+14     	; 0x7918 <vfprintf+0x170>
    790a:	1c 33       	cpi	r17, 0x3C	; 60
    790c:	50 f4       	brcc	.+20     	; 0x7922 <vfprintf+0x17a>
    790e:	44 24       	eor	r4, r4
    7910:	43 94       	inc	r4
    7912:	41 0e       	add	r4, r17
    7914:	27 e0       	ldi	r18, 0x07	; 7
    7916:	0b c0       	rjmp	.+22     	; 0x792e <vfprintf+0x186>
    7918:	18 30       	cpi	r17, 0x08	; 8
    791a:	38 f0       	brcs	.+14     	; 0x792a <vfprintf+0x182>
    791c:	27 e0       	ldi	r18, 0x07	; 7
    791e:	17 e0       	ldi	r17, 0x07	; 7
    7920:	05 c0       	rjmp	.+10     	; 0x792c <vfprintf+0x184>
    7922:	27 e0       	ldi	r18, 0x07	; 7
    7924:	9c e3       	ldi	r25, 0x3C	; 60
    7926:	49 2e       	mov	r4, r25
    7928:	02 c0       	rjmp	.+4      	; 0x792e <vfprintf+0x186>
    792a:	21 2f       	mov	r18, r17
    792c:	41 2c       	mov	r4, r1
    792e:	56 01       	movw	r10, r12
    7930:	84 e0       	ldi	r24, 0x04	; 4
    7932:	a8 0e       	add	r10, r24
    7934:	b1 1c       	adc	r11, r1
    7936:	f6 01       	movw	r30, r12
    7938:	60 81       	ld	r22, Z
    793a:	71 81       	ldd	r23, Z+1	; 0x01
    793c:	82 81       	ldd	r24, Z+2	; 0x02
    793e:	93 81       	ldd	r25, Z+3	; 0x03
    7940:	04 2d       	mov	r16, r4
    7942:	a3 01       	movw	r20, r6
    7944:	0e 94 80 40 	call	0x8100	; 0x8100 <__ftoa_engine>
    7948:	6c 01       	movw	r12, r24
    794a:	f9 81       	ldd	r31, Y+1	; 0x01
    794c:	fc 87       	std	Y+12, r31	; 0x0c
    794e:	f0 ff       	sbrs	r31, 0
    7950:	02 c0       	rjmp	.+4      	; 0x7956 <vfprintf+0x1ae>
    7952:	f3 ff       	sbrs	r31, 3
    7954:	06 c0       	rjmp	.+12     	; 0x7962 <vfprintf+0x1ba>
    7956:	91 fc       	sbrc	r9, 1
    7958:	06 c0       	rjmp	.+12     	; 0x7966 <vfprintf+0x1be>
    795a:	92 fe       	sbrs	r9, 2
    795c:	06 c0       	rjmp	.+12     	; 0x796a <vfprintf+0x1c2>
    795e:	00 e2       	ldi	r16, 0x20	; 32
    7960:	05 c0       	rjmp	.+10     	; 0x796c <vfprintf+0x1c4>
    7962:	0d e2       	ldi	r16, 0x2D	; 45
    7964:	03 c0       	rjmp	.+6      	; 0x796c <vfprintf+0x1c4>
    7966:	0b e2       	ldi	r16, 0x2B	; 43
    7968:	01 c0       	rjmp	.+2      	; 0x796c <vfprintf+0x1c4>
    796a:	00 e0       	ldi	r16, 0x00	; 0
    796c:	8c 85       	ldd	r24, Y+12	; 0x0c
    796e:	8c 70       	andi	r24, 0x0C	; 12
    7970:	19 f0       	breq	.+6      	; 0x7978 <vfprintf+0x1d0>
    7972:	01 11       	cpse	r16, r1
    7974:	5a c2       	rjmp	.+1204   	; 0x7e2a <vfprintf+0x682>
    7976:	9b c2       	rjmp	.+1334   	; 0x7eae <vfprintf+0x706>
    7978:	97 fe       	sbrs	r9, 7
    797a:	10 c0       	rjmp	.+32     	; 0x799c <vfprintf+0x1f4>
    797c:	4c 0c       	add	r4, r12
    797e:	fc 85       	ldd	r31, Y+12	; 0x0c
    7980:	f4 ff       	sbrs	r31, 4
    7982:	04 c0       	rjmp	.+8      	; 0x798c <vfprintf+0x1e4>
    7984:	8a 81       	ldd	r24, Y+2	; 0x02
    7986:	81 33       	cpi	r24, 0x31	; 49
    7988:	09 f4       	brne	.+2      	; 0x798c <vfprintf+0x1e4>
    798a:	4a 94       	dec	r4
    798c:	14 14       	cp	r1, r4
    798e:	74 f5       	brge	.+92     	; 0x79ec <vfprintf+0x244>
    7990:	28 e0       	ldi	r18, 0x08	; 8
    7992:	24 15       	cp	r18, r4
    7994:	78 f5       	brcc	.+94     	; 0x79f4 <vfprintf+0x24c>
    7996:	88 e0       	ldi	r24, 0x08	; 8
    7998:	48 2e       	mov	r4, r24
    799a:	2c c0       	rjmp	.+88     	; 0x79f4 <vfprintf+0x24c>
    799c:	96 fc       	sbrc	r9, 6
    799e:	2a c0       	rjmp	.+84     	; 0x79f4 <vfprintf+0x24c>
    79a0:	81 2f       	mov	r24, r17
    79a2:	90 e0       	ldi	r25, 0x00	; 0
    79a4:	8c 15       	cp	r24, r12
    79a6:	9d 05       	cpc	r25, r13
    79a8:	9c f0       	brlt	.+38     	; 0x79d0 <vfprintf+0x228>
    79aa:	3c ef       	ldi	r19, 0xFC	; 252
    79ac:	c3 16       	cp	r12, r19
    79ae:	3f ef       	ldi	r19, 0xFF	; 255
    79b0:	d3 06       	cpc	r13, r19
    79b2:	74 f0       	brlt	.+28     	; 0x79d0 <vfprintf+0x228>
    79b4:	89 2d       	mov	r24, r9
    79b6:	80 68       	ori	r24, 0x80	; 128
    79b8:	98 2e       	mov	r9, r24
    79ba:	0a c0       	rjmp	.+20     	; 0x79d0 <vfprintf+0x228>
    79bc:	e2 e0       	ldi	r30, 0x02	; 2
    79be:	f0 e0       	ldi	r31, 0x00	; 0
    79c0:	ec 0f       	add	r30, r28
    79c2:	fd 1f       	adc	r31, r29
    79c4:	e1 0f       	add	r30, r17
    79c6:	f1 1d       	adc	r31, r1
    79c8:	80 81       	ld	r24, Z
    79ca:	80 33       	cpi	r24, 0x30	; 48
    79cc:	19 f4       	brne	.+6      	; 0x79d4 <vfprintf+0x22c>
    79ce:	11 50       	subi	r17, 0x01	; 1
    79d0:	11 11       	cpse	r17, r1
    79d2:	f4 cf       	rjmp	.-24     	; 0x79bc <vfprintf+0x214>
    79d4:	97 fe       	sbrs	r9, 7
    79d6:	0e c0       	rjmp	.+28     	; 0x79f4 <vfprintf+0x24c>
    79d8:	44 24       	eor	r4, r4
    79da:	43 94       	inc	r4
    79dc:	41 0e       	add	r4, r17
    79de:	81 2f       	mov	r24, r17
    79e0:	90 e0       	ldi	r25, 0x00	; 0
    79e2:	c8 16       	cp	r12, r24
    79e4:	d9 06       	cpc	r13, r25
    79e6:	2c f4       	brge	.+10     	; 0x79f2 <vfprintf+0x24a>
    79e8:	1c 19       	sub	r17, r12
    79ea:	04 c0       	rjmp	.+8      	; 0x79f4 <vfprintf+0x24c>
    79ec:	44 24       	eor	r4, r4
    79ee:	43 94       	inc	r4
    79f0:	01 c0       	rjmp	.+2      	; 0x79f4 <vfprintf+0x24c>
    79f2:	10 e0       	ldi	r17, 0x00	; 0
    79f4:	97 fe       	sbrs	r9, 7
    79f6:	06 c0       	rjmp	.+12     	; 0x7a04 <vfprintf+0x25c>
    79f8:	1c 14       	cp	r1, r12
    79fa:	1d 04       	cpc	r1, r13
    79fc:	34 f4       	brge	.+12     	; 0x7a0a <vfprintf+0x262>
    79fe:	c6 01       	movw	r24, r12
    7a00:	01 96       	adiw	r24, 0x01	; 1
    7a02:	05 c0       	rjmp	.+10     	; 0x7a0e <vfprintf+0x266>
    7a04:	85 e0       	ldi	r24, 0x05	; 5
    7a06:	90 e0       	ldi	r25, 0x00	; 0
    7a08:	02 c0       	rjmp	.+4      	; 0x7a0e <vfprintf+0x266>
    7a0a:	81 e0       	ldi	r24, 0x01	; 1
    7a0c:	90 e0       	ldi	r25, 0x00	; 0
    7a0e:	01 11       	cpse	r16, r1
    7a10:	01 96       	adiw	r24, 0x01	; 1
    7a12:	11 23       	and	r17, r17
    7a14:	31 f0       	breq	.+12     	; 0x7a22 <vfprintf+0x27a>
    7a16:	21 2f       	mov	r18, r17
    7a18:	30 e0       	ldi	r19, 0x00	; 0
    7a1a:	2f 5f       	subi	r18, 0xFF	; 255
    7a1c:	3f 4f       	sbci	r19, 0xFF	; 255
    7a1e:	82 0f       	add	r24, r18
    7a20:	93 1f       	adc	r25, r19
    7a22:	25 2d       	mov	r18, r5
    7a24:	30 e0       	ldi	r19, 0x00	; 0
    7a26:	82 17       	cp	r24, r18
    7a28:	93 07       	cpc	r25, r19
    7a2a:	14 f4       	brge	.+4      	; 0x7a30 <vfprintf+0x288>
    7a2c:	58 1a       	sub	r5, r24
    7a2e:	01 c0       	rjmp	.+2      	; 0x7a32 <vfprintf+0x28a>
    7a30:	51 2c       	mov	r5, r1
    7a32:	89 2d       	mov	r24, r9
    7a34:	89 70       	andi	r24, 0x09	; 9
    7a36:	49 f4       	brne	.+18     	; 0x7a4a <vfprintf+0x2a2>
    7a38:	55 20       	and	r5, r5
    7a3a:	39 f0       	breq	.+14     	; 0x7a4a <vfprintf+0x2a2>
    7a3c:	b7 01       	movw	r22, r14
    7a3e:	80 e2       	ldi	r24, 0x20	; 32
    7a40:	90 e0       	ldi	r25, 0x00	; 0
    7a42:	0e 94 b3 41 	call	0x8366	; 0x8366 <fputc>
    7a46:	5a 94       	dec	r5
    7a48:	f7 cf       	rjmp	.-18     	; 0x7a38 <vfprintf+0x290>
    7a4a:	00 23       	and	r16, r16
    7a4c:	29 f0       	breq	.+10     	; 0x7a58 <vfprintf+0x2b0>
    7a4e:	b7 01       	movw	r22, r14
    7a50:	80 2f       	mov	r24, r16
    7a52:	90 e0       	ldi	r25, 0x00	; 0
    7a54:	0e 94 b3 41 	call	0x8366	; 0x8366 <fputc>
    7a58:	93 fc       	sbrc	r9, 3
    7a5a:	09 c0       	rjmp	.+18     	; 0x7a6e <vfprintf+0x2c6>
    7a5c:	55 20       	and	r5, r5
    7a5e:	39 f0       	breq	.+14     	; 0x7a6e <vfprintf+0x2c6>
    7a60:	b7 01       	movw	r22, r14
    7a62:	80 e3       	ldi	r24, 0x30	; 48
    7a64:	90 e0       	ldi	r25, 0x00	; 0
    7a66:	0e 94 b3 41 	call	0x8366	; 0x8366 <fputc>
    7a6a:	5a 94       	dec	r5
    7a6c:	f7 cf       	rjmp	.-18     	; 0x7a5c <vfprintf+0x2b4>
    7a6e:	97 fe       	sbrs	r9, 7
    7a70:	4c c0       	rjmp	.+152    	; 0x7b0a <vfprintf+0x362>
    7a72:	46 01       	movw	r8, r12
    7a74:	d7 fe       	sbrs	r13, 7
    7a76:	02 c0       	rjmp	.+4      	; 0x7a7c <vfprintf+0x2d4>
    7a78:	81 2c       	mov	r8, r1
    7a7a:	91 2c       	mov	r9, r1
    7a7c:	c6 01       	movw	r24, r12
    7a7e:	88 19       	sub	r24, r8
    7a80:	99 09       	sbc	r25, r9
    7a82:	f3 01       	movw	r30, r6
    7a84:	e8 0f       	add	r30, r24
    7a86:	f9 1f       	adc	r31, r25
    7a88:	ed 87       	std	Y+13, r30	; 0x0d
    7a8a:	fe 87       	std	Y+14, r31	; 0x0e
    7a8c:	96 01       	movw	r18, r12
    7a8e:	24 19       	sub	r18, r4
    7a90:	31 09       	sbc	r19, r1
    7a92:	2f 87       	std	Y+15, r18	; 0x0f
    7a94:	38 8b       	std	Y+16, r19	; 0x10
    7a96:	01 2f       	mov	r16, r17
    7a98:	10 e0       	ldi	r17, 0x00	; 0
    7a9a:	11 95       	neg	r17
    7a9c:	01 95       	neg	r16
    7a9e:	11 09       	sbc	r17, r1
    7aa0:	3f ef       	ldi	r19, 0xFF	; 255
    7aa2:	83 16       	cp	r8, r19
    7aa4:	93 06       	cpc	r9, r19
    7aa6:	29 f4       	brne	.+10     	; 0x7ab2 <vfprintf+0x30a>
    7aa8:	b7 01       	movw	r22, r14
    7aaa:	8e e2       	ldi	r24, 0x2E	; 46
    7aac:	90 e0       	ldi	r25, 0x00	; 0
    7aae:	0e 94 b3 41 	call	0x8366	; 0x8366 <fputc>
    7ab2:	c8 14       	cp	r12, r8
    7ab4:	d9 04       	cpc	r13, r9
    7ab6:	4c f0       	brlt	.+18     	; 0x7aca <vfprintf+0x322>
    7ab8:	8f 85       	ldd	r24, Y+15	; 0x0f
    7aba:	98 89       	ldd	r25, Y+16	; 0x10
    7abc:	88 15       	cp	r24, r8
    7abe:	99 05       	cpc	r25, r9
    7ac0:	24 f4       	brge	.+8      	; 0x7aca <vfprintf+0x322>
    7ac2:	ed 85       	ldd	r30, Y+13	; 0x0d
    7ac4:	fe 85       	ldd	r31, Y+14	; 0x0e
    7ac6:	81 81       	ldd	r24, Z+1	; 0x01
    7ac8:	01 c0       	rjmp	.+2      	; 0x7acc <vfprintf+0x324>
    7aca:	80 e3       	ldi	r24, 0x30	; 48
    7acc:	f1 e0       	ldi	r31, 0x01	; 1
    7ace:	8f 1a       	sub	r8, r31
    7ad0:	91 08       	sbc	r9, r1
    7ad2:	2d 85       	ldd	r18, Y+13	; 0x0d
    7ad4:	3e 85       	ldd	r19, Y+14	; 0x0e
    7ad6:	2f 5f       	subi	r18, 0xFF	; 255
    7ad8:	3f 4f       	sbci	r19, 0xFF	; 255
    7ada:	2d 87       	std	Y+13, r18	; 0x0d
    7adc:	3e 87       	std	Y+14, r19	; 0x0e
    7ade:	80 16       	cp	r8, r16
    7ae0:	91 06       	cpc	r9, r17
    7ae2:	2c f0       	brlt	.+10     	; 0x7aee <vfprintf+0x346>
    7ae4:	b7 01       	movw	r22, r14
    7ae6:	90 e0       	ldi	r25, 0x00	; 0
    7ae8:	0e 94 b3 41 	call	0x8366	; 0x8366 <fputc>
    7aec:	d9 cf       	rjmp	.-78     	; 0x7aa0 <vfprintf+0x2f8>
    7aee:	c8 14       	cp	r12, r8
    7af0:	d9 04       	cpc	r13, r9
    7af2:	41 f4       	brne	.+16     	; 0x7b04 <vfprintf+0x35c>
    7af4:	9a 81       	ldd	r25, Y+2	; 0x02
    7af6:	96 33       	cpi	r25, 0x36	; 54
    7af8:	20 f4       	brcc	.+8      	; 0x7b02 <vfprintf+0x35a>
    7afa:	95 33       	cpi	r25, 0x35	; 53
    7afc:	19 f4       	brne	.+6      	; 0x7b04 <vfprintf+0x35c>
    7afe:	3c 85       	ldd	r19, Y+12	; 0x0c
    7b00:	34 ff       	sbrs	r19, 4
    7b02:	81 e3       	ldi	r24, 0x31	; 49
    7b04:	b7 01       	movw	r22, r14
    7b06:	90 e0       	ldi	r25, 0x00	; 0
    7b08:	4e c0       	rjmp	.+156    	; 0x7ba6 <vfprintf+0x3fe>
    7b0a:	8a 81       	ldd	r24, Y+2	; 0x02
    7b0c:	81 33       	cpi	r24, 0x31	; 49
    7b0e:	19 f0       	breq	.+6      	; 0x7b16 <vfprintf+0x36e>
    7b10:	9c 85       	ldd	r25, Y+12	; 0x0c
    7b12:	9f 7e       	andi	r25, 0xEF	; 239
    7b14:	9c 87       	std	Y+12, r25	; 0x0c
    7b16:	b7 01       	movw	r22, r14
    7b18:	90 e0       	ldi	r25, 0x00	; 0
    7b1a:	0e 94 b3 41 	call	0x8366	; 0x8366 <fputc>
    7b1e:	11 11       	cpse	r17, r1
    7b20:	05 c0       	rjmp	.+10     	; 0x7b2c <vfprintf+0x384>
    7b22:	94 fc       	sbrc	r9, 4
    7b24:	18 c0       	rjmp	.+48     	; 0x7b56 <vfprintf+0x3ae>
    7b26:	85 e6       	ldi	r24, 0x65	; 101
    7b28:	90 e0       	ldi	r25, 0x00	; 0
    7b2a:	17 c0       	rjmp	.+46     	; 0x7b5a <vfprintf+0x3b2>
    7b2c:	b7 01       	movw	r22, r14
    7b2e:	8e e2       	ldi	r24, 0x2E	; 46
    7b30:	90 e0       	ldi	r25, 0x00	; 0
    7b32:	0e 94 b3 41 	call	0x8366	; 0x8366 <fputc>
    7b36:	1e 5f       	subi	r17, 0xFE	; 254
    7b38:	82 e0       	ldi	r24, 0x02	; 2
    7b3a:	01 e0       	ldi	r16, 0x01	; 1
    7b3c:	08 0f       	add	r16, r24
    7b3e:	f3 01       	movw	r30, r6
    7b40:	e8 0f       	add	r30, r24
    7b42:	f1 1d       	adc	r31, r1
    7b44:	80 81       	ld	r24, Z
    7b46:	b7 01       	movw	r22, r14
    7b48:	90 e0       	ldi	r25, 0x00	; 0
    7b4a:	0e 94 b3 41 	call	0x8366	; 0x8366 <fputc>
    7b4e:	80 2f       	mov	r24, r16
    7b50:	01 13       	cpse	r16, r17
    7b52:	f3 cf       	rjmp	.-26     	; 0x7b3a <vfprintf+0x392>
    7b54:	e6 cf       	rjmp	.-52     	; 0x7b22 <vfprintf+0x37a>
    7b56:	85 e4       	ldi	r24, 0x45	; 69
    7b58:	90 e0       	ldi	r25, 0x00	; 0
    7b5a:	b7 01       	movw	r22, r14
    7b5c:	0e 94 b3 41 	call	0x8366	; 0x8366 <fputc>
    7b60:	d7 fc       	sbrc	r13, 7
    7b62:	06 c0       	rjmp	.+12     	; 0x7b70 <vfprintf+0x3c8>
    7b64:	c1 14       	cp	r12, r1
    7b66:	d1 04       	cpc	r13, r1
    7b68:	41 f4       	brne	.+16     	; 0x7b7a <vfprintf+0x3d2>
    7b6a:	ec 85       	ldd	r30, Y+12	; 0x0c
    7b6c:	e4 ff       	sbrs	r30, 4
    7b6e:	05 c0       	rjmp	.+10     	; 0x7b7a <vfprintf+0x3d2>
    7b70:	d1 94       	neg	r13
    7b72:	c1 94       	neg	r12
    7b74:	d1 08       	sbc	r13, r1
    7b76:	8d e2       	ldi	r24, 0x2D	; 45
    7b78:	01 c0       	rjmp	.+2      	; 0x7b7c <vfprintf+0x3d4>
    7b7a:	8b e2       	ldi	r24, 0x2B	; 43
    7b7c:	b7 01       	movw	r22, r14
    7b7e:	90 e0       	ldi	r25, 0x00	; 0
    7b80:	0e 94 b3 41 	call	0x8366	; 0x8366 <fputc>
    7b84:	80 e3       	ldi	r24, 0x30	; 48
    7b86:	2a e0       	ldi	r18, 0x0A	; 10
    7b88:	c2 16       	cp	r12, r18
    7b8a:	d1 04       	cpc	r13, r1
    7b8c:	2c f0       	brlt	.+10     	; 0x7b98 <vfprintf+0x3f0>
    7b8e:	8f 5f       	subi	r24, 0xFF	; 255
    7b90:	fa e0       	ldi	r31, 0x0A	; 10
    7b92:	cf 1a       	sub	r12, r31
    7b94:	d1 08       	sbc	r13, r1
    7b96:	f7 cf       	rjmp	.-18     	; 0x7b86 <vfprintf+0x3de>
    7b98:	b7 01       	movw	r22, r14
    7b9a:	90 e0       	ldi	r25, 0x00	; 0
    7b9c:	0e 94 b3 41 	call	0x8366	; 0x8366 <fputc>
    7ba0:	b7 01       	movw	r22, r14
    7ba2:	c6 01       	movw	r24, r12
    7ba4:	c0 96       	adiw	r24, 0x30	; 48
    7ba6:	0e 94 b3 41 	call	0x8366	; 0x8366 <fputc>
    7baa:	54 c1       	rjmp	.+680    	; 0x7e54 <vfprintf+0x6ac>
    7bac:	83 36       	cpi	r24, 0x63	; 99
    7bae:	31 f0       	breq	.+12     	; 0x7bbc <vfprintf+0x414>
    7bb0:	83 37       	cpi	r24, 0x73	; 115
    7bb2:	79 f0       	breq	.+30     	; 0x7bd2 <vfprintf+0x42a>
    7bb4:	83 35       	cpi	r24, 0x53	; 83
    7bb6:	09 f0       	breq	.+2      	; 0x7bba <vfprintf+0x412>
    7bb8:	56 c0       	rjmp	.+172    	; 0x7c66 <vfprintf+0x4be>
    7bba:	20 c0       	rjmp	.+64     	; 0x7bfc <vfprintf+0x454>
    7bbc:	56 01       	movw	r10, r12
    7bbe:	32 e0       	ldi	r19, 0x02	; 2
    7bc0:	a3 0e       	add	r10, r19
    7bc2:	b1 1c       	adc	r11, r1
    7bc4:	f6 01       	movw	r30, r12
    7bc6:	80 81       	ld	r24, Z
    7bc8:	89 83       	std	Y+1, r24	; 0x01
    7bca:	01 e0       	ldi	r16, 0x01	; 1
    7bcc:	10 e0       	ldi	r17, 0x00	; 0
    7bce:	63 01       	movw	r12, r6
    7bd0:	12 c0       	rjmp	.+36     	; 0x7bf6 <vfprintf+0x44e>
    7bd2:	56 01       	movw	r10, r12
    7bd4:	f2 e0       	ldi	r31, 0x02	; 2
    7bd6:	af 0e       	add	r10, r31
    7bd8:	b1 1c       	adc	r11, r1
    7bda:	f6 01       	movw	r30, r12
    7bdc:	c0 80       	ld	r12, Z
    7bde:	d1 80       	ldd	r13, Z+1	; 0x01
    7be0:	96 fe       	sbrs	r9, 6
    7be2:	03 c0       	rjmp	.+6      	; 0x7bea <vfprintf+0x442>
    7be4:	61 2f       	mov	r22, r17
    7be6:	70 e0       	ldi	r23, 0x00	; 0
    7be8:	02 c0       	rjmp	.+4      	; 0x7bee <vfprintf+0x446>
    7bea:	6f ef       	ldi	r22, 0xFF	; 255
    7bec:	7f ef       	ldi	r23, 0xFF	; 255
    7bee:	c6 01       	movw	r24, r12
    7bf0:	0e 94 83 41 	call	0x8306	; 0x8306 <strnlen>
    7bf4:	8c 01       	movw	r16, r24
    7bf6:	f9 2d       	mov	r31, r9
    7bf8:	ff 77       	andi	r31, 0x7F	; 127
    7bfa:	14 c0       	rjmp	.+40     	; 0x7c24 <vfprintf+0x47c>
    7bfc:	56 01       	movw	r10, r12
    7bfe:	22 e0       	ldi	r18, 0x02	; 2
    7c00:	a2 0e       	add	r10, r18
    7c02:	b1 1c       	adc	r11, r1
    7c04:	f6 01       	movw	r30, r12
    7c06:	c0 80       	ld	r12, Z
    7c08:	d1 80       	ldd	r13, Z+1	; 0x01
    7c0a:	96 fe       	sbrs	r9, 6
    7c0c:	03 c0       	rjmp	.+6      	; 0x7c14 <vfprintf+0x46c>
    7c0e:	61 2f       	mov	r22, r17
    7c10:	70 e0       	ldi	r23, 0x00	; 0
    7c12:	02 c0       	rjmp	.+4      	; 0x7c18 <vfprintf+0x470>
    7c14:	6f ef       	ldi	r22, 0xFF	; 255
    7c16:	7f ef       	ldi	r23, 0xFF	; 255
    7c18:	c6 01       	movw	r24, r12
    7c1a:	0e 94 58 41 	call	0x82b0	; 0x82b0 <strnlen_P>
    7c1e:	8c 01       	movw	r16, r24
    7c20:	f9 2d       	mov	r31, r9
    7c22:	f0 68       	ori	r31, 0x80	; 128
    7c24:	9f 2e       	mov	r9, r31
    7c26:	f3 fd       	sbrc	r31, 3
    7c28:	1a c0       	rjmp	.+52     	; 0x7c5e <vfprintf+0x4b6>
    7c2a:	85 2d       	mov	r24, r5
    7c2c:	90 e0       	ldi	r25, 0x00	; 0
    7c2e:	08 17       	cp	r16, r24
    7c30:	19 07       	cpc	r17, r25
    7c32:	a8 f4       	brcc	.+42     	; 0x7c5e <vfprintf+0x4b6>
    7c34:	b7 01       	movw	r22, r14
    7c36:	80 e2       	ldi	r24, 0x20	; 32
    7c38:	90 e0       	ldi	r25, 0x00	; 0
    7c3a:	0e 94 b3 41 	call	0x8366	; 0x8366 <fputc>
    7c3e:	5a 94       	dec	r5
    7c40:	f4 cf       	rjmp	.-24     	; 0x7c2a <vfprintf+0x482>
    7c42:	f6 01       	movw	r30, r12
    7c44:	97 fc       	sbrc	r9, 7
    7c46:	85 91       	lpm	r24, Z+
    7c48:	97 fe       	sbrs	r9, 7
    7c4a:	81 91       	ld	r24, Z+
    7c4c:	6f 01       	movw	r12, r30
    7c4e:	b7 01       	movw	r22, r14
    7c50:	90 e0       	ldi	r25, 0x00	; 0
    7c52:	0e 94 b3 41 	call	0x8366	; 0x8366 <fputc>
    7c56:	51 10       	cpse	r5, r1
    7c58:	5a 94       	dec	r5
    7c5a:	01 50       	subi	r16, 0x01	; 1
    7c5c:	11 09       	sbc	r17, r1
    7c5e:	01 15       	cp	r16, r1
    7c60:	11 05       	cpc	r17, r1
    7c62:	79 f7       	brne	.-34     	; 0x7c42 <vfprintf+0x49a>
    7c64:	f7 c0       	rjmp	.+494    	; 0x7e54 <vfprintf+0x6ac>
    7c66:	84 36       	cpi	r24, 0x64	; 100
    7c68:	11 f0       	breq	.+4      	; 0x7c6e <vfprintf+0x4c6>
    7c6a:	89 36       	cpi	r24, 0x69	; 105
    7c6c:	61 f5       	brne	.+88     	; 0x7cc6 <vfprintf+0x51e>
    7c6e:	56 01       	movw	r10, r12
    7c70:	97 fe       	sbrs	r9, 7
    7c72:	09 c0       	rjmp	.+18     	; 0x7c86 <vfprintf+0x4de>
    7c74:	24 e0       	ldi	r18, 0x04	; 4
    7c76:	a2 0e       	add	r10, r18
    7c78:	b1 1c       	adc	r11, r1
    7c7a:	f6 01       	movw	r30, r12
    7c7c:	60 81       	ld	r22, Z
    7c7e:	71 81       	ldd	r23, Z+1	; 0x01
    7c80:	82 81       	ldd	r24, Z+2	; 0x02
    7c82:	93 81       	ldd	r25, Z+3	; 0x03
    7c84:	0a c0       	rjmp	.+20     	; 0x7c9a <vfprintf+0x4f2>
    7c86:	f2 e0       	ldi	r31, 0x02	; 2
    7c88:	af 0e       	add	r10, r31
    7c8a:	b1 1c       	adc	r11, r1
    7c8c:	f6 01       	movw	r30, r12
    7c8e:	60 81       	ld	r22, Z
    7c90:	71 81       	ldd	r23, Z+1	; 0x01
    7c92:	07 2e       	mov	r0, r23
    7c94:	00 0c       	add	r0, r0
    7c96:	88 0b       	sbc	r24, r24
    7c98:	99 0b       	sbc	r25, r25
    7c9a:	f9 2d       	mov	r31, r9
    7c9c:	ff 76       	andi	r31, 0x6F	; 111
    7c9e:	9f 2e       	mov	r9, r31
    7ca0:	97 ff       	sbrs	r25, 7
    7ca2:	09 c0       	rjmp	.+18     	; 0x7cb6 <vfprintf+0x50e>
    7ca4:	90 95       	com	r25
    7ca6:	80 95       	com	r24
    7ca8:	70 95       	com	r23
    7caa:	61 95       	neg	r22
    7cac:	7f 4f       	sbci	r23, 0xFF	; 255
    7cae:	8f 4f       	sbci	r24, 0xFF	; 255
    7cb0:	9f 4f       	sbci	r25, 0xFF	; 255
    7cb2:	f0 68       	ori	r31, 0x80	; 128
    7cb4:	9f 2e       	mov	r9, r31
    7cb6:	2a e0       	ldi	r18, 0x0A	; 10
    7cb8:	30 e0       	ldi	r19, 0x00	; 0
    7cba:	a3 01       	movw	r20, r6
    7cbc:	0e 94 18 42 	call	0x8430	; 0x8430 <__ultoa_invert>
    7cc0:	c8 2e       	mov	r12, r24
    7cc2:	c6 18       	sub	r12, r6
    7cc4:	3f c0       	rjmp	.+126    	; 0x7d44 <vfprintf+0x59c>
    7cc6:	09 2d       	mov	r16, r9
    7cc8:	85 37       	cpi	r24, 0x75	; 117
    7cca:	21 f4       	brne	.+8      	; 0x7cd4 <vfprintf+0x52c>
    7ccc:	0f 7e       	andi	r16, 0xEF	; 239
    7cce:	2a e0       	ldi	r18, 0x0A	; 10
    7cd0:	30 e0       	ldi	r19, 0x00	; 0
    7cd2:	1d c0       	rjmp	.+58     	; 0x7d0e <vfprintf+0x566>
    7cd4:	09 7f       	andi	r16, 0xF9	; 249
    7cd6:	8f 36       	cpi	r24, 0x6F	; 111
    7cd8:	91 f0       	breq	.+36     	; 0x7cfe <vfprintf+0x556>
    7cda:	18 f4       	brcc	.+6      	; 0x7ce2 <vfprintf+0x53a>
    7cdc:	88 35       	cpi	r24, 0x58	; 88
    7cde:	59 f0       	breq	.+22     	; 0x7cf6 <vfprintf+0x54e>
    7ce0:	c3 c0       	rjmp	.+390    	; 0x7e68 <vfprintf+0x6c0>
    7ce2:	80 37       	cpi	r24, 0x70	; 112
    7ce4:	19 f0       	breq	.+6      	; 0x7cec <vfprintf+0x544>
    7ce6:	88 37       	cpi	r24, 0x78	; 120
    7ce8:	11 f0       	breq	.+4      	; 0x7cee <vfprintf+0x546>
    7cea:	be c0       	rjmp	.+380    	; 0x7e68 <vfprintf+0x6c0>
    7cec:	00 61       	ori	r16, 0x10	; 16
    7cee:	04 ff       	sbrs	r16, 4
    7cf0:	09 c0       	rjmp	.+18     	; 0x7d04 <vfprintf+0x55c>
    7cf2:	04 60       	ori	r16, 0x04	; 4
    7cf4:	07 c0       	rjmp	.+14     	; 0x7d04 <vfprintf+0x55c>
    7cf6:	94 fe       	sbrs	r9, 4
    7cf8:	08 c0       	rjmp	.+16     	; 0x7d0a <vfprintf+0x562>
    7cfa:	06 60       	ori	r16, 0x06	; 6
    7cfc:	06 c0       	rjmp	.+12     	; 0x7d0a <vfprintf+0x562>
    7cfe:	28 e0       	ldi	r18, 0x08	; 8
    7d00:	30 e0       	ldi	r19, 0x00	; 0
    7d02:	05 c0       	rjmp	.+10     	; 0x7d0e <vfprintf+0x566>
    7d04:	20 e1       	ldi	r18, 0x10	; 16
    7d06:	30 e0       	ldi	r19, 0x00	; 0
    7d08:	02 c0       	rjmp	.+4      	; 0x7d0e <vfprintf+0x566>
    7d0a:	20 e1       	ldi	r18, 0x10	; 16
    7d0c:	32 e0       	ldi	r19, 0x02	; 2
    7d0e:	56 01       	movw	r10, r12
    7d10:	07 ff       	sbrs	r16, 7
    7d12:	09 c0       	rjmp	.+18     	; 0x7d26 <vfprintf+0x57e>
    7d14:	84 e0       	ldi	r24, 0x04	; 4
    7d16:	a8 0e       	add	r10, r24
    7d18:	b1 1c       	adc	r11, r1
    7d1a:	f6 01       	movw	r30, r12
    7d1c:	60 81       	ld	r22, Z
    7d1e:	71 81       	ldd	r23, Z+1	; 0x01
    7d20:	82 81       	ldd	r24, Z+2	; 0x02
    7d22:	93 81       	ldd	r25, Z+3	; 0x03
    7d24:	08 c0       	rjmp	.+16     	; 0x7d36 <vfprintf+0x58e>
    7d26:	f2 e0       	ldi	r31, 0x02	; 2
    7d28:	af 0e       	add	r10, r31
    7d2a:	b1 1c       	adc	r11, r1
    7d2c:	f6 01       	movw	r30, r12
    7d2e:	60 81       	ld	r22, Z
    7d30:	71 81       	ldd	r23, Z+1	; 0x01
    7d32:	80 e0       	ldi	r24, 0x00	; 0
    7d34:	90 e0       	ldi	r25, 0x00	; 0
    7d36:	a3 01       	movw	r20, r6
    7d38:	0e 94 18 42 	call	0x8430	; 0x8430 <__ultoa_invert>
    7d3c:	c8 2e       	mov	r12, r24
    7d3e:	c6 18       	sub	r12, r6
    7d40:	0f 77       	andi	r16, 0x7F	; 127
    7d42:	90 2e       	mov	r9, r16
    7d44:	96 fe       	sbrs	r9, 6
    7d46:	0b c0       	rjmp	.+22     	; 0x7d5e <vfprintf+0x5b6>
    7d48:	09 2d       	mov	r16, r9
    7d4a:	0e 7f       	andi	r16, 0xFE	; 254
    7d4c:	c1 16       	cp	r12, r17
    7d4e:	50 f4       	brcc	.+20     	; 0x7d64 <vfprintf+0x5bc>
    7d50:	94 fe       	sbrs	r9, 4
    7d52:	0a c0       	rjmp	.+20     	; 0x7d68 <vfprintf+0x5c0>
    7d54:	92 fc       	sbrc	r9, 2
    7d56:	08 c0       	rjmp	.+16     	; 0x7d68 <vfprintf+0x5c0>
    7d58:	09 2d       	mov	r16, r9
    7d5a:	0e 7e       	andi	r16, 0xEE	; 238
    7d5c:	05 c0       	rjmp	.+10     	; 0x7d68 <vfprintf+0x5c0>
    7d5e:	dc 2c       	mov	r13, r12
    7d60:	09 2d       	mov	r16, r9
    7d62:	03 c0       	rjmp	.+6      	; 0x7d6a <vfprintf+0x5c2>
    7d64:	dc 2c       	mov	r13, r12
    7d66:	01 c0       	rjmp	.+2      	; 0x7d6a <vfprintf+0x5c2>
    7d68:	d1 2e       	mov	r13, r17
    7d6a:	04 ff       	sbrs	r16, 4
    7d6c:	0d c0       	rjmp	.+26     	; 0x7d88 <vfprintf+0x5e0>
    7d6e:	fe 01       	movw	r30, r28
    7d70:	ec 0d       	add	r30, r12
    7d72:	f1 1d       	adc	r31, r1
    7d74:	80 81       	ld	r24, Z
    7d76:	80 33       	cpi	r24, 0x30	; 48
    7d78:	11 f4       	brne	.+4      	; 0x7d7e <vfprintf+0x5d6>
    7d7a:	09 7e       	andi	r16, 0xE9	; 233
    7d7c:	09 c0       	rjmp	.+18     	; 0x7d90 <vfprintf+0x5e8>
    7d7e:	02 ff       	sbrs	r16, 2
    7d80:	06 c0       	rjmp	.+12     	; 0x7d8e <vfprintf+0x5e6>
    7d82:	d3 94       	inc	r13
    7d84:	d3 94       	inc	r13
    7d86:	04 c0       	rjmp	.+8      	; 0x7d90 <vfprintf+0x5e8>
    7d88:	80 2f       	mov	r24, r16
    7d8a:	86 78       	andi	r24, 0x86	; 134
    7d8c:	09 f0       	breq	.+2      	; 0x7d90 <vfprintf+0x5e8>
    7d8e:	d3 94       	inc	r13
    7d90:	03 fd       	sbrc	r16, 3
    7d92:	11 c0       	rjmp	.+34     	; 0x7db6 <vfprintf+0x60e>
    7d94:	00 ff       	sbrs	r16, 0
    7d96:	06 c0       	rjmp	.+12     	; 0x7da4 <vfprintf+0x5fc>
    7d98:	1c 2d       	mov	r17, r12
    7d9a:	d5 14       	cp	r13, r5
    7d9c:	80 f4       	brcc	.+32     	; 0x7dbe <vfprintf+0x616>
    7d9e:	15 0d       	add	r17, r5
    7da0:	1d 19       	sub	r17, r13
    7da2:	0d c0       	rjmp	.+26     	; 0x7dbe <vfprintf+0x616>
    7da4:	d5 14       	cp	r13, r5
    7da6:	58 f4       	brcc	.+22     	; 0x7dbe <vfprintf+0x616>
    7da8:	b7 01       	movw	r22, r14
    7daa:	80 e2       	ldi	r24, 0x20	; 32
    7dac:	90 e0       	ldi	r25, 0x00	; 0
    7dae:	0e 94 b3 41 	call	0x8366	; 0x8366 <fputc>
    7db2:	d3 94       	inc	r13
    7db4:	f7 cf       	rjmp	.-18     	; 0x7da4 <vfprintf+0x5fc>
    7db6:	d5 14       	cp	r13, r5
    7db8:	10 f4       	brcc	.+4      	; 0x7dbe <vfprintf+0x616>
    7dba:	5d 18       	sub	r5, r13
    7dbc:	01 c0       	rjmp	.+2      	; 0x7dc0 <vfprintf+0x618>
    7dbe:	51 2c       	mov	r5, r1
    7dc0:	04 ff       	sbrs	r16, 4
    7dc2:	10 c0       	rjmp	.+32     	; 0x7de4 <vfprintf+0x63c>
    7dc4:	b7 01       	movw	r22, r14
    7dc6:	80 e3       	ldi	r24, 0x30	; 48
    7dc8:	90 e0       	ldi	r25, 0x00	; 0
    7dca:	0e 94 b3 41 	call	0x8366	; 0x8366 <fputc>
    7dce:	02 ff       	sbrs	r16, 2
    7dd0:	17 c0       	rjmp	.+46     	; 0x7e00 <vfprintf+0x658>
    7dd2:	01 fd       	sbrc	r16, 1
    7dd4:	03 c0       	rjmp	.+6      	; 0x7ddc <vfprintf+0x634>
    7dd6:	88 e7       	ldi	r24, 0x78	; 120
    7dd8:	90 e0       	ldi	r25, 0x00	; 0
    7dda:	02 c0       	rjmp	.+4      	; 0x7de0 <vfprintf+0x638>
    7ddc:	88 e5       	ldi	r24, 0x58	; 88
    7dde:	90 e0       	ldi	r25, 0x00	; 0
    7de0:	b7 01       	movw	r22, r14
    7de2:	0c c0       	rjmp	.+24     	; 0x7dfc <vfprintf+0x654>
    7de4:	80 2f       	mov	r24, r16
    7de6:	86 78       	andi	r24, 0x86	; 134
    7de8:	59 f0       	breq	.+22     	; 0x7e00 <vfprintf+0x658>
    7dea:	01 ff       	sbrs	r16, 1
    7dec:	02 c0       	rjmp	.+4      	; 0x7df2 <vfprintf+0x64a>
    7dee:	8b e2       	ldi	r24, 0x2B	; 43
    7df0:	01 c0       	rjmp	.+2      	; 0x7df4 <vfprintf+0x64c>
    7df2:	80 e2       	ldi	r24, 0x20	; 32
    7df4:	07 fd       	sbrc	r16, 7
    7df6:	8d e2       	ldi	r24, 0x2D	; 45
    7df8:	b7 01       	movw	r22, r14
    7dfa:	90 e0       	ldi	r25, 0x00	; 0
    7dfc:	0e 94 b3 41 	call	0x8366	; 0x8366 <fputc>
    7e00:	c1 16       	cp	r12, r17
    7e02:	38 f4       	brcc	.+14     	; 0x7e12 <vfprintf+0x66a>
    7e04:	b7 01       	movw	r22, r14
    7e06:	80 e3       	ldi	r24, 0x30	; 48
    7e08:	90 e0       	ldi	r25, 0x00	; 0
    7e0a:	0e 94 b3 41 	call	0x8366	; 0x8366 <fputc>
    7e0e:	11 50       	subi	r17, 0x01	; 1
    7e10:	f7 cf       	rjmp	.-18     	; 0x7e00 <vfprintf+0x658>
    7e12:	ca 94       	dec	r12
    7e14:	f3 01       	movw	r30, r6
    7e16:	ec 0d       	add	r30, r12
    7e18:	f1 1d       	adc	r31, r1
    7e1a:	80 81       	ld	r24, Z
    7e1c:	b7 01       	movw	r22, r14
    7e1e:	90 e0       	ldi	r25, 0x00	; 0
    7e20:	0e 94 b3 41 	call	0x8366	; 0x8366 <fputc>
    7e24:	c1 10       	cpse	r12, r1
    7e26:	f5 cf       	rjmp	.-22     	; 0x7e12 <vfprintf+0x66a>
    7e28:	15 c0       	rjmp	.+42     	; 0x7e54 <vfprintf+0x6ac>
    7e2a:	f4 e0       	ldi	r31, 0x04	; 4
    7e2c:	f5 15       	cp	r31, r5
    7e2e:	60 f5       	brcc	.+88     	; 0x7e88 <vfprintf+0x6e0>
    7e30:	84 e0       	ldi	r24, 0x04	; 4
    7e32:	58 1a       	sub	r5, r24
    7e34:	93 fe       	sbrs	r9, 3
    7e36:	1f c0       	rjmp	.+62     	; 0x7e76 <vfprintf+0x6ce>
    7e38:	01 11       	cpse	r16, r1
    7e3a:	27 c0       	rjmp	.+78     	; 0x7e8a <vfprintf+0x6e2>
    7e3c:	2c 85       	ldd	r18, Y+12	; 0x0c
    7e3e:	23 ff       	sbrs	r18, 3
    7e40:	2a c0       	rjmp	.+84     	; 0x7e96 <vfprintf+0x6ee>
    7e42:	02 ec       	ldi	r16, 0xC2	; 194
    7e44:	12 e0       	ldi	r17, 0x02	; 2
    7e46:	39 2d       	mov	r19, r9
    7e48:	30 71       	andi	r19, 0x10	; 16
    7e4a:	93 2e       	mov	r9, r19
    7e4c:	f8 01       	movw	r30, r16
    7e4e:	84 91       	lpm	r24, Z
    7e50:	81 11       	cpse	r24, r1
    7e52:	24 c0       	rjmp	.+72     	; 0x7e9c <vfprintf+0x6f4>
    7e54:	55 20       	and	r5, r5
    7e56:	09 f4       	brne	.+2      	; 0x7e5a <vfprintf+0x6b2>
    7e58:	e4 cc       	rjmp	.-1592   	; 0x7822 <vfprintf+0x7a>
    7e5a:	b7 01       	movw	r22, r14
    7e5c:	80 e2       	ldi	r24, 0x20	; 32
    7e5e:	90 e0       	ldi	r25, 0x00	; 0
    7e60:	0e 94 b3 41 	call	0x8366	; 0x8366 <fputc>
    7e64:	5a 94       	dec	r5
    7e66:	f6 cf       	rjmp	.-20     	; 0x7e54 <vfprintf+0x6ac>
    7e68:	f7 01       	movw	r30, r14
    7e6a:	86 81       	ldd	r24, Z+6	; 0x06
    7e6c:	97 81       	ldd	r25, Z+7	; 0x07
    7e6e:	26 c0       	rjmp	.+76     	; 0x7ebc <vfprintf+0x714>
    7e70:	8f ef       	ldi	r24, 0xFF	; 255
    7e72:	9f ef       	ldi	r25, 0xFF	; 255
    7e74:	23 c0       	rjmp	.+70     	; 0x7ebc <vfprintf+0x714>
    7e76:	b7 01       	movw	r22, r14
    7e78:	80 e2       	ldi	r24, 0x20	; 32
    7e7a:	90 e0       	ldi	r25, 0x00	; 0
    7e7c:	0e 94 b3 41 	call	0x8366	; 0x8366 <fputc>
    7e80:	5a 94       	dec	r5
    7e82:	51 10       	cpse	r5, r1
    7e84:	f8 cf       	rjmp	.-16     	; 0x7e76 <vfprintf+0x6ce>
    7e86:	d8 cf       	rjmp	.-80     	; 0x7e38 <vfprintf+0x690>
    7e88:	51 2c       	mov	r5, r1
    7e8a:	b7 01       	movw	r22, r14
    7e8c:	80 2f       	mov	r24, r16
    7e8e:	90 e0       	ldi	r25, 0x00	; 0
    7e90:	0e 94 b3 41 	call	0x8366	; 0x8366 <fputc>
    7e94:	d3 cf       	rjmp	.-90     	; 0x7e3c <vfprintf+0x694>
    7e96:	06 ec       	ldi	r16, 0xC6	; 198
    7e98:	12 e0       	ldi	r17, 0x02	; 2
    7e9a:	d5 cf       	rjmp	.-86     	; 0x7e46 <vfprintf+0x69e>
    7e9c:	91 10       	cpse	r9, r1
    7e9e:	80 52       	subi	r24, 0x20	; 32
    7ea0:	b7 01       	movw	r22, r14
    7ea2:	90 e0       	ldi	r25, 0x00	; 0
    7ea4:	0e 94 b3 41 	call	0x8366	; 0x8366 <fputc>
    7ea8:	0f 5f       	subi	r16, 0xFF	; 255
    7eaa:	1f 4f       	sbci	r17, 0xFF	; 255
    7eac:	cf cf       	rjmp	.-98     	; 0x7e4c <vfprintf+0x6a4>
    7eae:	23 e0       	ldi	r18, 0x03	; 3
    7eb0:	25 15       	cp	r18, r5
    7eb2:	10 f4       	brcc	.+4      	; 0x7eb8 <vfprintf+0x710>
    7eb4:	83 e0       	ldi	r24, 0x03	; 3
    7eb6:	bd cf       	rjmp	.-134    	; 0x7e32 <vfprintf+0x68a>
    7eb8:	51 2c       	mov	r5, r1
    7eba:	c0 cf       	rjmp	.-128    	; 0x7e3c <vfprintf+0x694>
    7ebc:	60 96       	adiw	r28, 0x10	; 16
    7ebe:	cd bf       	out	0x3d, r28	; 61
    7ec0:	de bf       	out	0x3e, r29	; 62
    7ec2:	df 91       	pop	r29
    7ec4:	cf 91       	pop	r28
    7ec6:	1f 91       	pop	r17
    7ec8:	0f 91       	pop	r16
    7eca:	ff 90       	pop	r15
    7ecc:	ef 90       	pop	r14
    7ece:	df 90       	pop	r13
    7ed0:	cf 90       	pop	r12
    7ed2:	bf 90       	pop	r11
    7ed4:	af 90       	pop	r10
    7ed6:	9f 90       	pop	r9
    7ed8:	8f 90       	pop	r8
    7eda:	7f 90       	pop	r7
    7edc:	6f 90       	pop	r6
    7ede:	5f 90       	pop	r5
    7ee0:	4f 90       	pop	r4
    7ee2:	3f 90       	pop	r3
    7ee4:	2f 90       	pop	r2
    7ee6:	08 95       	ret

00007ee8 <__udivmodsi4>:
    7ee8:	a1 e2       	ldi	r26, 0x21	; 33
    7eea:	1a 2e       	mov	r1, r26
    7eec:	aa 1b       	sub	r26, r26
    7eee:	bb 1b       	sub	r27, r27
    7ef0:	fd 01       	movw	r30, r26
    7ef2:	0d c0       	rjmp	.+26     	; 0x7f0e <__udivmodsi4_ep>

00007ef4 <__udivmodsi4_loop>:
    7ef4:	aa 1f       	adc	r26, r26
    7ef6:	bb 1f       	adc	r27, r27
    7ef8:	ee 1f       	adc	r30, r30
    7efa:	ff 1f       	adc	r31, r31
    7efc:	a2 17       	cp	r26, r18
    7efe:	b3 07       	cpc	r27, r19
    7f00:	e4 07       	cpc	r30, r20
    7f02:	f5 07       	cpc	r31, r21
    7f04:	20 f0       	brcs	.+8      	; 0x7f0e <__udivmodsi4_ep>
    7f06:	a2 1b       	sub	r26, r18
    7f08:	b3 0b       	sbc	r27, r19
    7f0a:	e4 0b       	sbc	r30, r20
    7f0c:	f5 0b       	sbc	r31, r21

00007f0e <__udivmodsi4_ep>:
    7f0e:	66 1f       	adc	r22, r22
    7f10:	77 1f       	adc	r23, r23
    7f12:	88 1f       	adc	r24, r24
    7f14:	99 1f       	adc	r25, r25
    7f16:	1a 94       	dec	r1
    7f18:	69 f7       	brne	.-38     	; 0x7ef4 <__udivmodsi4_loop>
    7f1a:	60 95       	com	r22
    7f1c:	70 95       	com	r23
    7f1e:	80 95       	com	r24
    7f20:	90 95       	com	r25
    7f22:	9b 01       	movw	r18, r22
    7f24:	ac 01       	movw	r20, r24
    7f26:	bd 01       	movw	r22, r26
    7f28:	cf 01       	movw	r24, r30
    7f2a:	08 95       	ret

00007f2c <__tablejump2__>:
    7f2c:	ee 0f       	add	r30, r30
    7f2e:	ff 1f       	adc	r31, r31
    7f30:	88 1f       	adc	r24, r24
    7f32:	8b bf       	out	0x3b, r24	; 59
    7f34:	07 90       	elpm	r0, Z+
    7f36:	f6 91       	elpm	r31, Z
    7f38:	e0 2d       	mov	r30, r0
    7f3a:	19 94       	eijmp

00007f3c <__muldi3>:
    7f3c:	df 93       	push	r29
    7f3e:	cf 93       	push	r28
    7f40:	1f 93       	push	r17
    7f42:	0f 93       	push	r16
    7f44:	9a 9d       	mul	r25, r10
    7f46:	f0 2d       	mov	r31, r0
    7f48:	21 9f       	mul	r18, r17
    7f4a:	f0 0d       	add	r31, r0
    7f4c:	8b 9d       	mul	r24, r11
    7f4e:	f0 0d       	add	r31, r0
    7f50:	8a 9d       	mul	r24, r10
    7f52:	e0 2d       	mov	r30, r0
    7f54:	f1 0d       	add	r31, r1
    7f56:	03 9f       	mul	r16, r19
    7f58:	f0 0d       	add	r31, r0
    7f5a:	02 9f       	mul	r16, r18
    7f5c:	e0 0d       	add	r30, r0
    7f5e:	f1 1d       	adc	r31, r1
    7f60:	4e 9d       	mul	r20, r14
    7f62:	e0 0d       	add	r30, r0
    7f64:	f1 1d       	adc	r31, r1
    7f66:	5e 9d       	mul	r21, r14
    7f68:	f0 0d       	add	r31, r0
    7f6a:	4f 9d       	mul	r20, r15
    7f6c:	f0 0d       	add	r31, r0
    7f6e:	7f 93       	push	r23
    7f70:	6f 93       	push	r22
    7f72:	bf 92       	push	r11
    7f74:	af 92       	push	r10
    7f76:	5f 93       	push	r21
    7f78:	4f 93       	push	r20
    7f7a:	d5 01       	movw	r26, r10
    7f7c:	0e 94 71 40 	call	0x80e2	; 0x80e2 <__umulhisi3>
    7f80:	8b 01       	movw	r16, r22
    7f82:	ac 01       	movw	r20, r24
    7f84:	d7 01       	movw	r26, r14
    7f86:	0e 94 71 40 	call	0x80e2	; 0x80e2 <__umulhisi3>
    7f8a:	eb 01       	movw	r28, r22
    7f8c:	e8 0f       	add	r30, r24
    7f8e:	f9 1f       	adc	r31, r25
    7f90:	d6 01       	movw	r26, r12
    7f92:	0e 94 ee 3f 	call	0x7fdc	; 0x7fdc <__muldi3_6>
    7f96:	2f 91       	pop	r18
    7f98:	3f 91       	pop	r19
    7f9a:	d6 01       	movw	r26, r12
    7f9c:	0e 94 71 40 	call	0x80e2	; 0x80e2 <__umulhisi3>
    7fa0:	c6 0f       	add	r28, r22
    7fa2:	d7 1f       	adc	r29, r23
    7fa4:	e8 1f       	adc	r30, r24
    7fa6:	f9 1f       	adc	r31, r25
    7fa8:	af 91       	pop	r26
    7faa:	bf 91       	pop	r27
    7fac:	0e 94 ee 3f 	call	0x7fdc	; 0x7fdc <__muldi3_6>
    7fb0:	2f 91       	pop	r18
    7fb2:	3f 91       	pop	r19
    7fb4:	0e 94 71 40 	call	0x80e2	; 0x80e2 <__umulhisi3>
    7fb8:	c6 0f       	add	r28, r22
    7fba:	d7 1f       	adc	r29, r23
    7fbc:	e8 1f       	adc	r30, r24
    7fbe:	f9 1f       	adc	r31, r25
    7fc0:	d6 01       	movw	r26, r12
    7fc2:	0e 94 71 40 	call	0x80e2	; 0x80e2 <__umulhisi3>
    7fc6:	e6 0f       	add	r30, r22
    7fc8:	f7 1f       	adc	r31, r23
    7fca:	98 01       	movw	r18, r16
    7fcc:	be 01       	movw	r22, r28
    7fce:	cf 01       	movw	r24, r30
    7fd0:	11 24       	eor	r1, r1
    7fd2:	0f 91       	pop	r16
    7fd4:	1f 91       	pop	r17
    7fd6:	cf 91       	pop	r28
    7fd8:	df 91       	pop	r29
    7fda:	08 95       	ret

00007fdc <__muldi3_6>:
    7fdc:	0e 94 71 40 	call	0x80e2	; 0x80e2 <__umulhisi3>
    7fe0:	46 0f       	add	r20, r22
    7fe2:	57 1f       	adc	r21, r23
    7fe4:	c8 1f       	adc	r28, r24
    7fe6:	d9 1f       	adc	r29, r25
    7fe8:	08 f4       	brcc	.+2      	; 0x7fec <__muldi3_6+0x10>
    7fea:	31 96       	adiw	r30, 0x01	; 1
    7fec:	08 95       	ret

00007fee <__negdi2>:
    7fee:	60 95       	com	r22
    7ff0:	70 95       	com	r23
    7ff2:	80 95       	com	r24
    7ff4:	90 95       	com	r25
    7ff6:	30 95       	com	r19
    7ff8:	40 95       	com	r20
    7ffa:	50 95       	com	r21
    7ffc:	21 95       	neg	r18
    7ffe:	3f 4f       	sbci	r19, 0xFF	; 255
    8000:	4f 4f       	sbci	r20, 0xFF	; 255
    8002:	5f 4f       	sbci	r21, 0xFF	; 255
    8004:	6f 4f       	sbci	r22, 0xFF	; 255
    8006:	7f 4f       	sbci	r23, 0xFF	; 255
    8008:	8f 4f       	sbci	r24, 0xFF	; 255
    800a:	9f 4f       	sbci	r25, 0xFF	; 255
    800c:	08 95       	ret

0000800e <__ashldi3>:
    800e:	0f 93       	push	r16
    8010:	08 30       	cpi	r16, 0x08	; 8
    8012:	90 f0       	brcs	.+36     	; 0x8038 <__ashldi3+0x2a>
    8014:	98 2f       	mov	r25, r24
    8016:	87 2f       	mov	r24, r23
    8018:	76 2f       	mov	r23, r22
    801a:	65 2f       	mov	r22, r21
    801c:	54 2f       	mov	r21, r20
    801e:	43 2f       	mov	r20, r19
    8020:	32 2f       	mov	r19, r18
    8022:	22 27       	eor	r18, r18
    8024:	08 50       	subi	r16, 0x08	; 8
    8026:	f4 cf       	rjmp	.-24     	; 0x8010 <__ashldi3+0x2>
    8028:	22 0f       	add	r18, r18
    802a:	33 1f       	adc	r19, r19
    802c:	44 1f       	adc	r20, r20
    802e:	55 1f       	adc	r21, r21
    8030:	66 1f       	adc	r22, r22
    8032:	77 1f       	adc	r23, r23
    8034:	88 1f       	adc	r24, r24
    8036:	99 1f       	adc	r25, r25
    8038:	0a 95       	dec	r16
    803a:	b2 f7       	brpl	.-20     	; 0x8028 <__ashldi3+0x1a>
    803c:	0f 91       	pop	r16
    803e:	08 95       	ret

00008040 <__ashrdi3>:
    8040:	97 fb       	bst	r25, 7
    8042:	10 f8       	bld	r1, 0

00008044 <__lshrdi3>:
    8044:	16 94       	lsr	r1
    8046:	00 08       	sbc	r0, r0
    8048:	0f 93       	push	r16
    804a:	08 30       	cpi	r16, 0x08	; 8
    804c:	98 f0       	brcs	.+38     	; 0x8074 <__lshrdi3+0x30>
    804e:	08 50       	subi	r16, 0x08	; 8
    8050:	23 2f       	mov	r18, r19
    8052:	34 2f       	mov	r19, r20
    8054:	45 2f       	mov	r20, r21
    8056:	56 2f       	mov	r21, r22
    8058:	67 2f       	mov	r22, r23
    805a:	78 2f       	mov	r23, r24
    805c:	89 2f       	mov	r24, r25
    805e:	90 2d       	mov	r25, r0
    8060:	f4 cf       	rjmp	.-24     	; 0x804a <__lshrdi3+0x6>
    8062:	05 94       	asr	r0
    8064:	97 95       	ror	r25
    8066:	87 95       	ror	r24
    8068:	77 95       	ror	r23
    806a:	67 95       	ror	r22
    806c:	57 95       	ror	r21
    806e:	47 95       	ror	r20
    8070:	37 95       	ror	r19
    8072:	27 95       	ror	r18
    8074:	0a 95       	dec	r16
    8076:	aa f7       	brpl	.-22     	; 0x8062 <__lshrdi3+0x1e>
    8078:	0f 91       	pop	r16
    807a:	08 95       	ret

0000807c <__adddi3>:
    807c:	2a 0d       	add	r18, r10
    807e:	3b 1d       	adc	r19, r11
    8080:	4c 1d       	adc	r20, r12
    8082:	5d 1d       	adc	r21, r13
    8084:	6e 1d       	adc	r22, r14
    8086:	7f 1d       	adc	r23, r15
    8088:	80 1f       	adc	r24, r16
    808a:	91 1f       	adc	r25, r17
    808c:	08 95       	ret

0000808e <__adddi3_s8>:
    808e:	00 24       	eor	r0, r0
    8090:	a7 fd       	sbrc	r26, 7
    8092:	00 94       	com	r0
    8094:	2a 0f       	add	r18, r26
    8096:	30 1d       	adc	r19, r0
    8098:	40 1d       	adc	r20, r0
    809a:	50 1d       	adc	r21, r0
    809c:	60 1d       	adc	r22, r0
    809e:	70 1d       	adc	r23, r0
    80a0:	80 1d       	adc	r24, r0
    80a2:	90 1d       	adc	r25, r0
    80a4:	08 95       	ret

000080a6 <__subdi3>:
    80a6:	2a 19       	sub	r18, r10
    80a8:	3b 09       	sbc	r19, r11
    80aa:	4c 09       	sbc	r20, r12
    80ac:	5d 09       	sbc	r21, r13
    80ae:	6e 09       	sbc	r22, r14
    80b0:	7f 09       	sbc	r23, r15
    80b2:	80 0b       	sbc	r24, r16
    80b4:	91 0b       	sbc	r25, r17
    80b6:	08 95       	ret

000080b8 <__cmpdi2>:
    80b8:	2a 15       	cp	r18, r10
    80ba:	3b 05       	cpc	r19, r11
    80bc:	4c 05       	cpc	r20, r12
    80be:	5d 05       	cpc	r21, r13
    80c0:	6e 05       	cpc	r22, r14
    80c2:	7f 05       	cpc	r23, r15
    80c4:	80 07       	cpc	r24, r16
    80c6:	91 07       	cpc	r25, r17
    80c8:	08 95       	ret

000080ca <__cmpdi2_s8>:
    80ca:	00 24       	eor	r0, r0
    80cc:	a7 fd       	sbrc	r26, 7
    80ce:	00 94       	com	r0
    80d0:	2a 17       	cp	r18, r26
    80d2:	30 05       	cpc	r19, r0
    80d4:	40 05       	cpc	r20, r0
    80d6:	50 05       	cpc	r21, r0
    80d8:	60 05       	cpc	r22, r0
    80da:	70 05       	cpc	r23, r0
    80dc:	80 05       	cpc	r24, r0
    80de:	90 05       	cpc	r25, r0
    80e0:	08 95       	ret

000080e2 <__umulhisi3>:
    80e2:	a2 9f       	mul	r26, r18
    80e4:	b0 01       	movw	r22, r0
    80e6:	b3 9f       	mul	r27, r19
    80e8:	c0 01       	movw	r24, r0
    80ea:	a3 9f       	mul	r26, r19
    80ec:	70 0d       	add	r23, r0
    80ee:	81 1d       	adc	r24, r1
    80f0:	11 24       	eor	r1, r1
    80f2:	91 1d       	adc	r25, r1
    80f4:	b2 9f       	mul	r27, r18
    80f6:	70 0d       	add	r23, r0
    80f8:	81 1d       	adc	r24, r1
    80fa:	11 24       	eor	r1, r1
    80fc:	91 1d       	adc	r25, r1
    80fe:	08 95       	ret

00008100 <__ftoa_engine>:
    8100:	28 30       	cpi	r18, 0x08	; 8
    8102:	08 f0       	brcs	.+2      	; 0x8106 <__ftoa_engine+0x6>
    8104:	27 e0       	ldi	r18, 0x07	; 7
    8106:	33 27       	eor	r19, r19
    8108:	da 01       	movw	r26, r20
    810a:	99 0f       	add	r25, r25
    810c:	31 1d       	adc	r19, r1
    810e:	87 fd       	sbrc	r24, 7
    8110:	91 60       	ori	r25, 0x01	; 1
    8112:	00 96       	adiw	r24, 0x00	; 0
    8114:	61 05       	cpc	r22, r1
    8116:	71 05       	cpc	r23, r1
    8118:	39 f4       	brne	.+14     	; 0x8128 <__ftoa_engine+0x28>
    811a:	32 60       	ori	r19, 0x02	; 2
    811c:	2e 5f       	subi	r18, 0xFE	; 254
    811e:	3d 93       	st	X+, r19
    8120:	30 e3       	ldi	r19, 0x30	; 48
    8122:	2a 95       	dec	r18
    8124:	e1 f7       	brne	.-8      	; 0x811e <__ftoa_engine+0x1e>
    8126:	08 95       	ret
    8128:	9f 3f       	cpi	r25, 0xFF	; 255
    812a:	30 f0       	brcs	.+12     	; 0x8138 <__ftoa_engine+0x38>
    812c:	80 38       	cpi	r24, 0x80	; 128
    812e:	71 05       	cpc	r23, r1
    8130:	61 05       	cpc	r22, r1
    8132:	09 f0       	breq	.+2      	; 0x8136 <__ftoa_engine+0x36>
    8134:	3c 5f       	subi	r19, 0xFC	; 252
    8136:	3c 5f       	subi	r19, 0xFC	; 252
    8138:	3d 93       	st	X+, r19
    813a:	91 30       	cpi	r25, 0x01	; 1
    813c:	08 f0       	brcs	.+2      	; 0x8140 <__ftoa_engine+0x40>
    813e:	80 68       	ori	r24, 0x80	; 128
    8140:	91 1d       	adc	r25, r1
    8142:	df 93       	push	r29
    8144:	cf 93       	push	r28
    8146:	1f 93       	push	r17
    8148:	0f 93       	push	r16
    814a:	ff 92       	push	r15
    814c:	ef 92       	push	r14
    814e:	19 2f       	mov	r17, r25
    8150:	98 7f       	andi	r25, 0xF8	; 248
    8152:	96 95       	lsr	r25
    8154:	e9 2f       	mov	r30, r25
    8156:	96 95       	lsr	r25
    8158:	96 95       	lsr	r25
    815a:	e9 0f       	add	r30, r25
    815c:	ff 27       	eor	r31, r31
    815e:	ec 5d       	subi	r30, 0xDC	; 220
    8160:	fc 4f       	sbci	r31, 0xFC	; 252
    8162:	99 27       	eor	r25, r25
    8164:	33 27       	eor	r19, r19
    8166:	ee 24       	eor	r14, r14
    8168:	ff 24       	eor	r15, r15
    816a:	a7 01       	movw	r20, r14
    816c:	e7 01       	movw	r28, r14
    816e:	05 90       	lpm	r0, Z+
    8170:	08 94       	sec
    8172:	07 94       	ror	r0
    8174:	28 f4       	brcc	.+10     	; 0x8180 <__ftoa_engine+0x80>
    8176:	36 0f       	add	r19, r22
    8178:	e7 1e       	adc	r14, r23
    817a:	f8 1e       	adc	r15, r24
    817c:	49 1f       	adc	r20, r25
    817e:	51 1d       	adc	r21, r1
    8180:	66 0f       	add	r22, r22
    8182:	77 1f       	adc	r23, r23
    8184:	88 1f       	adc	r24, r24
    8186:	99 1f       	adc	r25, r25
    8188:	06 94       	lsr	r0
    818a:	a1 f7       	brne	.-24     	; 0x8174 <__ftoa_engine+0x74>
    818c:	05 90       	lpm	r0, Z+
    818e:	07 94       	ror	r0
    8190:	28 f4       	brcc	.+10     	; 0x819c <__ftoa_engine+0x9c>
    8192:	e7 0e       	add	r14, r23
    8194:	f8 1e       	adc	r15, r24
    8196:	49 1f       	adc	r20, r25
    8198:	56 1f       	adc	r21, r22
    819a:	c1 1d       	adc	r28, r1
    819c:	77 0f       	add	r23, r23
    819e:	88 1f       	adc	r24, r24
    81a0:	99 1f       	adc	r25, r25
    81a2:	66 1f       	adc	r22, r22
    81a4:	06 94       	lsr	r0
    81a6:	a1 f7       	brne	.-24     	; 0x8190 <__ftoa_engine+0x90>
    81a8:	05 90       	lpm	r0, Z+
    81aa:	07 94       	ror	r0
    81ac:	28 f4       	brcc	.+10     	; 0x81b8 <__ftoa_engine+0xb8>
    81ae:	f8 0e       	add	r15, r24
    81b0:	49 1f       	adc	r20, r25
    81b2:	56 1f       	adc	r21, r22
    81b4:	c7 1f       	adc	r28, r23
    81b6:	d1 1d       	adc	r29, r1
    81b8:	88 0f       	add	r24, r24
    81ba:	99 1f       	adc	r25, r25
    81bc:	66 1f       	adc	r22, r22
    81be:	77 1f       	adc	r23, r23
    81c0:	06 94       	lsr	r0
    81c2:	a1 f7       	brne	.-24     	; 0x81ac <__ftoa_engine+0xac>
    81c4:	05 90       	lpm	r0, Z+
    81c6:	07 94       	ror	r0
    81c8:	20 f4       	brcc	.+8      	; 0x81d2 <__ftoa_engine+0xd2>
    81ca:	49 0f       	add	r20, r25
    81cc:	56 1f       	adc	r21, r22
    81ce:	c7 1f       	adc	r28, r23
    81d0:	d8 1f       	adc	r29, r24
    81d2:	99 0f       	add	r25, r25
    81d4:	66 1f       	adc	r22, r22
    81d6:	77 1f       	adc	r23, r23
    81d8:	88 1f       	adc	r24, r24
    81da:	06 94       	lsr	r0
    81dc:	a9 f7       	brne	.-22     	; 0x81c8 <__ftoa_engine+0xc8>
    81de:	84 91       	lpm	r24, Z
    81e0:	10 95       	com	r17
    81e2:	17 70       	andi	r17, 0x07	; 7
    81e4:	41 f0       	breq	.+16     	; 0x81f6 <__ftoa_engine+0xf6>
    81e6:	d6 95       	lsr	r29
    81e8:	c7 95       	ror	r28
    81ea:	57 95       	ror	r21
    81ec:	47 95       	ror	r20
    81ee:	f7 94       	ror	r15
    81f0:	e7 94       	ror	r14
    81f2:	1a 95       	dec	r17
    81f4:	c1 f7       	brne	.-16     	; 0x81e6 <__ftoa_engine+0xe6>
    81f6:	ea ec       	ldi	r30, 0xCA	; 202
    81f8:	f2 e0       	ldi	r31, 0x02	; 2
    81fa:	68 94       	set
    81fc:	15 90       	lpm	r1, Z+
    81fe:	15 91       	lpm	r17, Z+
    8200:	35 91       	lpm	r19, Z+
    8202:	65 91       	lpm	r22, Z+
    8204:	95 91       	lpm	r25, Z+
    8206:	05 90       	lpm	r0, Z+
    8208:	7f e2       	ldi	r23, 0x2F	; 47
    820a:	73 95       	inc	r23
    820c:	e1 18       	sub	r14, r1
    820e:	f1 0a       	sbc	r15, r17
    8210:	43 0b       	sbc	r20, r19
    8212:	56 0b       	sbc	r21, r22
    8214:	c9 0b       	sbc	r28, r25
    8216:	d0 09       	sbc	r29, r0
    8218:	c0 f7       	brcc	.-16     	; 0x820a <__ftoa_engine+0x10a>
    821a:	e1 0c       	add	r14, r1
    821c:	f1 1e       	adc	r15, r17
    821e:	43 1f       	adc	r20, r19
    8220:	56 1f       	adc	r21, r22
    8222:	c9 1f       	adc	r28, r25
    8224:	d0 1d       	adc	r29, r0
    8226:	7e f4       	brtc	.+30     	; 0x8246 <__ftoa_engine+0x146>
    8228:	70 33       	cpi	r23, 0x30	; 48
    822a:	11 f4       	brne	.+4      	; 0x8230 <__ftoa_engine+0x130>
    822c:	8a 95       	dec	r24
    822e:	e6 cf       	rjmp	.-52     	; 0x81fc <__ftoa_engine+0xfc>
    8230:	e8 94       	clt
    8232:	01 50       	subi	r16, 0x01	; 1
    8234:	30 f0       	brcs	.+12     	; 0x8242 <__ftoa_engine+0x142>
    8236:	08 0f       	add	r16, r24
    8238:	0a f4       	brpl	.+2      	; 0x823c <__ftoa_engine+0x13c>
    823a:	00 27       	eor	r16, r16
    823c:	02 17       	cp	r16, r18
    823e:	08 f4       	brcc	.+2      	; 0x8242 <__ftoa_engine+0x142>
    8240:	20 2f       	mov	r18, r16
    8242:	23 95       	inc	r18
    8244:	02 2f       	mov	r16, r18
    8246:	7a 33       	cpi	r23, 0x3A	; 58
    8248:	28 f0       	brcs	.+10     	; 0x8254 <__ftoa_engine+0x154>
    824a:	79 e3       	ldi	r23, 0x39	; 57
    824c:	7d 93       	st	X+, r23
    824e:	2a 95       	dec	r18
    8250:	e9 f7       	brne	.-6      	; 0x824c <__ftoa_engine+0x14c>
    8252:	10 c0       	rjmp	.+32     	; 0x8274 <__ftoa_engine+0x174>
    8254:	7d 93       	st	X+, r23
    8256:	2a 95       	dec	r18
    8258:	89 f6       	brne	.-94     	; 0x81fc <__ftoa_engine+0xfc>
    825a:	06 94       	lsr	r0
    825c:	97 95       	ror	r25
    825e:	67 95       	ror	r22
    8260:	37 95       	ror	r19
    8262:	17 95       	ror	r17
    8264:	17 94       	ror	r1
    8266:	e1 18       	sub	r14, r1
    8268:	f1 0a       	sbc	r15, r17
    826a:	43 0b       	sbc	r20, r19
    826c:	56 0b       	sbc	r21, r22
    826e:	c9 0b       	sbc	r28, r25
    8270:	d0 09       	sbc	r29, r0
    8272:	98 f0       	brcs	.+38     	; 0x829a <__ftoa_engine+0x19a>
    8274:	23 95       	inc	r18
    8276:	7e 91       	ld	r23, -X
    8278:	73 95       	inc	r23
    827a:	7a 33       	cpi	r23, 0x3A	; 58
    827c:	08 f0       	brcs	.+2      	; 0x8280 <__ftoa_engine+0x180>
    827e:	70 e3       	ldi	r23, 0x30	; 48
    8280:	7c 93       	st	X, r23
    8282:	20 13       	cpse	r18, r16
    8284:	b8 f7       	brcc	.-18     	; 0x8274 <__ftoa_engine+0x174>
    8286:	7e 91       	ld	r23, -X
    8288:	70 61       	ori	r23, 0x10	; 16
    828a:	7d 93       	st	X+, r23
    828c:	30 f0       	brcs	.+12     	; 0x829a <__ftoa_engine+0x19a>
    828e:	83 95       	inc	r24
    8290:	71 e3       	ldi	r23, 0x31	; 49
    8292:	7d 93       	st	X+, r23
    8294:	70 e3       	ldi	r23, 0x30	; 48
    8296:	2a 95       	dec	r18
    8298:	e1 f7       	brne	.-8      	; 0x8292 <__ftoa_engine+0x192>
    829a:	11 24       	eor	r1, r1
    829c:	ef 90       	pop	r14
    829e:	ff 90       	pop	r15
    82a0:	0f 91       	pop	r16
    82a2:	1f 91       	pop	r17
    82a4:	cf 91       	pop	r28
    82a6:	df 91       	pop	r29
    82a8:	99 27       	eor	r25, r25
    82aa:	87 fd       	sbrc	r24, 7
    82ac:	90 95       	com	r25
    82ae:	08 95       	ret

000082b0 <strnlen_P>:
    82b0:	fc 01       	movw	r30, r24
    82b2:	05 90       	lpm	r0, Z+
    82b4:	61 50       	subi	r22, 0x01	; 1
    82b6:	70 40       	sbci	r23, 0x00	; 0
    82b8:	01 10       	cpse	r0, r1
    82ba:	d8 f7       	brcc	.-10     	; 0x82b2 <strnlen_P+0x2>
    82bc:	80 95       	com	r24
    82be:	90 95       	com	r25
    82c0:	8e 0f       	add	r24, r30
    82c2:	9f 1f       	adc	r25, r31
    82c4:	08 95       	ret

000082c6 <memcpy>:
    82c6:	fb 01       	movw	r30, r22
    82c8:	dc 01       	movw	r26, r24
    82ca:	02 c0       	rjmp	.+4      	; 0x82d0 <memcpy+0xa>
    82cc:	01 90       	ld	r0, Z+
    82ce:	0d 92       	st	X+, r0
    82d0:	41 50       	subi	r20, 0x01	; 1
    82d2:	50 40       	sbci	r21, 0x00	; 0
    82d4:	d8 f7       	brcc	.-10     	; 0x82cc <memcpy+0x6>
    82d6:	08 95       	ret

000082d8 <memset>:
    82d8:	dc 01       	movw	r26, r24
    82da:	01 c0       	rjmp	.+2      	; 0x82de <memset+0x6>
    82dc:	6d 93       	st	X+, r22
    82de:	41 50       	subi	r20, 0x01	; 1
    82e0:	50 40       	sbci	r21, 0x00	; 0
    82e2:	e0 f7       	brcc	.-8      	; 0x82dc <memset+0x4>
    82e4:	08 95       	ret

000082e6 <strcmp>:
    82e6:	fb 01       	movw	r30, r22
    82e8:	dc 01       	movw	r26, r24
    82ea:	8d 91       	ld	r24, X+
    82ec:	01 90       	ld	r0, Z+
    82ee:	80 19       	sub	r24, r0
    82f0:	01 10       	cpse	r0, r1
    82f2:	d9 f3       	breq	.-10     	; 0x82ea <strcmp+0x4>
    82f4:	99 0b       	sbc	r25, r25
    82f6:	08 95       	ret

000082f8 <strcpy>:
    82f8:	fb 01       	movw	r30, r22
    82fa:	dc 01       	movw	r26, r24
    82fc:	01 90       	ld	r0, Z+
    82fe:	0d 92       	st	X+, r0
    8300:	00 20       	and	r0, r0
    8302:	e1 f7       	brne	.-8      	; 0x82fc <strcpy+0x4>
    8304:	08 95       	ret

00008306 <strnlen>:
    8306:	fc 01       	movw	r30, r24
    8308:	61 50       	subi	r22, 0x01	; 1
    830a:	70 40       	sbci	r23, 0x00	; 0
    830c:	01 90       	ld	r0, Z+
    830e:	01 10       	cpse	r0, r1
    8310:	d8 f7       	brcc	.-10     	; 0x8308 <strnlen+0x2>
    8312:	80 95       	com	r24
    8314:	90 95       	com	r25
    8316:	8e 0f       	add	r24, r30
    8318:	9f 1f       	adc	r25, r31
    831a:	08 95       	ret

0000831c <__itoa_ncheck>:
    831c:	bb 27       	eor	r27, r27
    831e:	4a 30       	cpi	r20, 0x0A	; 10
    8320:	31 f4       	brne	.+12     	; 0x832e <__itoa_ncheck+0x12>
    8322:	99 23       	and	r25, r25
    8324:	22 f4       	brpl	.+8      	; 0x832e <__itoa_ncheck+0x12>
    8326:	bd e2       	ldi	r27, 0x2D	; 45
    8328:	90 95       	com	r25
    832a:	81 95       	neg	r24
    832c:	9f 4f       	sbci	r25, 0xFF	; 255
    832e:	0c 94 9a 41 	jmp	0x8334	; 0x8334 <__utoa_common>

00008332 <__utoa_ncheck>:
    8332:	bb 27       	eor	r27, r27

00008334 <__utoa_common>:
    8334:	fb 01       	movw	r30, r22
    8336:	55 27       	eor	r21, r21
    8338:	aa 27       	eor	r26, r26
    833a:	88 0f       	add	r24, r24
    833c:	99 1f       	adc	r25, r25
    833e:	aa 1f       	adc	r26, r26
    8340:	a4 17       	cp	r26, r20
    8342:	10 f0       	brcs	.+4      	; 0x8348 <__utoa_common+0x14>
    8344:	a4 1b       	sub	r26, r20
    8346:	83 95       	inc	r24
    8348:	50 51       	subi	r21, 0x10	; 16
    834a:	b9 f7       	brne	.-18     	; 0x833a <__utoa_common+0x6>
    834c:	a0 5d       	subi	r26, 0xD0	; 208
    834e:	aa 33       	cpi	r26, 0x3A	; 58
    8350:	08 f0       	brcs	.+2      	; 0x8354 <__utoa_common+0x20>
    8352:	a9 5d       	subi	r26, 0xD9	; 217
    8354:	a1 93       	st	Z+, r26
    8356:	00 97       	sbiw	r24, 0x00	; 0
    8358:	79 f7       	brne	.-34     	; 0x8338 <__utoa_common+0x4>
    835a:	b1 11       	cpse	r27, r1
    835c:	b1 93       	st	Z+, r27
    835e:	11 92       	st	Z+, r1
    8360:	cb 01       	movw	r24, r22
    8362:	0c 94 76 42 	jmp	0x84ec	; 0x84ec <strrev>

00008366 <fputc>:
    8366:	0f 93       	push	r16
    8368:	1f 93       	push	r17
    836a:	cf 93       	push	r28
    836c:	df 93       	push	r29
    836e:	fb 01       	movw	r30, r22
    8370:	23 81       	ldd	r18, Z+3	; 0x03
    8372:	21 fd       	sbrc	r18, 1
    8374:	03 c0       	rjmp	.+6      	; 0x837c <fputc+0x16>
    8376:	8f ef       	ldi	r24, 0xFF	; 255
    8378:	9f ef       	ldi	r25, 0xFF	; 255
    837a:	2c c0       	rjmp	.+88     	; 0x83d4 <fputc+0x6e>
    837c:	22 ff       	sbrs	r18, 2
    837e:	16 c0       	rjmp	.+44     	; 0x83ac <fputc+0x46>
    8380:	46 81       	ldd	r20, Z+6	; 0x06
    8382:	57 81       	ldd	r21, Z+7	; 0x07
    8384:	24 81       	ldd	r18, Z+4	; 0x04
    8386:	35 81       	ldd	r19, Z+5	; 0x05
    8388:	42 17       	cp	r20, r18
    838a:	53 07       	cpc	r21, r19
    838c:	44 f4       	brge	.+16     	; 0x839e <fputc+0x38>
    838e:	a0 81       	ld	r26, Z
    8390:	b1 81       	ldd	r27, Z+1	; 0x01
    8392:	9d 01       	movw	r18, r26
    8394:	2f 5f       	subi	r18, 0xFF	; 255
    8396:	3f 4f       	sbci	r19, 0xFF	; 255
    8398:	20 83       	st	Z, r18
    839a:	31 83       	std	Z+1, r19	; 0x01
    839c:	8c 93       	st	X, r24
    839e:	26 81       	ldd	r18, Z+6	; 0x06
    83a0:	37 81       	ldd	r19, Z+7	; 0x07
    83a2:	2f 5f       	subi	r18, 0xFF	; 255
    83a4:	3f 4f       	sbci	r19, 0xFF	; 255
    83a6:	26 83       	std	Z+6, r18	; 0x06
    83a8:	37 83       	std	Z+7, r19	; 0x07
    83aa:	14 c0       	rjmp	.+40     	; 0x83d4 <fputc+0x6e>
    83ac:	8b 01       	movw	r16, r22
    83ae:	ec 01       	movw	r28, r24
    83b0:	fb 01       	movw	r30, r22
    83b2:	00 84       	ldd	r0, Z+8	; 0x08
    83b4:	f1 85       	ldd	r31, Z+9	; 0x09
    83b6:	e0 2d       	mov	r30, r0
    83b8:	19 95       	eicall
    83ba:	89 2b       	or	r24, r25
    83bc:	e1 f6       	brne	.-72     	; 0x8376 <fputc+0x10>
    83be:	d8 01       	movw	r26, r16
    83c0:	16 96       	adiw	r26, 0x06	; 6
    83c2:	8d 91       	ld	r24, X+
    83c4:	9c 91       	ld	r25, X
    83c6:	17 97       	sbiw	r26, 0x07	; 7
    83c8:	01 96       	adiw	r24, 0x01	; 1
    83ca:	16 96       	adiw	r26, 0x06	; 6
    83cc:	8d 93       	st	X+, r24
    83ce:	9c 93       	st	X, r25
    83d0:	17 97       	sbiw	r26, 0x07	; 7
    83d2:	ce 01       	movw	r24, r28
    83d4:	df 91       	pop	r29
    83d6:	cf 91       	pop	r28
    83d8:	1f 91       	pop	r17
    83da:	0f 91       	pop	r16
    83dc:	08 95       	ret

000083de <sprintf>:
    83de:	0f 93       	push	r16
    83e0:	1f 93       	push	r17
    83e2:	cf 93       	push	r28
    83e4:	df 93       	push	r29
    83e6:	cd b7       	in	r28, 0x3d	; 61
    83e8:	de b7       	in	r29, 0x3e	; 62
    83ea:	2e 97       	sbiw	r28, 0x0e	; 14
    83ec:	cd bf       	out	0x3d, r28	; 61
    83ee:	de bf       	out	0x3e, r29	; 62
    83f0:	0e 89       	ldd	r16, Y+22	; 0x16
    83f2:	1f 89       	ldd	r17, Y+23	; 0x17
    83f4:	86 e0       	ldi	r24, 0x06	; 6
    83f6:	8c 83       	std	Y+4, r24	; 0x04
    83f8:	09 83       	std	Y+1, r16	; 0x01
    83fa:	1a 83       	std	Y+2, r17	; 0x02
    83fc:	8f ef       	ldi	r24, 0xFF	; 255
    83fe:	9f e7       	ldi	r25, 0x7F	; 127
    8400:	8d 83       	std	Y+5, r24	; 0x05
    8402:	9e 83       	std	Y+6, r25	; 0x06
    8404:	ae 01       	movw	r20, r28
    8406:	46 5e       	subi	r20, 0xE6	; 230
    8408:	5f 4f       	sbci	r21, 0xFF	; 255
    840a:	68 8d       	ldd	r22, Y+24	; 0x18
    840c:	79 8d       	ldd	r23, Y+25	; 0x19
    840e:	ce 01       	movw	r24, r28
    8410:	01 96       	adiw	r24, 0x01	; 1
    8412:	0e 94 d4 3b 	call	0x77a8	; 0x77a8 <vfprintf>
    8416:	ef 81       	ldd	r30, Y+7	; 0x07
    8418:	f8 85       	ldd	r31, Y+8	; 0x08
    841a:	e0 0f       	add	r30, r16
    841c:	f1 1f       	adc	r31, r17
    841e:	10 82       	st	Z, r1
    8420:	2e 96       	adiw	r28, 0x0e	; 14
    8422:	cd bf       	out	0x3d, r28	; 61
    8424:	de bf       	out	0x3e, r29	; 62
    8426:	df 91       	pop	r29
    8428:	cf 91       	pop	r28
    842a:	1f 91       	pop	r17
    842c:	0f 91       	pop	r16
    842e:	08 95       	ret

00008430 <__ultoa_invert>:
    8430:	fa 01       	movw	r30, r20
    8432:	aa 27       	eor	r26, r26
    8434:	28 30       	cpi	r18, 0x08	; 8
    8436:	51 f1       	breq	.+84     	; 0x848c <__ultoa_invert+0x5c>
    8438:	20 31       	cpi	r18, 0x10	; 16
    843a:	81 f1       	breq	.+96     	; 0x849c <__ultoa_invert+0x6c>
    843c:	e8 94       	clt
    843e:	6f 93       	push	r22
    8440:	6e 7f       	andi	r22, 0xFE	; 254
    8442:	6e 5f       	subi	r22, 0xFE	; 254
    8444:	7f 4f       	sbci	r23, 0xFF	; 255
    8446:	8f 4f       	sbci	r24, 0xFF	; 255
    8448:	9f 4f       	sbci	r25, 0xFF	; 255
    844a:	af 4f       	sbci	r26, 0xFF	; 255
    844c:	b1 e0       	ldi	r27, 0x01	; 1
    844e:	3e d0       	rcall	.+124    	; 0x84cc <__ultoa_invert+0x9c>
    8450:	b4 e0       	ldi	r27, 0x04	; 4
    8452:	3c d0       	rcall	.+120    	; 0x84cc <__ultoa_invert+0x9c>
    8454:	67 0f       	add	r22, r23
    8456:	78 1f       	adc	r23, r24
    8458:	89 1f       	adc	r24, r25
    845a:	9a 1f       	adc	r25, r26
    845c:	a1 1d       	adc	r26, r1
    845e:	68 0f       	add	r22, r24
    8460:	79 1f       	adc	r23, r25
    8462:	8a 1f       	adc	r24, r26
    8464:	91 1d       	adc	r25, r1
    8466:	a1 1d       	adc	r26, r1
    8468:	6a 0f       	add	r22, r26
    846a:	71 1d       	adc	r23, r1
    846c:	81 1d       	adc	r24, r1
    846e:	91 1d       	adc	r25, r1
    8470:	a1 1d       	adc	r26, r1
    8472:	20 d0       	rcall	.+64     	; 0x84b4 <__ultoa_invert+0x84>
    8474:	09 f4       	brne	.+2      	; 0x8478 <__ultoa_invert+0x48>
    8476:	68 94       	set
    8478:	3f 91       	pop	r19
    847a:	2a e0       	ldi	r18, 0x0A	; 10
    847c:	26 9f       	mul	r18, r22
    847e:	11 24       	eor	r1, r1
    8480:	30 19       	sub	r19, r0
    8482:	30 5d       	subi	r19, 0xD0	; 208
    8484:	31 93       	st	Z+, r19
    8486:	de f6       	brtc	.-74     	; 0x843e <__ultoa_invert+0xe>
    8488:	cf 01       	movw	r24, r30
    848a:	08 95       	ret
    848c:	46 2f       	mov	r20, r22
    848e:	47 70       	andi	r20, 0x07	; 7
    8490:	40 5d       	subi	r20, 0xD0	; 208
    8492:	41 93       	st	Z+, r20
    8494:	b3 e0       	ldi	r27, 0x03	; 3
    8496:	0f d0       	rcall	.+30     	; 0x84b6 <__ultoa_invert+0x86>
    8498:	c9 f7       	brne	.-14     	; 0x848c <__ultoa_invert+0x5c>
    849a:	f6 cf       	rjmp	.-20     	; 0x8488 <__ultoa_invert+0x58>
    849c:	46 2f       	mov	r20, r22
    849e:	4f 70       	andi	r20, 0x0F	; 15
    84a0:	40 5d       	subi	r20, 0xD0	; 208
    84a2:	4a 33       	cpi	r20, 0x3A	; 58
    84a4:	18 f0       	brcs	.+6      	; 0x84ac <__ultoa_invert+0x7c>
    84a6:	49 5d       	subi	r20, 0xD9	; 217
    84a8:	31 fd       	sbrc	r19, 1
    84aa:	40 52       	subi	r20, 0x20	; 32
    84ac:	41 93       	st	Z+, r20
    84ae:	02 d0       	rcall	.+4      	; 0x84b4 <__ultoa_invert+0x84>
    84b0:	a9 f7       	brne	.-22     	; 0x849c <__ultoa_invert+0x6c>
    84b2:	ea cf       	rjmp	.-44     	; 0x8488 <__ultoa_invert+0x58>
    84b4:	b4 e0       	ldi	r27, 0x04	; 4
    84b6:	a6 95       	lsr	r26
    84b8:	97 95       	ror	r25
    84ba:	87 95       	ror	r24
    84bc:	77 95       	ror	r23
    84be:	67 95       	ror	r22
    84c0:	ba 95       	dec	r27
    84c2:	c9 f7       	brne	.-14     	; 0x84b6 <__ultoa_invert+0x86>
    84c4:	00 97       	sbiw	r24, 0x00	; 0
    84c6:	61 05       	cpc	r22, r1
    84c8:	71 05       	cpc	r23, r1
    84ca:	08 95       	ret
    84cc:	9b 01       	movw	r18, r22
    84ce:	ac 01       	movw	r20, r24
    84d0:	0a 2e       	mov	r0, r26
    84d2:	06 94       	lsr	r0
    84d4:	57 95       	ror	r21
    84d6:	47 95       	ror	r20
    84d8:	37 95       	ror	r19
    84da:	27 95       	ror	r18
    84dc:	ba 95       	dec	r27
    84de:	c9 f7       	brne	.-14     	; 0x84d2 <__ultoa_invert+0xa2>
    84e0:	62 0f       	add	r22, r18
    84e2:	73 1f       	adc	r23, r19
    84e4:	84 1f       	adc	r24, r20
    84e6:	95 1f       	adc	r25, r21
    84e8:	a0 1d       	adc	r26, r0
    84ea:	08 95       	ret

000084ec <strrev>:
    84ec:	dc 01       	movw	r26, r24
    84ee:	fc 01       	movw	r30, r24
    84f0:	67 2f       	mov	r22, r23
    84f2:	71 91       	ld	r23, Z+
    84f4:	77 23       	and	r23, r23
    84f6:	e1 f7       	brne	.-8      	; 0x84f0 <strrev+0x4>
    84f8:	32 97       	sbiw	r30, 0x02	; 2
    84fa:	04 c0       	rjmp	.+8      	; 0x8504 <strrev+0x18>
    84fc:	7c 91       	ld	r23, X
    84fe:	6d 93       	st	X+, r22
    8500:	70 83       	st	Z, r23
    8502:	62 91       	ld	r22, -Z
    8504:	ae 17       	cp	r26, r30
    8506:	bf 07       	cpc	r27, r31
    8508:	c8 f3       	brcs	.-14     	; 0x84fc <strrev+0x10>
    850a:	08 95       	ret

0000850c <_exit>:
    850c:	f8 94       	cli

0000850e <__stop_program>:
    850e:	ff cf       	rjmp	.-2      	; 0x850e <__stop_program>
